 UAlbertaBot

 Timestamp is 66492d41 (Sun May 19 00:35:45 2024)

 Preferred load address is 00400000

 Start         Length     Name                   Class
 0001:00000000 00017c50H .text$di                CODE
 0001:00017c50 00079620H .text$mn                CODE
 0001:00091270 0000c440H .text$x                 CODE
 0001:0009d6b0 00000e54H .text$yd                CODE
 0002:00000000 000002d4H .idata$5                DATA
 0002:000002d4 00000004H .00cfg                  DATA
 0002:000002d8 00000004H .CRT$XCA                DATA
 0002:000002dc 00000004H .CRT$XCAA               DATA
 0002:000002e0 00000004H .CRT$XCL                DATA
 0002:000002e4 00000144H .CRT$XCU                DATA
 0002:00000428 00000004H .CRT$XCZ                DATA
 0002:0000042c 00000004H .CRT$XIA                DATA
 0002:00000430 00000004H .CRT$XIAA               DATA
 0002:00000434 00000004H .CRT$XIAC               DATA
 0002:00000438 00000004H .CRT$XIC                DATA
 0002:0000043c 00000004H .CRT$XIZ                DATA
 0002:00000440 00000004H .CRT$XLA                DATA
 0002:00000444 00000004H .CRT$XLZ                DATA
 0002:00000448 00000004H .CRT$XPA                DATA
 0002:0000044c 00000004H .CRT$XPZ                DATA
 0002:00000450 00000004H .CRT$XTA                DATA
 0002:00000454 0000000cH .CRT$XTZ                DATA
 0002:00000458 00000000H .gfids$y                DATA
 0002:00000460 0001abe0H .rdata                  DATA
 0002:0001b040 00000000H .rdata$CastGuardVftablesA DATA
 0002:0001b040 00000000H .rdata$CastGuardVftablesC DATA
 0002:0001b040 00000018H .rdata$T                DATA
 0002:0001b058 00001338H .rdata$r                DATA
 0002:0001c390 00000520H .rdata$sxdata           DATA
 0002:0001c8b0 00000018H .rdata$voltmd           DATA
 0002:0001c8c8 00000404H .rdata$zzzdbg           DATA
 0002:0001cccc 00000004H .rtc$IAA                DATA
 0002:0001ccd0 00000004H .rtc$IZZ                DATA
 0002:0001ccd4 00000004H .rtc$TAA                DATA
 0002:0001ccd8 00000004H .rtc$TZZ                DATA
 0002:0001ccdc 00000004H .tls                    DATA
 0002:0001cce0 00000004H .tls$                   DATA
 0002:0001cce4 00000004H .tls$ZZZ                DATA
 0002:0001cce8 0000a588H .xdata$x                DATA
 0002:00027270 00000000H .edata                  DATA
 0002:00027270 000000f0H .idata$2                DATA
 0002:00027360 00000014H .idata$3                DATA
 0002:00027374 000002d4H .idata$4                DATA
 0002:00027648 00001704H .idata$6                DATA
 0003:00000000 00005f84H .data                   DATA
 0003:00005f84 0000023cH .data$r                 DATA
 0003:000061c0 00000bc0H .data$rs                DATA
 0003:00006d80 000540e0H .bss                    DATA
 0004:00000000 00000060H .rsrc$01                DATA
 0004:00000060 00000180H .rsrc$02                DATA

  Address         Publics by Value              Rva+Base       Lib:Object

 0000:00000000       ___x64_code_ranges_to_entry_points_count 00000000     <absolute>
 0000:00000000       ___guard_eh_cont_table     00000000     <absolute>
 0000:00000000       ___guard_iat_table         00000000     <absolute>
 0000:00000000       ___guard_fids_count        00000000     <absolute>
 0000:00000000       ___arm64x_native_entrypoint 00000000     <absolute>
 0000:00000000       ___guard_longjmp_table     00000000     <absolute>
 0000:00000000       ___arm64x_extra_rfe_table  00000000     <absolute>
 0000:00000000       ___arm64x_redirection_metadata 00000000     <absolute>
 0000:00000000       ___guard_eh_cont_count     00000000     <absolute>
 0000:00000000       ___hybrid_code_map_count   00000000     <absolute>
 0000:00000000       ___guard_iat_count         00000000     <absolute>
 0000:00000000       ___x64_code_ranges_to_entry_points 00000000     <absolute>
 0000:00000000       ___guard_longjmp_count     00000000     <absolute>
 0000:00000000       ___guard_check_icall_a64n_fptr 00000000     <absolute>
 0000:00000000       ___arm64x_redirection_metadata_count 00000000     <absolute>
 0000:00000000       ___hybrid_code_map         00000000     <absolute>
 0000:00000000       ___arm64x_extra_rfe_table_size 00000000     <absolute>
 0000:00000000       ___enclave_config          00000000     <absolute>
 0000:00000000       ___guard_fids_table        00000000     <absolute>
 0000:00000000       ___hybrid_auxiliary_iat    00000000     <absolute>
 0000:00000000       ___dynamic_value_reloc_table 00000000     <absolute>
 0000:00000000       ___AbsoluteZero            00000000     <absolute>
 0000:00000000       ___hybrid_auxiliary_iat_copy 00000000     <absolute>
 0000:0000002c       __tls_array                0000002c     <absolute>
 0000:00000100       ___guard_flags             00000100     <absolute>
 0000:00000148       ___safe_se_handler_count   00000148     <absolute>
 0000:00000000       ___ImageBase               00400000     <linker-defined>
 0001:00017c50       ??0exception@std@@QAE@ABV01@@Z 00418c50 f i area.obj
 0001:00017c80       ??1Exception@BWEM@@UAE@XZ  00418c80 f i bwem.obj
 0001:00017c80       ??1bad_cast@std@@UAE@XZ    00418c80 f i utils.obj
 0001:00017c80       ??1exception@std@@UAE@XZ   00418c80 f i area.obj
 0001:00017c80       ??1bad_array_new_length@std@@UAE@XZ 00418c80 f i area.obj
 0001:00017c80       ??1bad_alloc@std@@UAE@XZ   00418c80 f i area.obj
 0001:00017ca0       ?what@exception@std@@UBEPBDXZ 00418ca0 f i area.obj
 0001:00017cb0       ??_Gbad_alloc@std@@UAEPAXI@Z 00418cb0 f i area.obj
 0001:00017cb0       ??_Ebad_array_new_length@std@@UAEPAXI@Z 00418cb0 f i * CIL library *:* CIL module *
 0001:00017cb0       ??_Gbad_array_new_length@std@@UAEPAXI@Z 00418cb0 f i area.obj
 0001:00017cb0       ??_EException@BWEM@@UAEPAXI@Z 00418cb0 f i * CIL library *:* CIL module *
 0001:00017cb0       ??_Ebad_cast@std@@UAEPAXI@Z 00418cb0 f i * CIL library *:* CIL module *
 0001:00017cb0       ??_Gbad_cast@std@@UAEPAXI@Z 00418cb0 f i utils.obj
 0001:00017cb0       ??_Eruntime_error@std@@UAEPAXI@Z 00418cb0 f i * CIL library *:* CIL module *
 0001:00017cb0       ??_Ebad_alloc@std@@UAEPAXI@Z 00418cb0 f i * CIL library *:* CIL module *
 0001:00017cb0       ??_Gexception@std@@UAEPAXI@Z 00418cb0 f i area.obj
 0001:00017cb0       ??_Eexception@std@@UAEPAXI@Z 00418cb0 f i * CIL library *:* CIL module *
 0001:00017cb0       ??_GException@BWEM@@UAEPAXI@Z 00418cb0 f i bwem.obj
 0001:00017cb0       ??_Gruntime_error@std@@UAEPAXI@Z 00418cb0 f i bwem.obj
 0001:00017cf0       ??0bad_array_new_length@std@@QAE@XZ 00418cf0 f i area.obj
 0001:00017d10       ?__scrt_throw_std_bad_array_new_length@@YAXXZ 00418d10 f i MSVCRT:throw_bad_alloc.obj
 0001:00017d10       ?_Throw_bad_array_new_length@std@@YAXXZ 00418d10 f i area.obj
 0001:00017d30       ??0bad_array_new_length@std@@QAE@ABV01@@Z 00418d30 f i area.obj
 0001:00017d70       ??0bad_alloc@std@@QAE@ABV01@@Z 00418d70 f i area.obj
 0001:00017db0       ?_Throw_tree_length_error@std@@YAXXZ 00418db0 f i area.obj
 0001:00017dc0       ??0UnitType@BWAPI@@QAE@H@Z 00418dc0 f i area.obj
 0001:00017de0       ?distToRectangle@BWAPI_ext@BWEM@@YAHABV?$Point@H$00@BWAPI@@ABV?$Point@H$0CA@@4@1@Z 00418de0 f i area.obj
 0001:00017f10       ??0Area@BWEM@@QAE@ABV01@@Z 00418f10 f   area.obj
 0001:00018020       ?AddChokePoints@Area@BWEM@@QAEXPAV12@PAV?$vector@VChokePoint@BWEM@@V?$allocator@VChokePoint@BWEM@@@std@@@std@@@Z 00419020 f   area.obj
 0001:00018150       ?ComputeDistances@Area@BWEM@@ABE?AV?$vector@HV?$allocator@H@std@@@std@@V?$Point@H$0CA@@BWAPI@@ABV?$vector@V?$Point@H$0CA@@BWAPI@@V?$allocator@V?$Point@H$0CA@@BWAPI@@@std@@@4@@Z 00419150 f   area.obj
 0001:00018650       ??1?$multimap@HV?$Point@H$0CA@@BWAPI@@U?$less@H@std@@V?$allocator@U?$pair@$$CBHV?$Point@H$0CA@@BWAPI@@@std@@@4@@std@@QAE@XZ 00419650 f i area.obj
 0001:00018670       ?CreateBases@Area@BWEM@@QAEXXZ 00419670 f   area.obj
 0001:000190c0       ?_Tidy@?$vector@PAVBaseLocation@UAlbertaBot@@V?$allocator@PAVBaseLocation@UAlbertaBot@@@std@@@std@@AAEXXZ 0041a0c0 f i BaseLocationManager.obj
 0001:000190c0       ??1?$vector@PAVArea@BWEM@@V?$allocator@PAVArea@BWEM@@@std@@@std@@QAE@XZ 0041a0c0 f i graph.obj
 0001:000190c0       ??1?$vector@PAVMiniTile@BWEM@@V?$allocator@PAVMiniTile@BWEM@@@std@@@std@@QAE@XZ 0041a0c0 f i mapImpl.obj
 0001:000190c0       ?_Tidy@?$vector@PAVMineral@BWEM@@V?$allocator@PAVMineral@BWEM@@@std@@@std@@AAEXXZ 0041a0c0 f i area.obj
 0001:000190c0       ?_Tidy@?$vector@HV?$allocator@H@std@@@std@@AAEXXZ 0041a0c0 f i area.obj
 0001:000190c0       ?_Tidy@?$vector@PAVUnitInterface@BWAPI@@V?$allocator@PAVUnitInterface@BWAPI@@@std@@@std@@AAEXXZ 0041a0c0 f i examples.obj
 0001:000190c0       ??1?$vector@PBQAVUnitInterface@BWAPI@@V?$allocator@PBQAVUnitInterface@BWAPI@@@std@@@std@@QAE@XZ 0041a0c0 f i BaseLocationManager.obj
 0001:000190c0       ?_Tidy@?$vector@IV?$allocator@I@std@@@std@@AAEXXZ 0041a0c0 f i BOSSManager.obj
 0001:000190c0       ??1?$vector@PBVArea@BWEM@@V?$allocator@PBVArea@BWEM@@@std@@@std@@QAE@XZ 0041a0c0 f i area.obj
 0001:000190c0       ??1?$vector@VMiniTile@BWEM@@V?$allocator@VMiniTile@BWEM@@@std@@@std@@QAE@XZ 0041a0c0 f i mapImpl.obj
 0001:000190c0       ??1?$vector@PAVRessource@BWEM@@V?$allocator@PAVRessource@BWEM@@@std@@@std@@QAE@XZ 0041a0c0 f i area.obj
 0001:000190c0       ??1?$vector@PAVGeyser@BWEM@@V?$allocator@PAVGeyser@BWEM@@@std@@@std@@QAE@XZ 0041a0c0 f i area.obj
 0001:000190c0       ??1?$vector@PAVNeutral@BWEM@@V?$allocator@PAVNeutral@BWEM@@@std@@@std@@QAE@XZ 0041a0c0 f i graph.obj
 0001:000190c0       ??1?$vector@VUnitType@BWAPI@@V?$allocator@VUnitType@BWAPI@@@std@@@std@@QAE@XZ 0041a0c0 f i exampleWall.obj
 0001:000190c0       ??1?$vector@PBVChokePoint@BWEM@@V?$allocator@PBVChokePoint@BWEM@@@std@@@std@@QAE@XZ 0041a0c0 f i area.obj
 0001:000190c0       ??1?$vector@PAVChokePoint@BWEM@@V?$allocator@PAVChokePoint@BWEM@@@std@@@std@@QAE@XZ 0041a0c0 f i mapImpl.obj
 0001:000190c0       ?_Tidy@?$vector@PBVBaseLocation@UAlbertaBot@@V?$allocator@PBVBaseLocation@UAlbertaBot@@@std@@@std@@AAEXXZ 0041a0c0 f i BaseLocationManager.obj
 0001:00019120       ??1?$vector@PAVMineral@BWEM@@V?$allocator@PAVMineral@BWEM@@@std@@@std@@QAE@XZ 0041a120 f i area.obj
 0001:00019120       ??1?$vector@PAVUnitInterface@BWAPI@@V?$allocator@PAVUnitInterface@BWAPI@@@std@@@std@@QAE@XZ 0041a120 f i examples.obj
 0001:00019120       ??1?$vector@PAVBaseLocation@UAlbertaBot@@V?$allocator@PAVBaseLocation@UAlbertaBot@@@std@@@std@@QAE@XZ 0041a120 f i BaseLocationManager.obj
 0001:00019120       ??1?$vector@IV?$allocator@I@std@@@std@@QAE@XZ 0041a120 f i BOSSManager.obj
 0001:00019120       ??1?$vector@HV?$allocator@H@std@@@std@@QAE@XZ 0041a120 f i area.obj
 0001:00019120       ??1?$vector@PBVBaseLocation@UAlbertaBot@@V?$allocator@PBVBaseLocation@UAlbertaBot@@@std@@@std@@QAE@XZ 0041a120 f i BaseLocationManager.obj
 0001:00019130       ??1?$vector@VActionType@BOSS@@V?$allocator@VActionType@BOSS@@@std@@@std@@QAE@XZ 0041a130 f i BOSSManager.obj
 0001:00019130       ??1?$vector@V?$Point@H$07@BWAPI@@V?$allocator@V?$Point@H$07@BWAPI@@@std@@@std@@QAE@XZ 0041a130 f i cp.obj
 0001:00019130       ??1?$vector@V?$Point@H$00@BWAPI@@V?$allocator@V?$Point@H$00@BWAPI@@@std@@@std@@QAE@XZ 0041a130 f i BaseLocation.obj
 0001:00019130       ??1?$vector@V?$Point@H$0CA@@BWAPI@@V?$allocator@V?$Point@H$0CA@@BWAPI@@@std@@@std@@QAE@XZ 0041a130 f i area.obj
 0001:00019130       ??1?$vector@UTile@@V?$allocator@UTile@@@std@@@std@@QAE@XZ 0041a130 f i BaseLocationManager.obj
 0001:00019140       ??1?$vector@VBase@BWEM@@V?$allocator@VBase@BWEM@@@std@@@std@@QAE@XZ 0041a140 f i area.obj
 0001:000191c0       ?_Tidy@?$vector@V?$Point@H$0CA@@BWAPI@@V?$allocator@V?$Point@H$0CA@@BWAPI@@@std@@@std@@AAEXXZ 0041a1c0 f i area.obj
 0001:000191c0       ?_Tidy@?$vector@UTile@@V?$allocator@UTile@@@std@@@std@@AAEXXZ 0041a1c0 f i BaseLocationManager.obj
 0001:000191c0       ?_Tidy@?$vector@U?$pair@HH@std@@V?$allocator@U?$pair@HH@std@@@2@@std@@AAEXXZ 0041a1c0 f i SparCraft:AnimationFrameData.obj
 0001:000191c0       ?_Tidy@?$vector@VActionType@BOSS@@V?$allocator@VActionType@BOSS@@@std@@@std@@AAEXXZ 0041a1c0 f i BOSSManager.obj
 0001:000191c0       ?_Tidy@?$vector@V?$Point@H$00@BWAPI@@V?$allocator@V?$Point@H$00@BWAPI@@@std@@@std@@AAEXXZ 0041a1c0 f i BaseLocation.obj
 0001:000191c0       ??1?$vector@V?$array@H$01@std@@V?$allocator@V?$array@H$01@std@@@2@@std@@QAE@XZ 0041a1c0 f i MapTools.obj
 0001:000191c0       ?_Tidy@?$vector@V?$Point@H$07@BWAPI@@V?$allocator@V?$Point@H$07@BWAPI@@@std@@@std@@AAEXXZ 0041a1c0 f i cp.obj
 0001:00019220       ?_Xlength@?$vector@DV?$allocator@D@std@@@std@@CAXXZ 0041a220 f i MapTools.obj
 0001:00019220       ?_Xlength@?$vector@VUnitType@BWAPI@@V?$allocator@VUnitType@BWAPI@@@std@@@std@@CAXXZ 0041a220 f i exampleWall.obj
 0001:00019220       ?_Xlength@?$vector@V?$basic_string@DU?$char_traits@D@std@@V?$allocator@D@2@@std@@V?$allocator@V?$basic_string@DU?$char_traits@D@std@@V?$allocator@D@2@@std@@@2@@std@@CAXXZ 0041a220 f i TimerManager.obj
 0001:00019220       ?_Xlength@?$vector@V?$unique_ptr@VStaticBuilding@BWEM@@U?$default_delete@VStaticBuilding@BWEM@@@std@@@std@@V?$allocator@V?$unique_ptr@VStaticBuilding@BWEM@@U?$default_delete@VStaticBuilding@BWEM@@@std@@@std@@@2@@std@@CAXXZ 0041a220 f i mapImpl.obj
 0001:00019220       ?_Xlength@?$vector@V?$vector@DV?$allocator@D@std@@@std@@V?$allocator@V?$vector@DV?$allocator@D@std@@@std@@@2@@std@@CAXXZ 0041a220 f i MapTools.obj
 0001:00019220       ?_Xlength@?$vector@U?$pair@V?$Point@H$07@BWAPI@@F@std@@V?$allocator@U?$pair@V?$Point@H$07@BWAPI@@F@std@@@2@@std@@CAXXZ 0041a220 f i mapImpl.obj
 0001:00019220       ?_Xlength@?$vector@V?$vector@PBVChokePoint@BWEM@@V?$allocator@PBVChokePoint@BWEM@@@std@@@std@@V?$allocator@V?$vector@PBVChokePoint@BWEM@@V?$allocator@PBVChokePoint@BWEM@@@std@@@std@@@2@@std@@CAXXZ 0041a220 f i graph.obj
 0001:00019220       ?_Xlength@?$vector@V?$vector@V?$vector@VChokePoint@BWEM@@V?$allocator@VChokePoint@BWEM@@@std@@@std@@V?$allocator@V?$vector@VChokePoint@BWEM@@V?$allocator@VChokePoint@BWEM@@@std@@@std@@@2@@std@@V?$allocator@V?$vector@V?$vector@VChokePoint@BWEM@@V?$allocator@VChokePoint@BWEM@@@std@@@std@@V?$allocator@V?$vector@VChokePoint@BWEM@@V?$allocator@VChokePoint@BWEM@@@std@@@std@@@2@@std@@@2@@std@@CAXXZ 0041a220 f i graph.obj
 0001:00019220       ?_Xlength@?$vector@V?$vector@VChokePoint@BWEM@@V?$allocator@VChokePoint@BWEM@@@std@@@std@@V?$allocator@V?$vector@VChokePoint@BWEM@@V?$allocator@VChokePoint@BWEM@@@std@@@std@@@2@@std@@CAXXZ 0041a220 f i graph.obj
 0001:00019220       ?_Xlength@?$vector@V?$vector@HV?$allocator@H@std@@@std@@V?$allocator@V?$vector@HV?$allocator@H@std@@@std@@@2@@std@@CAXXZ 0041a220 f i graph.obj
 0001:00019220       ?_Xlength@?$vector@VPlayerImpl@BWAPI@@V?$allocator@VPlayerImpl@BWAPI@@@std@@@std@@CAXXZ 0041a220 f i BWAPIClient:GameImpl.obj
 0001:00019220       ?_Xlength@?$vector@VTempAreaInfo@detail@BWEM@@V?$allocator@VTempAreaInfo@detail@BWEM@@@std@@@std@@CAXXZ 0041a220 f i mapImpl.obj
 0001:00019220       ?_Xlength@?$vector@V?$array@H$01@std@@V?$allocator@V?$array@H$01@std@@@2@@std@@CAXXZ 0041a220 f i MapTools.obj
 0001:00019220       ?_Xlength@?$vector@PBQAVUnitInterface@BWAPI@@V?$allocator@PBQAVUnitInterface@BWAPI@@@std@@@std@@CAXXZ 0041a220 f i BaseLocationManager.obj
 0001:00019220       ?_Xlength@?$vector@UCluster@@V?$allocator@UCluster@@@std@@@std@@CAXXZ 0041a220 f i BaseLocationManager.obj
 0001:00019220       ?_Xlength@?$vector@PBVChokePoint@BWEM@@V?$allocator@PBVChokePoint@BWEM@@@std@@@std@@CAXXZ 0041a220 f i area.obj
 0001:00019220       ?_Xlength@?$vector@VUnit@SparCraft@@V?$allocator@VUnit@SparCraft@@@std@@@std@@CAXXZ 0041a220 f i CombatSimulation.obj
 0001:00019220       ?_Xlength@?$vector@PBVBaseLocation@UAlbertaBot@@V?$allocator@PBVBaseLocation@UAlbertaBot@@@std@@@std@@CAXXZ 0041a220 f i BaseLocationManager.obj
 0001:00019220       ?_Xlength@?$vector@VActionPerformed@BOSS@@V?$allocator@VActionPerformed@BOSS@@@std@@@std@@CAXXZ 0041a220 f i BOSSManager.obj
 0001:00019220       ?_Xlength@?$vector@U?$pair@V?$Point@H$07@BWAPI@@H@std@@V?$allocator@U?$pair@V?$Point@H$07@BWAPI@@H@std@@@2@@std@@CAXXZ 0041a220 f i mapImpl.obj
 0001:00019220       ?_Xlength@?$vector@UTile@@V?$allocator@UTile@@@std@@@std@@CAXXZ 0041a220 f i BaseLocationManager.obj
 0001:00019220       ?_Xlength@?$vector@PAVMineral@BWEM@@V?$allocator@PAVMineral@BWEM@@@std@@@std@@CAXXZ 0041a220 f i area.obj
 0001:00019220       ?_Xlength@?$vector@VAction@SparCraft@@V?$allocator@VAction@SparCraft@@@std@@@std@@CAXXZ 0041a220 f i SparCraft:Player_NOKDPS.obj
 0001:00019220       ?_Xlength@?$vector@V?$vector@VActionType@BOSS@@V?$allocator@VActionType@BOSS@@@std@@@std@@V?$allocator@V?$vector@VActionType@BOSS@@V?$allocator@VActionType@BOSS@@@std@@@std@@@2@@std@@CAXXZ 0041a220 f i BOSS:ActionType.obj
 0001:00019220       ?_Xlength@?$vector@PAVUnitInterface@BWAPI@@V?$allocator@PAVUnitInterface@BWAPI@@@std@@@std@@CAXXZ 0041a220 f i examples.obj
 0001:00019220       ?_Xlength@?$vector@VChokePoint@BWEM@@V?$allocator@VChokePoint@BWEM@@@std@@@std@@CAXXZ 0041a220 f i graph.obj
 0001:00019220       ?_Xlength@?$vector@PAVChokePoint@BWEM@@V?$allocator@PAVChokePoint@BWEM@@@std@@@std@@CAXXZ 0041a220 f i graph.obj
 0001:00019220       ?_Xlength@?$vector@V?$Point@H$00@BWAPI@@V?$allocator@V?$Point@H$00@BWAPI@@@std@@@std@@CAXXZ 0041a220 f i BaseLocation.obj
 0001:00019220       ?_Xlength@?$vector@PAVGeyser@BWEM@@V?$allocator@PAVGeyser@BWEM@@@std@@@std@@CAXXZ 0041a220 f i area.obj
 0001:00019220       ?_Xlength@?$vector@PAVRessource@BWEM@@V?$allocator@PAVRessource@BWEM@@@std@@@std@@CAXXZ 0041a220 f i area.obj
 0001:00019220       ?_Xlength@?$vector@VForceImpl@BWAPI@@V?$allocator@VForceImpl@BWAPI@@@std@@@std@@CAXXZ 0041a220 f i BWAPIClient:GameImpl.obj
 0001:00019220       ?_Xlength@?$vector@VActionTypeData@BOSS@@V?$allocator@VActionTypeData@BOSS@@@std@@@std@@CAXXZ 0041a220 f i BOSS:ActionTypeData.obj
 0001:00019220       ?_Xlength@?$vector@VBulletImpl@BWAPI@@V?$allocator@VBulletImpl@BWAPI@@@std@@@std@@CAXXZ 0041a220 f i BWAPIClient:GameImpl.obj
 0001:00019220       ?_Xlength@?$vector@V?$Point@H$07@BWAPI@@V?$allocator@V?$Point@H$07@BWAPI@@@std@@@std@@CAXXZ 0041a220 f i cp.obj
 0001:00019220       ?_Xlength@?$vector@U?$pair@VMetaType@UAlbertaBot@@I@std@@V?$allocator@U?$pair@VMetaType@UAlbertaBot@@I@std@@@2@@std@@CAXXZ 0041a220 f i BOSSManager.obj
 0001:00019220       ?_Xlength@?$vector@V?$vector@PAVBaseLocation@UAlbertaBot@@V?$allocator@PAVBaseLocation@UAlbertaBot@@@std@@@std@@V?$allocator@V?$vector@PAVBaseLocation@UAlbertaBot@@V?$allocator@PAVBaseLocation@UAlbertaBot@@@std@@@std@@@2@@std@@CAXXZ 0041a220 f i BaseLocationManager.obj
 0001:00019220       ?_Xlength@?$vector@VUnitImpl@BWAPI@@V?$allocator@VUnitImpl@BWAPI@@@std@@@std@@CAXXZ 0041a220 f i BWAPIClient:GameImpl.obj
 0001:00019220       ?_Xlength@?$vector@UUnitInfo@UAlbertaBot@@V?$allocator@UUnitInfo@UAlbertaBot@@@std@@@std@@CAXXZ 0041a220 f i InformationManager.obj
 0001:00019220       ?_Xlength@?$vector@U?$pair@V?$Point@H$07@BWAPI@@PAVMiniTile@BWEM@@@std@@V?$allocator@U?$pair@V?$Point@H$07@BWAPI@@PAVMiniTile@BWEM@@@std@@@2@@std@@CAXXZ 0041a220 f i mapImpl.obj
 0001:00019220       ?_Xlength@?$vector@PAVMiniTile@BWEM@@V?$allocator@PAVMiniTile@BWEM@@@std@@@std@@CAXXZ 0041a220 f i mapImpl.obj
 0001:00019220       ?_Xlength@?$vector@U?$pair@HH@std@@V?$allocator@U?$pair@HH@std@@@2@@std@@CAXXZ 0041a220 f i SparCraft:AnimationFrameData.obj
 0001:00019220       ?_Xlength@?$vector@UBaseBorder@@V?$allocator@UBaseBorder@@@std@@@std@@CAXXZ 0041a220 f i BaseLocationManager.obj
 0001:00019220       ?_Xlength@?$vector@V?$Point@H$0CA@@BWAPI@@V?$allocator@V?$Point@H$0CA@@BWAPI@@@std@@@std@@CAXXZ 0041a220 f i area.obj
 0001:00019220       ?_Xlength@?$vector@VMetaType@UAlbertaBot@@V?$allocator@VMetaType@UAlbertaBot@@@std@@@std@@CAXXZ 0041a220 f i BOSSManager.obj
 0001:00019220       ?_Xlength@?$vector@HV?$allocator@H@std@@@std@@CAXXZ 0041a220 f i area.obj
 0001:00019220       ?_Xlength@?$vector@V?$vector@V?$vector@PBVChokePoint@BWEM@@V?$allocator@PBVChokePoint@BWEM@@@std@@@std@@V?$allocator@V?$vector@PBVChokePoint@BWEM@@V?$allocator@PBVChokePoint@BWEM@@@std@@@std@@@2@@std@@V?$allocator@V?$vector@V?$vector@PBVChokePoint@BWEM@@V?$allocator@PBVChokePoint@BWEM@@@std@@@std@@V?$allocator@V?$vector@PBVChokePoint@BWEM@@V?$allocator@PBVChokePoint@BWEM@@@std@@@std@@@2@@std@@@2@@std@@CAXXZ 0041a220 f i graph.obj
 0001:00019220       ?_Xlength@?$vector@VTile@BWEM@@V?$allocator@VTile@BWEM@@@std@@@std@@CAXXZ 0041a220 f i mapImpl.obj
 0001:00019220       ?_Xlength@?$vector@FV?$allocator@F@std@@@std@@CAXXZ 0041a220 f i graph.obj
 0001:00019220       ?_Xlength@?$vector@VMiniTile@BWEM@@V?$allocator@VMiniTile@BWEM@@@std@@@std@@CAXXZ 0041a220 f i mapImpl.obj
 0001:00019220       ?_Xlength@?$vector@VBuilding@UAlbertaBot@@V?$allocator@VBuilding@UAlbertaBot@@@std@@@std@@CAXXZ 0041a220 f i BuildingData.obj
 0001:00019220       ?_Xlength@?$vector@VBaseLocation@UAlbertaBot@@V?$allocator@VBaseLocation@UAlbertaBot@@@std@@@std@@CAXXZ 0041a220 f i BaseLocationManager.obj
 0001:00019220       ?_Xlength@?$vector@UDirection@BaseBorderFinder@@V?$allocator@UDirection@BaseBorderFinder@@@std@@@std@@CAXXZ 0041a220 f i BaseLocationManager.obj
 0001:00019220       ?_Xlength@?$vector@V?$unique_ptr@VMineral@BWEM@@U?$default_delete@VMineral@BWEM@@@std@@@std@@V?$allocator@V?$unique_ptr@VMineral@BWEM@@U?$default_delete@VMineral@BWEM@@@std@@@std@@@2@@std@@CAXXZ 0041a220 f i mapImpl.obj
 0001:00019220       ?_Xlength@?$vector@VActionType@BOSS@@V?$allocator@VActionType@BOSS@@@std@@@std@@CAXXZ 0041a220 f i BOSSManager.obj
 0001:00019220       ?_Xlength@?$vector@PAVNeutral@BWEM@@V?$allocator@PAVNeutral@BWEM@@@std@@@std@@CAXXZ 0041a220 f i graph.obj
 0001:00019220       ?_Xlength@?$vector@PBVArea@BWEM@@V?$allocator@PBVArea@BWEM@@@std@@@std@@CAXXZ 0041a220 f i area.obj
 0001:00019220       ?_Xlength@?$vector@PAVBaseLocation@UAlbertaBot@@V?$allocator@PAVBaseLocation@UAlbertaBot@@@std@@@std@@CAXXZ 0041a220 f i BaseLocationManager.obj
 0001:00019220       ?_Xlength@?$vector@U?$pair@U?$pair@FF@std@@V?$Point@H$07@BWAPI@@@std@@V?$allocator@U?$pair@U?$pair@FF@std@@V?$Point@H$07@BWAPI@@@std@@@2@@std@@CAXXZ 0041a220 f i mapImpl.obj
 0001:00019220       ?_Xlength@?$vector@VArea@BWEM@@V?$allocator@VArea@BWEM@@@std@@@std@@CAXXZ 0041a220 f i graph.obj
 0001:00019220       ?_Xlength@?$vector@V?$unique_ptr@VGeyser@BWEM@@U?$default_delete@VGeyser@BWEM@@@std@@@std@@V?$allocator@V?$unique_ptr@VGeyser@BWEM@@U?$default_delete@VGeyser@BWEM@@@std@@@std@@@2@@std@@CAXXZ 0041a220 f i mapImpl.obj
 0001:00019220       ?_Xlength@?$vector@PAVArea@BWEM@@V?$allocator@PAVArea@BWEM@@@std@@@std@@CAXXZ 0041a220 f i graph.obj
 0001:00019220       ?_Xlength@?$vector@IV?$allocator@I@std@@@std@@CAXXZ 0041a220 f i BOSSManager.obj
 0001:00019220       ?_Xlength@?$vector@VBase@BWEM@@V?$allocator@VBase@BWEM@@@std@@@std@@CAXXZ 0041a220 f i area.obj
 0001:00019220       ?_Xlength@?$vector@V?$deque@V?$Point@H$07@BWAPI@@V?$allocator@V?$Point@H$07@BWAPI@@@std@@@std@@V?$allocator@V?$deque@V?$Point@H$07@BWAPI@@V?$allocator@V?$Point@H$07@BWAPI@@@std@@@std@@@2@@std@@CAXXZ 0041a220 f i graph.obj
 0001:00019230       ?_Reallocate_exactly@?$vector@VBase@BWEM@@V?$allocator@VBase@BWEM@@@std@@@std@@AAEXI@Z 0041a230 f i area.obj
 0001:000192f0       ?_Change_array@?$vector@VBase@BWEM@@V?$allocator@VBase@BWEM@@@std@@@std@@AAEXQAVBase@BWEM@@II@Z 0041a2f0 f i area.obj
 0001:00019370       ?_Destroy@?$vector@VBase@BWEM@@V?$allocator@VBase@BWEM@@@std@@@std@@AAEXPAVBase@BWEM@@0@Z 0041a370 f i area.obj
 0001:00019390       ?deallocate@?$allocator@VBase@BWEM@@@std@@QAEXQAVBase@BWEM@@I@Z 0041a390 f i area.obj
 0001:000196d0       ??$emplace@ABHAAV?$Point@H$0CA@@BWAPI@@@?$multimap@HV?$Point@H$0CA@@BWAPI@@U?$less@H@std@@V?$allocator@U?$pair@$$CBHV?$Point@H$0CA@@BWAPI@@@std@@@4@@std@@QAE?AV?$_Tree_iterator@V?$_Tree_val@U?$_Tree_simple_types@U?$pair@$$CBHV?$Point@H$0CA@@BWAPI@@@std@@@std@@@std@@@1@ABHAAV?$Point@H$0CA@@BWAPI@@@Z 0041a6d0 f i area.obj
 0001:000196d0       ??$emplace@HAAV?$Point@H$0CA@@BWAPI@@@?$multimap@HV?$Point@H$0CA@@BWAPI@@U?$less@H@std@@V?$allocator@U?$pair@$$CBHV?$Point@H$0CA@@BWAPI@@@std@@@4@@std@@QAE?AV?$_Tree_iterator@V?$_Tree_val@U?$_Tree_simple_types@U?$pair@$$CBHV?$Point@H$0CA@@BWAPI@@@std@@@std@@@std@@@1@$$QAHAAV?$Point@H$0CA@@BWAPI@@@Z 0041a6d0 f i area.obj
 0001:000197a0       ??$_Emplace_reallocate@PAVArea@BWEM@@AAV?$Point@H$0CA@@BWAPI@@AAV?$vector@PAVRessource@BWEM@@V?$allocator@PAVRessource@BWEM@@@std@@@std@@AAV?$vector@PAVMineral@BWEM@@V?$allocator@PAVMineral@BWEM@@@std@@@6@@?$vector@VBase@BWEM@@V?$allocator@VBase@BWEM@@@std@@@std@@QAEPAVBase@BWEM@@QAV23@$$QAPAVArea@3@AAV?$Point@H$0CA@@BWAPI@@AAV?$vector@PAVRessource@BWEM@@V?$allocator@PAVRessource@BWEM@@@std@@@1@AAV?$vector@PAVMineral@BWEM@@V?$allocator@PAVMineral@BWEM@@@std@@@1@@Z 0041a7a0 f i area.obj
 0001:000199c0       ??$_Emplace_reallocate@ABQBVArea@BWEM@@@?$vector@PBVArea@BWEM@@V?$allocator@PBVArea@BWEM@@@std@@@std@@QAEPAPBVArea@BWEM@@QAPBV23@ABQBV23@@Z 0041a9c0 f i area.obj
 0001:000199c0       ??$_Emplace_reallocate@PAVRessource@BWEM@@@?$vector@PAVRessource@BWEM@@V?$allocator@PAVRessource@BWEM@@@std@@@std@@QAEPAPAVRessource@BWEM@@QAPAV23@$$QAPAV23@@Z 0041a9c0 f i area.obj
 0001:000199c0       ??$_Emplace_reallocate@PAVArea@BWEM@@@?$vector@PAVArea@BWEM@@V?$allocator@PAVArea@BWEM@@@std@@@std@@QAEPAPAVArea@BWEM@@QAPAV23@$$QAPAV23@@Z 0041a9c0 f i graph.obj
 0001:000199c0       ??$_Emplace_reallocate@PBQAVUnitInterface@BWAPI@@@?$vector@PBQAVUnitInterface@BWAPI@@V?$allocator@PBQAVUnitInterface@BWAPI@@@std@@@std@@QAEPAPBQAVUnitInterface@BWAPI@@QAPBQAV23@$$QAPBQAV23@@Z 0041a9c0 f i BaseLocationManager.obj
 0001:000199c0       ??$_Emplace_reallocate@PAVChokePoint@BWEM@@@?$vector@PAVChokePoint@BWEM@@V?$allocator@PAVChokePoint@BWEM@@@std@@@std@@QAEPAPAVChokePoint@BWEM@@QAPAV23@$$QAPAV23@@Z 0041a9c0 f i graph.obj
 0001:000199c0       ??$_Emplace_reallocate@ABQAVRessource@BWEM@@@?$vector@PAVRessource@BWEM@@V?$allocator@PAVRessource@BWEM@@@std@@@std@@QAEPAPAVRessource@BWEM@@QAPAV23@ABQAV23@@Z 0041a9c0 f i area.obj
 0001:000199c0       ??$_Emplace_reallocate@PAVMiniTile@BWEM@@@?$vector@PAVMiniTile@BWEM@@V?$allocator@PAVMiniTile@BWEM@@@std@@@std@@QAEPAPAVMiniTile@BWEM@@QAPAV23@$$QAPAV23@@Z 0041a9c0 f i mapImpl.obj
 0001:000199c0       ??$_Emplace_reallocate@PAVNeutral@BWEM@@@?$vector@PAVNeutral@BWEM@@V?$allocator@PAVNeutral@BWEM@@@std@@@std@@QAEPAPAVNeutral@BWEM@@QAPAV23@$$QAPAV23@@Z 0041a9c0 f i graph.obj
 0001:000199c0       ??$_Emplace_reallocate@PBVArea@BWEM@@@?$vector@PBVArea@BWEM@@V?$allocator@PBVArea@BWEM@@@std@@@std@@QAEPAPBVArea@BWEM@@QAPBV23@$$QAPBV23@@Z 0041a9c0 f i neutral.obj
 0001:000199c0       ??$_Emplace_reallocate@ABQAVGeyser@BWEM@@@?$vector@PAVGeyser@BWEM@@V?$allocator@PAVGeyser@BWEM@@@std@@@std@@QAEPAPAVGeyser@BWEM@@QAPAV23@ABQAV23@@Z 0041a9c0 f i area.obj
 0001:00019b20       ??$_Emplace_reallocate@AAUTile@@@?$vector@UTile@@V?$allocator@UTile@@@std@@@std@@QAEPAUTile@@QAU2@AAU2@@Z 0041ab20 f i BaseLocationManager.obj
 0001:00019b20       ??$_Emplace_reallocate@V?$Point@H$00@BWAPI@@@?$vector@V?$Point@H$00@BWAPI@@V?$allocator@V?$Point@H$00@BWAPI@@@std@@@std@@QAEPAV?$Point@H$00@BWAPI@@QAV23@$$QAV23@@Z 0041ab20 f i BaseLocation.obj
 0001:00019b20       ??$_Emplace_reallocate@ABUTile@@@?$vector@UTile@@V?$allocator@UTile@@@std@@@std@@QAEPAUTile@@QAU2@ABU2@@Z 0041ab20 f i BaseLocationManager.obj
 0001:00019b20       ??$_Emplace_reallocate@ABV?$Point@H$0CA@@BWAPI@@@?$vector@V?$Point@H$0CA@@BWAPI@@V?$allocator@V?$Point@H$0CA@@BWAPI@@@std@@@std@@QAEPAV?$Point@H$0CA@@BWAPI@@QAV23@ABV23@@Z 0041ab20 f i area.obj
 0001:00019b20       ??$_Emplace_reallocate@UTile@@@?$vector@UTile@@V?$allocator@UTile@@@std@@@std@@QAEPAUTile@@QAU2@$$QAU2@@Z 0041ab20 f i BaseLocationManager.obj
 0001:00019b20       ??$_Emplace_reallocate@V?$Point@H$0CA@@BWAPI@@@?$vector@V?$Point@H$0CA@@BWAPI@@V?$allocator@V?$Point@H$0CA@@BWAPI@@@std@@@std@@QAEPAV?$Point@H$0CA@@BWAPI@@QAV23@$$QAV23@@Z 0041ab20 f i area.obj
 0001:00019b20       ??$_Emplace_reallocate@ABV?$Point@H$00@BWAPI@@@?$vector@V?$Point@H$00@BWAPI@@V?$allocator@V?$Point@H$00@BWAPI@@@std@@@std@@QAEPAV?$Point@H$00@BWAPI@@QAV23@ABV23@@Z 0041ab20 f i TransportManager.obj
 0001:00019c30       ??$_Emplace_reallocate@PBVChokePoint@BWEM@@@?$vector@PBVChokePoint@BWEM@@V?$allocator@PBVChokePoint@BWEM@@@std@@@std@@QAEPAPBVChokePoint@BWEM@@QAPBV23@$$QAPBV23@@Z 0041ac30 f i area.obj
 0001:00019c30       ??$_Emplace_reallocate@PBVBaseLocation@UAlbertaBot@@@?$vector@PBVBaseLocation@UAlbertaBot@@V?$allocator@PBVBaseLocation@UAlbertaBot@@@std@@@std@@QAEPAPBVBaseLocation@UAlbertaBot@@QAPBV23@$$QAPBV23@@Z 0041ac30 f i BaseLocationManager.obj
 0001:00019c30       ??$_Emplace_reallocate@ABQAVUnitInterface@BWAPI@@@?$vector@PAVUnitInterface@BWAPI@@V?$allocator@PAVUnitInterface@BWAPI@@@std@@@std@@QAEPAPAVUnitInterface@BWAPI@@QAPAV23@ABQAV23@@Z 0041ac30 f i examples.obj
 0001:00019c30       ??$_Emplace_reallocate@ABQAVMineral@BWEM@@@?$vector@PAVMineral@BWEM@@V?$allocator@PAVMineral@BWEM@@@std@@@std@@QAEPAPAVMineral@BWEM@@QAPAV23@ABQAV23@@Z 0041ac30 f i area.obj
 0001:00019c30       ??$_Emplace_reallocate@ABQBVChokePoint@BWEM@@@?$vector@PBVChokePoint@BWEM@@V?$allocator@PBVChokePoint@BWEM@@@std@@@std@@QAEPAPBVChokePoint@BWEM@@QAPBV23@ABQBV23@@Z 0041ac30 f i graph.obj
 0001:00019d40       ??$_Destroy_range@V?$allocator@VBase@BWEM@@@std@@@std@@YAXPAVBase@BWEM@@QAV12@AAV?$allocator@VBase@BWEM@@@0@@Z 0041ad40 f i area.obj
 0001:00019dc0       ??1?$deque@V?$Point@H$0CA@@BWAPI@@V?$allocator@V?$Point@H$0CA@@BWAPI@@@std@@@std@@QAE@XZ 0041adc0 f i area.obj
 0001:00019dc0       ??1?$deque@VUnitType@BWAPI@@V?$allocator@VUnitType@BWAPI@@@std@@@std@@QAE@XZ 0041adc0 f i ProductionManager.obj
 0001:00019dc0       ??1?$deque@V?$Point@H$00@BWAPI@@V?$allocator@V?$Point@H$00@BWAPI@@@std@@@std@@QAE@XZ 0041adc0 f i BWAPIClient:GameImpl.obj
 0001:00019dc0       ??1?$queue@V?$Point@H$0CA@@BWAPI@@V?$deque@V?$Point@H$0CA@@BWAPI@@V?$allocator@V?$Point@H$0CA@@BWAPI@@@std@@@std@@@std@@QAE@XZ 0041adc0 f i area.obj
 0001:00019dc0       ??1?$queue@V?$Point@H$07@BWAPI@@V?$deque@V?$Point@H$07@BWAPI@@V?$allocator@V?$Point@H$07@BWAPI@@@std@@@std@@@std@@QAE@XZ 0041adc0 f i cp.obj
 0001:00019dc0       ??1?$deque@V?$Point@H$07@BWAPI@@V?$allocator@V?$Point@H$07@BWAPI@@@std@@@std@@QAE@XZ 0041adc0 f i cp.obj
 0001:00019de0       ??$_Emplace_back_internal@ABV?$Point@H$07@BWAPI@@@?$deque@V?$Point@H$07@BWAPI@@V?$allocator@V?$Point@H$07@BWAPI@@@std@@@std@@AAEXABV?$Point@H$07@BWAPI@@@Z 0041ade0 f i cp.obj
 0001:00019de0       ?push@?$queue@V?$Point@H$0CA@@BWAPI@@V?$deque@V?$Point@H$0CA@@BWAPI@@V?$allocator@V?$Point@H$0CA@@BWAPI@@@std@@@std@@@std@@QAEXABV?$Point@H$0CA@@BWAPI@@@Z 0041ade0 f i area.obj
 0001:00019e70       ?_Change_array@?$vector@UTile@@V?$allocator@UTile@@@std@@@std@@AAEXQAUTile@@II@Z 0041ae70 f i BaseLocationManager.obj
 0001:00019e70       ?_Change_array@?$vector@V?$Point@H$0CA@@BWAPI@@V?$allocator@V?$Point@H$0CA@@BWAPI@@@std@@@std@@AAEXQAV?$Point@H$0CA@@BWAPI@@II@Z 0041ae70 f i area.obj
 0001:00019e70       ?_Change_array@?$vector@V?$array@H$01@std@@V?$allocator@V?$array@H$01@std@@@2@@std@@AAEXQAV?$array@H$01@2@II@Z 0041ae70 f i MapTools.obj
 0001:00019e70       ?_Change_array@?$vector@V?$Point@H$00@BWAPI@@V?$allocator@V?$Point@H$00@BWAPI@@@std@@@std@@AAEXQAV?$Point@H$00@BWAPI@@II@Z 0041ae70 f i BaseLocation.obj
 0001:00019ed0       ?allocate@?$allocator@V?$Point@H$07@BWAPI@@@std@@QAEPAV?$Point@H$07@BWAPI@@I@Z 0041aed0 f i cp.obj
 0001:00019ed0       ?allocate@?$allocator@VActionType@BOSS@@@std@@QAEPAVActionType@BOSS@@I@Z 0041aed0 f i BOSSManager.obj
 0001:00019ed0       ?allocate@?$allocator@V?$Point@H$00@BWAPI@@@std@@QAEPAV?$Point@H$00@BWAPI@@I@Z 0041aed0 f i BaseLocation.obj
 0001:00019ed0       ?allocate@?$allocator@V?$array@H$01@std@@@std@@QAEPAV?$array@H$01@2@I@Z 0041aed0 f i MapTools.obj
 0001:00019ed0       ?allocate@?$allocator@V?$Point@H$0CA@@BWAPI@@@std@@QAEPAV?$Point@H$0CA@@BWAPI@@I@Z 0041aed0 f i area.obj
 0001:00019ed0       ?allocate@?$allocator@UTile@@@std@@QAEPAUTile@@I@Z 0041aed0 f i BaseLocationManager.obj
 0001:00019f30       ?allocate@?$allocator@PAVUnitInterface@BWAPI@@@std@@QAEPAPAVUnitInterface@BWAPI@@I@Z 0041af30 f i examples.obj
 0001:00019f30       ?allocate@?$allocator@PAVMineral@BWEM@@@std@@QAEPAPAVMineral@BWEM@@I@Z 0041af30 f i area.obj
 0001:00019f30       ?allocate@?$allocator@PBVChokePoint@BWEM@@@std@@QAEPAPBVChokePoint@BWEM@@I@Z 0041af30 f i area.obj
 0001:00019f30       ?allocate@?$allocator@H@std@@QAEPAHI@Z 0041af30 f i area.obj
 0001:00019f30       ?allocate@?$allocator@PBVBaseLocation@UAlbertaBot@@@std@@QAEPAPBVBaseLocation@UAlbertaBot@@I@Z 0041af30 f i BaseLocationManager.obj
 0001:00019f30       ?allocate@?$allocator@I@std@@QAEPAII@Z 0041af30 f i BOSSManager.obj
 0001:00019f90       ?_Insert_node@?$_Tree_val@U?$_Tree_simple_types@U?$pair@QAVPlayerInterface@BWAPI@@_N@std@@@std@@@std@@QAEPAU?$_Tree_node@U?$pair@QAVPlayerInterface@BWAPI@@_N@std@@PAX@2@U?$_Tree_id@PAU?$_Tree_node@U?$pair@QAVPlayerInterface@BWAPI@@_N@std@@PAX@std@@@2@QAU32@@Z 0041af90 f i BaseLocation.obj
 0001:00019f90       ?_Insert_node@?$_Tree_val@U?$_Tree_simple_types@U?$pair@$$CBU?$pair@FF@std@@V?$vector@V?$Point@H$07@BWAPI@@V?$allocator@V?$Point@H$07@BWAPI@@@std@@@2@@std@@@std@@@std@@QAEPAU?$_Tree_node@U?$pair@$$CBU?$pair@FF@std@@V?$vector@V?$Point@H$07@BWAPI@@V?$allocator@V?$Point@H$07@BWAPI@@@std@@@2@@std@@PAX@2@U?$_Tree_id@PAU?$_Tree_node@U?$pair@$$CBU?$pair@FF@std@@V?$vector@V?$Point@H$07@BWAPI@@V?$allocator@V?$Point@H$07@BWAPI@@@std@@@2@@std@@PAX@std@@@2@QAU32@@Z 0041af90 f i graph.obj
 0001:00019f90       ?_Insert_node@?$_Tree_val@U?$_Tree_simple_types@U?$pair@QAVUnitInterface@BWAPI@@VUnitType@2@@std@@@std@@@std@@QAEPAU?$_Tree_node@U?$pair@QAVUnitInterface@BWAPI@@VUnitType@2@@std@@PAX@2@U?$_Tree_id@PAU?$_Tree_node@U?$pair@QAVUnitInterface@BWAPI@@VUnitType@2@@std@@PAX@std@@@2@QAU32@@Z 0041af90 f i WorkerData.obj
 0001:00019f90       ?_Insert_node@?$_Tree_val@U?$_Tree_simple_types@U?$pair@QAVUnitInterface@BWAPI@@UUnitInfo@UAlbertaBot@@@std@@@std@@@std@@QAEPAU?$_Tree_node@U?$pair@QAVUnitInterface@BWAPI@@UUnitInfo@UAlbertaBot@@@std@@PAX@2@U?$_Tree_id@PAU?$_Tree_node@U?$pair@QAVUnitInterface@BWAPI@@UUnitInfo@UAlbertaBot@@@std@@PAX@std@@@2@QAU32@@Z 0041af90 f i UnitData.obj
 0001:00019f90       ?_Insert_node@?$_Tree_val@U?$_Tree_simple_types@U?$pair@$$CBV?$basic_string@DU?$char_traits@D@std@@V?$allocator@D@2@@std@@UUnitRatings@@@std@@@std@@@std@@QAEPAU?$_Tree_node@U?$pair@$$CBV?$basic_string@DU?$char_traits@D@std@@V?$allocator@D@2@@std@@UUnitRatings@@@std@@PAX@2@U?$_Tree_id@PAU?$_Tree_node@U?$pair@$$CBV?$basic_string@DU?$char_traits@D@std@@V?$allocator@D@2@@std@@UUnitRatings@@@std@@PAX@std@@@2@QAU32@@Z 0041af90 f i ProductionManager.obj
 0001:00019f90       ?_Insert_node@?$_Tree_val@U?$_Tree_simple_types@U?$pair@QAVUnitInterface@BWAPI@@H@std@@@std@@@std@@QAEPAU?$_Tree_node@U?$pair@QAVUnitInterface@BWAPI@@H@std@@PAX@2@U?$_Tree_id@PAU?$_Tree_node@U?$pair@QAVUnitInterface@BWAPI@@H@std@@PAX@std@@@2@QAU32@@Z 0041af90 f i CorsairManager.obj
 0001:00019f90       ?_Insert_node@?$_Tree_val@U?$_Tree_simple_types@V?$Point@H$00@BWAPI@@@std@@@std@@QAEPAU?$_Tree_node@V?$Point@H$00@BWAPI@@PAX@2@U?$_Tree_id@PAU?$_Tree_node@V?$Point@H$00@BWAPI@@PAX@std@@@2@QAU32@@Z 0041af90 f i TransportManager.obj
 0001:00019f90       ?_Insert_node@?$_Tree_val@U?$_Tree_simple_types@U?$pair@$$CBU?$pair@FF@std@@H@std@@@std@@@std@@QAEPAU?$_Tree_node@U?$pair@$$CBU?$pair@FF@std@@H@std@@PAX@2@U?$_Tree_id@PAU?$_Tree_node@U?$pair@$$CBU?$pair@FF@std@@H@std@@PAX@std@@@2@QAU32@@Z 0041af90 f i mapImpl.obj
 0001:00019f90       ?_Insert_node@?$_Tree_val@U?$_Tree_simple_types@U?$pair@QAVArea@BWEM@@H@std@@@std@@@std@@QAEPAU?$_Tree_node@U?$pair@QAVArea@BWEM@@H@std@@PAX@2@U?$_Tree_id@PAU?$_Tree_node@U?$pair@QAVArea@BWEM@@H@std@@PAX@std@@@2@QAU32@@Z 0041af90 f i graph.obj
 0001:00019f90       ?_Insert_node@?$_Tree_val@U?$_Tree_simple_types@U?$pair@QAVUnitInterface@BWAPI@@_N@std@@@std@@@std@@QAEPAU?$_Tree_node@U?$pair@QAVUnitInterface@BWAPI@@_N@std@@PAX@2@U?$_Tree_id@PAU?$_Tree_node@U?$pair@QAVUnitInterface@BWAPI@@_N@std@@PAX@std@@@2@QAU32@@Z 0041af90 f i DetectorManager.obj
 0001:00019f90       ?_Insert_node@?$_Tree_val@U?$_Tree_simple_types@VUnitType@BWAPI@@@std@@@std@@QAEPAU?$_Tree_node@VUnitType@BWAPI@@PAX@2@U?$_Tree_id@PAU?$_Tree_node@VUnitType@BWAPI@@PAX@std@@@2@QAU32@@Z 0041af90 f i ParseUtils.obj
 0001:00019f90       ?_Insert_node@?$_Tree_val@U?$_Tree_simple_types@U?$pair@QAVPlayerInterface@BWAPI@@PBVBaseLocation@UAlbertaBot@@@std@@@std@@@std@@QAEPAU?$_Tree_node@U?$pair@QAVPlayerInterface@BWAPI@@PBVBaseLocation@UAlbertaBot@@@std@@PAX@2@U?$_Tree_id@PAU?$_Tree_node@U?$pair@QAVPlayerInterface@BWAPI@@PBVBaseLocation@UAlbertaBot@@@std@@PAX@std@@@2@QAU32@@Z 0041af90 f i BaseLocationManager.obj
 0001:00019f90       ?_Insert_node@?$_Tree_val@U?$_Tree_simple_types@U?$pair@QAVUnitInterface@BWAPI@@W4WorkerJob@WorkerData@UAlbertaBot@@@std@@@std@@@std@@QAEPAU?$_Tree_node@U?$pair@QAVUnitInterface@BWAPI@@W4WorkerJob@WorkerData@UAlbertaBot@@@std@@PAX@2@U?$_Tree_id@PAU?$_Tree_node@U?$pair@QAVUnitInterface@BWAPI@@W4WorkerJob@WorkerData@UAlbertaBot@@@std@@PAX@std@@@2@QAU32@@Z 0041af90 f i WorkerData.obj
 0001:00019f90       ?_Insert_node@?$_Tree_val@U?$_Tree_simple_types@U?$pair@QAVUnitInterface@BWAPI@@PAV12@@std@@@std@@@std@@QAEPAU?$_Tree_node@U?$pair@QAVUnitInterface@BWAPI@@PAV12@@std@@PAX@2@U?$_Tree_id@PAU?$_Tree_node@U?$pair@QAVUnitInterface@BWAPI@@PAV12@@std@@PAX@std@@@2@QAU32@@Z 0041af90 f i WorkerData.obj
 0001:00019f90       ?_Insert_node@?$_Tree_val@U?$_Tree_simple_types@U?$pair@$$CBU?$pair@HH@std@@VDistanceMap@UAlbertaBot@@@std@@@std@@@std@@QAEPAU?$_Tree_node@U?$pair@$$CBU?$pair@HH@std@@VDistanceMap@UAlbertaBot@@@std@@PAX@2@U?$_Tree_id@PAU?$_Tree_node@U?$pair@$$CBU?$pair@HH@std@@VDistanceMap@UAlbertaBot@@@std@@PAX@std@@@2@QAU32@@Z 0041af90 f i MapTools.obj
 0001:00019f90       ?_Insert_node@?$_Tree_val@U?$_Tree_simple_types@U?$pair@$$CBV?$basic_string@DU?$char_traits@D@std@@V?$allocator@D@2@@std@@UStrategy@UAlbertaBot@@@std@@@std@@@std@@QAEPAU?$_Tree_node@U?$pair@$$CBV?$basic_string@DU?$char_traits@D@std@@V?$allocator@D@2@@std@@UStrategy@UAlbertaBot@@@std@@PAX@2@U?$_Tree_id@PAU?$_Tree_node@U?$pair@$$CBV?$basic_string@DU?$char_traits@D@std@@V?$allocator@D@2@@std@@UStrategy@UAlbertaBot@@@std@@PAX@std@@@2@QAU32@@Z 0041af90 f i StrategyManager.obj
 0001:00019f90       ?_Insert_node@?$_Tree_val@U?$_Tree_simple_types@U?$pair@$$CBV?$basic_string@DU?$char_traits@D@std@@V?$allocator@D@2@@std@@VActionType@BOSS@@@std@@@std@@@std@@QAEPAU?$_Tree_node@U?$pair@$$CBV?$basic_string@DU?$char_traits@D@std@@V?$allocator@D@2@@std@@VActionType@BOSS@@@std@@PAX@2@U?$_Tree_id@PAU?$_Tree_node@U?$pair@$$CBV?$basic_string@DU?$char_traits@D@std@@V?$allocator@D@2@@std@@VActionType@BOSS@@@std@@PAX@std@@@2@QAU32@@Z 0041af90 f i BOSS:ActionType.obj
 0001:00019f90       ?_Insert_node@?$_Tree_val@U?$_Tree_simple_types@U?$pair@$$CBHV?$Point@H$0CA@@BWAPI@@@std@@@std@@@std@@QAEPAU?$_Tree_node@U?$pair@$$CBHV?$Point@H$0CA@@BWAPI@@@std@@PAX@2@U?$_Tree_id@PAU?$_Tree_node@U?$pair@$$CBHV?$Point@H$0CA@@BWAPI@@@std@@PAX@std@@@2@QAU32@@Z 0041af90 f i area.obj
 0001:00019f90       ?_Insert_node@?$_Tree_val@U?$_Tree_simple_types@U?$pair@QAVUnitInterface@BWAPI@@VWorkerMoveData@UAlbertaBot@@@std@@@std@@@std@@QAEPAU?$_Tree_node@U?$pair@QAVUnitInterface@BWAPI@@VWorkerMoveData@UAlbertaBot@@@std@@PAX@2@U?$_Tree_id@PAU?$_Tree_node@U?$pair@QAVUnitInterface@BWAPI@@VWorkerMoveData@UAlbertaBot@@@std@@PAX@std@@@2@QAU32@@Z 0041af90 f i WorkerData.obj
 0001:00019f90       ?_Insert_node@?$_Tree_val@U?$_Tree_simple_types@U?$pair@QAVPlayerInterface@BWAPI@@VUnitData@UAlbertaBot@@@std@@@std@@@std@@QAEPAU?$_Tree_node@U?$pair@QAVPlayerInterface@BWAPI@@VUnitData@UAlbertaBot@@@std@@PAX@2@U?$_Tree_id@PAU?$_Tree_node@U?$pair@QAVPlayerInterface@BWAPI@@VUnitData@UAlbertaBot@@@std@@PAX@std@@@2@QAU32@@Z 0041af90 f i InformationManager.obj
 0001:00019f90       ?_Insert_node@?$_Tree_val@U?$_Tree_simple_types@U?$pair@$$CBV?$basic_string@DU?$char_traits@D@std@@V?$allocator@D@2@@std@@VSquad@UAlbertaBot@@@std@@@std@@@std@@QAEPAU?$_Tree_node@U?$pair@$$CBV?$basic_string@DU?$char_traits@D@std@@V?$allocator@D@2@@std@@VSquad@UAlbertaBot@@@std@@PAX@2@U?$_Tree_id@PAU?$_Tree_node@U?$pair@$$CBV?$basic_string@DU?$char_traits@D@std@@V?$allocator@D@2@@std@@VSquad@UAlbertaBot@@@std@@PAX@std@@@2@QAU32@@Z 0041af90 f i SquadData.obj
 0001:00019f90       ?_Insert_node@?$_Tree_val@U?$_Tree_simple_types@PBVBaseLocation@UAlbertaBot@@@std@@@std@@QAEPAU?$_Tree_node@PBVBaseLocation@UAlbertaBot@@PAX@2@U?$_Tree_id@PAU?$_Tree_node@PBVBaseLocation@UAlbertaBot@@PAX@std@@@2@QAU32@@Z 0041af90 f i BaseLocationManager.obj
 0001:00019f90       ?_Insert_node@?$_Tree_val@U?$_Tree_simple_types@U?$pair@$$CBHPBVChokePoint@BWEM@@@std@@@std@@@std@@QAEPAU?$_Tree_node@U?$pair@$$CBHPBVChokePoint@BWEM@@@std@@PAX@2@U?$_Tree_id@PAU?$_Tree_node@U?$pair@$$CBHPBVChokePoint@BWEM@@@std@@PAX@std@@@2@QAU32@@Z 0041af90 f i graph.obj
 0001:00019f90       ?_Insert_node@?$_Tree_val@U?$_Tree_simple_types@U?$pair@QBVArea@BWEM@@PBV?$vector@VChokePoint@BWEM@@V?$allocator@VChokePoint@BWEM@@@std@@@std@@@std@@@std@@@std@@QAEPAU?$_Tree_node@U?$pair@QBVArea@BWEM@@PBV?$vector@VChokePoint@BWEM@@V?$allocator@VChokePoint@BWEM@@@std@@@std@@@std@@PAX@2@U?$_Tree_id@PAU?$_Tree_node@U?$pair@QBVArea@BWEM@@PBV?$vector@VChokePoint@BWEM@@V?$allocator@VChokePoint@BWEM@@@std@@@std@@@std@@PAX@std@@@2@QAU32@@Z 0041af90 f i area.obj
 0001:00019f90       ?_Insert_node@?$_Tree_val@U?$_Tree_simple_types@U?$pair@QAVPlayerInterface@BWAPI@@V?$set@PBVBaseLocation@UAlbertaBot@@U?$less@PBVBaseLocation@UAlbertaBot@@@std@@V?$allocator@PBVBaseLocation@UAlbertaBot@@@4@@std@@@std@@@std@@@std@@QAEPAU?$_Tree_node@U?$pair@QAVPlayerInterface@BWAPI@@V?$set@PBVBaseLocation@UAlbertaBot@@U?$less@PBVBaseLocation@UAlbertaBot@@@std@@V?$allocator@PBVBaseLocation@UAlbertaBot@@@4@@std@@@std@@PAX@2@U?$_Tree_id@PAU?$_Tree_node@U?$pair@QAVPlayerInterface@BWAPI@@V?$set@PBVBaseLocation@UAlbertaBot@@U?$less@PBVBaseLocation@UAlbertaBot@@@std@@V?$allocator@PBVBaseLocation@UAlbertaBot@@@4@@std@@@std@@PAX@std@@@2@QAU32@@Z 0041af90 f i BaseLocationManager.obj
 0001:0001a1a0       ??1?$_Alloc_construct_ptr@V?$allocator@U?$_Tree_node@U?$pair@QAVUnitInterface@BWAPI@@VUnitType@2@@std@@PAX@std@@@std@@@std@@QAE@XZ 0041b1a0 f i WorkerData.obj
 0001:0001a1a0       ??1?$_Alloc_construct_ptr@V?$allocator@U?$_Tree_node@U?$pair@$$CBVUnitType@BWAPI@@I@std@@PAX@std@@@std@@@std@@QAE@XZ 0041b1a0 f i SparCraft:GameState.obj
 0001:0001a1a0       ??1?$_Alloc_construct_ptr@V?$allocator@U?$_Tree_node@U?$pair@QAVUnitInterface@BWAPI@@PAV12@@std@@PAX@std@@@std@@@std@@QAE@XZ 0041b1a0 f i WorkerData.obj
 0001:0001a1a0       ??1?$_Alloc_construct_ptr@V?$allocator@U?$_Tree_node@U?$pair@QAVUnitInterface@BWAPI@@_N@std@@PAX@std@@@std@@@std@@QAE@XZ 0041b1a0 f i DetectorManager.obj
 0001:0001a1a0       ??1?$_Alloc_construct_ptr@V?$allocator@U?$_Tree_node@U?$pair@QAVUnitInterface@BWAPI@@H@std@@PAX@std@@@std@@@std@@QAE@XZ 0041b1a0 f i CorsairManager.obj
 0001:0001a1a0       ??1?$_Alloc_construct_ptr@V?$allocator@U?$_Tree_node@U?$pair@QAVPlayerInterface@BWAPI@@_N@std@@PAX@std@@@std@@@std@@QAE@XZ 0041b1a0 f i BaseLocation.obj
 0001:0001a1a0       ??1?$_Alloc_construct_ptr@V?$allocator@U?$_Tree_node@U?$pair@QBVArea@BWEM@@PBV?$vector@VChokePoint@BWEM@@V?$allocator@VChokePoint@BWEM@@@std@@@std@@@std@@PAX@std@@@std@@@std@@QAE@XZ 0041b1a0 f i area.obj
 0001:0001a1a0       ??1?$_Alloc_construct_ptr@V?$allocator@U?$_Tree_node@U?$pair@QAVArea@BWEM@@H@std@@PAX@std@@@std@@@std@@QAE@XZ 0041b1a0 f i graph.obj
 0001:0001a1a0       ??1?$_Alloc_construct_ptr@V?$allocator@U?$_Tree_node@U?$pair@$$CBHPAX@std@@PAX@std@@@std@@@std@@QAE@XZ 0041b1a0 f i BWAPILIB:Unitset.obj
 0001:0001a1a0       ??1?$_Alloc_construct_ptr@V?$allocator@U?$_Tree_node@V?$Point@H$00@BWAPI@@PAX@std@@@std@@@std@@QAE@XZ 0041b1a0 f i TransportManager.obj
 0001:0001a1a0       ??1?$_Alloc_construct_ptr@V?$allocator@U?$_Tree_node@U?$pair@$$CBVUnitType@BWAPI@@H@std@@PAX@std@@@std@@@std@@QAE@XZ 0041b1a0 f i BWAPILIB:UnitType.obj
 0001:0001a1a0       ??1?$_Alloc_construct_ptr@V?$allocator@U?$_Tree_node@U?$pair@$$CBHPBVChokePoint@BWEM@@@std@@PAX@std@@@std@@@std@@QAE@XZ 0041b1a0 f i graph.obj
 0001:0001a1a0       ??1?$_Tree_temp_node@V?$allocator@U?$_Tree_node@U?$pair@$$CBHPBVChokePoint@BWEM@@@std@@PAX@std@@@std@@@std@@QAE@XZ 0041b1a0 f i graph.obj
 0001:0001a1a0       ??1?$_Alloc_construct_ptr@V?$allocator@U?$_Tree_node@U?$pair@$$CBU?$pair@FF@std@@H@std@@PAX@std@@@std@@@std@@QAE@XZ 0041b1a0 f i mapImpl.obj
 0001:0001a1a0       ??1?$_Alloc_construct_ptr@V?$allocator@U?$_Tree_node@U?$pair@QAVPlayerInterface@BWAPI@@PBVBaseLocation@UAlbertaBot@@@std@@PAX@std@@@std@@@std@@QAE@XZ 0041b1a0 f i BaseLocationManager.obj
 0001:0001a1a0       ??1?$_Alloc_construct_ptr@V?$allocator@U?$_Tree_node@U?$pair@QAVUnitInterface@BWAPI@@W4WorkerJob@WorkerData@UAlbertaBot@@@std@@PAX@std@@@std@@@std@@QAE@XZ 0041b1a0 f i WorkerData.obj
 0001:0001a1c0       ?_Tidy@?$deque@V?$Point@H$07@BWAPI@@V?$allocator@V?$Point@H$07@BWAPI@@@std@@@std@@AAEXXZ 0041b1c0 f i cp.obj
 0001:0001a1c0       ?_Tidy@?$deque@VUnitType@BWAPI@@V?$allocator@VUnitType@BWAPI@@@std@@@std@@AAEXXZ 0041b1c0 f i ProductionManager.obj
 0001:0001a1c0       ?_Tidy@?$deque@V?$Point@H$00@BWAPI@@V?$allocator@V?$Point@H$00@BWAPI@@@std@@@std@@AAEXXZ 0041b1c0 f i BWAPIClient:GameImpl.obj
 0001:0001a1c0       ?_Tidy@?$deque@V?$Point@H$0CA@@BWAPI@@V?$allocator@V?$Point@H$0CA@@BWAPI@@@std@@@std@@AAEXXZ 0041b1c0 f i area.obj
 0001:0001a250       ?_Extract@?$_Tree_val@U?$_Tree_simple_types@U?$pair@QAVUnitInterface@BWAPI@@UUnitInfo@UAlbertaBot@@@std@@@std@@@std@@QAEPAU?$_Tree_node@U?$pair@QAVUnitInterface@BWAPI@@UUnitInfo@UAlbertaBot@@@std@@PAX@2@V?$_Tree_unchecked_const_iterator@V?$_Tree_val@U?$_Tree_simple_types@U?$pair@QAVUnitInterface@BWAPI@@UUnitInfo@UAlbertaBot@@@std@@@std@@@std@@U_Iterator_base0@2@@2@@Z 0041b250 f i UnitData.obj
 0001:0001a250       ?_Extract@?$_Tree_val@U?$_Tree_simple_types@U?$pair@QAVUnitInterface@BWAPI@@H@std@@@std@@@std@@QAEPAU?$_Tree_node@U?$pair@QAVUnitInterface@BWAPI@@H@std@@PAX@2@V?$_Tree_unchecked_const_iterator@V?$_Tree_val@U?$_Tree_simple_types@U?$pair@QAVUnitInterface@BWAPI@@H@std@@@std@@@std@@U_Iterator_base0@2@@2@@Z 0041b250 f i WorkerData.obj
 0001:0001a250       ?_Extract@?$_Tree_val@U?$_Tree_simple_types@U?$pair@QAVUnitInterface@BWAPI@@VWorkerMoveData@UAlbertaBot@@@std@@@std@@@std@@QAEPAU?$_Tree_node@U?$pair@QAVUnitInterface@BWAPI@@VWorkerMoveData@UAlbertaBot@@@std@@PAX@2@V?$_Tree_unchecked_const_iterator@V?$_Tree_val@U?$_Tree_simple_types@U?$pair@QAVUnitInterface@BWAPI@@VWorkerMoveData@UAlbertaBot@@@std@@@std@@@std@@U_Iterator_base0@2@@2@@Z 0041b250 f i WorkerData.obj
 0001:0001a250       ?_Extract@?$_Tree_val@U?$_Tree_simple_types@U?$pair@$$CBHPBVChokePoint@BWEM@@@std@@@std@@@std@@QAEPAU?$_Tree_node@U?$pair@$$CBHPBVChokePoint@BWEM@@@std@@PAX@2@V?$_Tree_unchecked_const_iterator@V?$_Tree_val@U?$_Tree_simple_types@U?$pair@$$CBHPBVChokePoint@BWEM@@@std@@@std@@@std@@U_Iterator_base0@2@@2@@Z 0041b250 f i graph.obj
 0001:0001a250       ?_Extract@?$_Tree_val@U?$_Tree_simple_types@U?$pair@QAVUnitInterface@BWAPI@@VUnitType@2@@std@@@std@@@std@@QAEPAU?$_Tree_node@U?$pair@QAVUnitInterface@BWAPI@@VUnitType@2@@std@@PAX@2@V?$_Tree_unchecked_const_iterator@V?$_Tree_val@U?$_Tree_simple_types@U?$pair@QAVUnitInterface@BWAPI@@VUnitType@2@@std@@@std@@@std@@U_Iterator_base0@2@@2@@Z 0041b250 f i WorkerData.obj
 0001:0001a250       ?_Extract@?$_Tree_val@U?$_Tree_simple_types@U?$pair@QAVUnitInterface@BWAPI@@PAV12@@std@@@std@@@std@@QAEPAU?$_Tree_node@U?$pair@QAVUnitInterface@BWAPI@@PAV12@@std@@PAX@2@V?$_Tree_unchecked_const_iterator@V?$_Tree_val@U?$_Tree_simple_types@U?$pair@QAVUnitInterface@BWAPI@@PAV12@@std@@@std@@@std@@U_Iterator_base0@2@@2@@Z 0041b250 f i WorkerData.obj
 0001:0001a250       ?_Extract@?$_Tree_val@U?$_Tree_simple_types@V?$Point@H$00@BWAPI@@@std@@@std@@QAEPAU?$_Tree_node@V?$Point@H$00@BWAPI@@PAX@2@V?$_Tree_unchecked_const_iterator@V?$_Tree_val@U?$_Tree_simple_types@V?$Point@H$00@BWAPI@@@std@@@std@@U_Iterator_base0@2@@2@@Z 0041b250 f i TransportManager.obj
 0001:0001a250       ?_Extract@?$_Tree_val@U?$_Tree_simple_types@U?$pair@$$CBHV?$Point@H$0CA@@BWAPI@@@std@@@std@@@std@@QAEPAU?$_Tree_node@U?$pair@$$CBHV?$Point@H$0CA@@BWAPI@@@std@@PAX@2@V?$_Tree_unchecked_const_iterator@V?$_Tree_val@U?$_Tree_simple_types@U?$pair@$$CBHV?$Point@H$0CA@@BWAPI@@@std@@@std@@@std@@U_Iterator_base0@2@@2@@Z 0041b250 f i area.obj
 0001:0001a250       ?_Extract@?$_Tree_val@U?$_Tree_simple_types@U?$pair@QAVUnitInterface@BWAPI@@W4WorkerJob@WorkerData@UAlbertaBot@@@std@@@std@@@std@@QAEPAU?$_Tree_node@U?$pair@QAVUnitInterface@BWAPI@@W4WorkerJob@WorkerData@UAlbertaBot@@@std@@PAX@2@V?$_Tree_unchecked_const_iterator@V?$_Tree_val@U?$_Tree_simple_types@U?$pair@QAVUnitInterface@BWAPI@@W4WorkerJob@WorkerData@UAlbertaBot@@@std@@@std@@@std@@U_Iterator_base0@2@@2@@Z 0041b250 f i WorkerData.obj
 0001:0001a670       ??$_Erase_tree@V?$allocator@U?$_Tree_node@U?$pair@$$CBHV?$Point@H$0CA@@BWAPI@@@std@@PAX@std@@@std@@@?$_Tree_val@U?$_Tree_simple_types@U?$pair@$$CBHV?$Point@H$0CA@@BWAPI@@@std@@@std@@@std@@QAEXAAV?$allocator@U?$_Tree_node@U?$pair@$$CBHV?$Point@H$0CA@@BWAPI@@@std@@PAX@std@@@1@PAU?$_Tree_node@U?$pair@$$CBHV?$Point@H$0CA@@BWAPI@@@std@@PAX@1@@Z 0041b670 f i area.obj
 0001:0001a6b0       ??$_Erase_tree@V?$allocator@U?$_Tree_node@U?$pair@QAVUnitInterface@BWAPI@@VUnitType@2@@std@@PAX@std@@@std@@@?$_Tree_val@U?$_Tree_simple_types@U?$pair@QAVUnitInterface@BWAPI@@VUnitType@2@@std@@@std@@@std@@QAEXAAV?$allocator@U?$_Tree_node@U?$pair@QAVUnitInterface@BWAPI@@VUnitType@2@@std@@PAX@std@@@1@PAU?$_Tree_node@U?$pair@QAVUnitInterface@BWAPI@@VUnitType@2@@std@@PAX@1@@Z 0041b6b0 f i Global.obj
 0001:0001a6b0       ??$_Erase_tree_and_orphan@V?$allocator@U?$_Tree_node@U?$pair@QAVPlayerInterface@BWAPI@@_N@std@@PAX@std@@@std@@@?$_Tree_val@U?$_Tree_simple_types@U?$pair@QAVPlayerInterface@BWAPI@@_N@std@@@std@@@std@@QAEXAAV?$allocator@U?$_Tree_node@U?$pair@QAVPlayerInterface@BWAPI@@_N@std@@PAX@std@@@1@PAU?$_Tree_node@U?$pair@QAVPlayerInterface@BWAPI@@_N@std@@PAX@1@@Z 0041b6b0 f i BaseLocationManager.obj
 0001:0001a6b0       ??$_Erase_tree@V?$allocator@U?$_Tree_node@U?$pair@QAVUnitInterface@BWAPI@@PAV12@@std@@PAX@std@@@std@@@?$_Tree_val@U?$_Tree_simple_types@U?$pair@QAVUnitInterface@BWAPI@@PAV12@@std@@@std@@@std@@QAEXAAV?$allocator@U?$_Tree_node@U?$pair@QAVUnitInterface@BWAPI@@PAV12@@std@@PAX@std@@@1@PAU?$_Tree_node@U?$pair@QAVUnitInterface@BWAPI@@PAV12@@std@@PAX@1@@Z 0041b6b0 f i Global.obj
 0001:0001a6b0       ??$_Erase_tree@V?$allocator@U?$_Tree_node@U?$pair@QAVUnitInterface@BWAPI@@_N@std@@PAX@std@@@std@@@?$_Tree_val@U?$_Tree_simple_types@U?$pair@QAVUnitInterface@BWAPI@@_N@std@@@std@@@std@@QAEXAAV?$allocator@U?$_Tree_node@U?$pair@QAVUnitInterface@BWAPI@@_N@std@@PAX@std@@@1@PAU?$_Tree_node@U?$pair@QAVUnitInterface@BWAPI@@_N@std@@PAX@1@@Z 0041b6b0 f i DetectorManager.obj
 0001:0001a6b0       ??$_Erase_tree@V?$allocator@U?$_Tree_node@U?$pair@QAVUnitInterface@BWAPI@@W4WorkerJob@WorkerData@UAlbertaBot@@@std@@PAX@std@@@std@@@?$_Tree_val@U?$_Tree_simple_types@U?$pair@QAVUnitInterface@BWAPI@@W4WorkerJob@WorkerData@UAlbertaBot@@@std@@@std@@@std@@QAEXAAV?$allocator@U?$_Tree_node@U?$pair@QAVUnitInterface@BWAPI@@W4WorkerJob@WorkerData@UAlbertaBot@@@std@@PAX@std@@@1@PAU?$_Tree_node@U?$pair@QAVUnitInterface@BWAPI@@W4WorkerJob@WorkerData@UAlbertaBot@@@std@@PAX@1@@Z 0041b6b0 f i Global.obj
 0001:0001a6b0       ??$_Erase_tree@V?$allocator@U?$_Tree_node@U?$pair@QAVPlayerInterface@BWAPI@@_N@std@@PAX@std@@@std@@@?$_Tree_val@U?$_Tree_simple_types@U?$pair@QAVPlayerInterface@BWAPI@@_N@std@@@std@@@std@@QAEXAAV?$allocator@U?$_Tree_node@U?$pair@QAVPlayerInterface@BWAPI@@_N@std@@PAX@std@@@1@PAU?$_Tree_node@U?$pair@QAVPlayerInterface@BWAPI@@_N@std@@PAX@1@@Z 0041b6b0 f i BaseLocation.obj
 0001:0001a6b0       ??$_Erase_tree@V?$allocator@U?$_Tree_node@U?$pair@$$CBHPBVChokePoint@BWEM@@@std@@PAX@std@@@std@@@?$_Tree_val@U?$_Tree_simple_types@U?$pair@$$CBHPBVChokePoint@BWEM@@@std@@@std@@@std@@QAEXAAV?$allocator@U?$_Tree_node@U?$pair@$$CBHPBVChokePoint@BWEM@@@std@@PAX@std@@@1@PAU?$_Tree_node@U?$pair@$$CBHPBVChokePoint@BWEM@@@std@@PAX@1@@Z 0041b6b0 f i graph.obj
 0001:0001a6b0       ??$_Erase_tree@V?$allocator@U?$_Tree_node@U?$pair@QAVArea@BWEM@@H@std@@PAX@std@@@std@@@?$_Tree_val@U?$_Tree_simple_types@U?$pair@QAVArea@BWEM@@H@std@@@std@@@std@@QAEXAAV?$allocator@U?$_Tree_node@U?$pair@QAVArea@BWEM@@H@std@@PAX@std@@@1@PAU?$_Tree_node@U?$pair@QAVArea@BWEM@@H@std@@PAX@1@@Z 0041b6b0 f i graph.obj
 0001:0001a6b0       ??$_Erase_tree@V?$allocator@U?$_Tree_node@U?$pair@QAVUnitInterface@BWAPI@@H@std@@PAX@std@@@std@@@?$_Tree_val@U?$_Tree_simple_types@U?$pair@QAVUnitInterface@BWAPI@@H@std@@@std@@@std@@QAEXAAV?$allocator@U?$_Tree_node@U?$pair@QAVUnitInterface@BWAPI@@H@std@@PAX@std@@@1@PAU?$_Tree_node@U?$pair@QAVUnitInterface@BWAPI@@H@std@@PAX@1@@Z 0041b6b0 f i CorsairManager.obj
 0001:0001a6b0       ??$_Erase_tree@V?$allocator@U?$_Tree_node@V?$Point@H$00@BWAPI@@PAX@std@@@std@@@?$_Tree_val@U?$_Tree_simple_types@V?$Point@H$00@BWAPI@@@std@@@std@@QAEXAAV?$allocator@U?$_Tree_node@V?$Point@H$00@BWAPI@@PAX@std@@@1@PAU?$_Tree_node@V?$Point@H$00@BWAPI@@PAX@1@@Z 0041b6b0 f i TransportManager.obj
 0001:0001a6b0       ??$_Erase_tree@V?$allocator@U?$_Tree_node@U?$pair@QAVPlayerInterface@BWAPI@@PBVBaseLocation@UAlbertaBot@@@std@@PAX@std@@@std@@@?$_Tree_val@U?$_Tree_simple_types@U?$pair@QAVPlayerInterface@BWAPI@@PBVBaseLocation@UAlbertaBot@@@std@@@std@@@std@@QAEXAAV?$allocator@U?$_Tree_node@U?$pair@QAVPlayerInterface@BWAPI@@PBVBaseLocation@UAlbertaBot@@@std@@PAX@std@@@1@PAU?$_Tree_node@U?$pair@QAVPlayerInterface@BWAPI@@PBVBaseLocation@UAlbertaBot@@@std@@PAX@1@@Z 0041b6b0 f i BaseLocationManager.obj
 0001:0001a6b0       ??$_Erase_tree@V?$allocator@U?$_Tree_node@U?$pair@$$CBU?$pair@FF@std@@H@std@@PAX@std@@@std@@@?$_Tree_val@U?$_Tree_simple_types@U?$pair@$$CBU?$pair@FF@std@@H@std@@@std@@@std@@QAEXAAV?$allocator@U?$_Tree_node@U?$pair@$$CBU?$pair@FF@std@@H@std@@PAX@std@@@1@PAU?$_Tree_node@U?$pair@$$CBU?$pair@FF@std@@H@std@@PAX@1@@Z 0041b6b0 f i mapImpl.obj
 0001:0001a6b0       ??$_Erase_tree@V?$allocator@U?$_Tree_node@U?$pair@QBVArea@BWEM@@PBV?$vector@VChokePoint@BWEM@@V?$allocator@VChokePoint@BWEM@@@std@@@std@@@std@@PAX@std@@@std@@@?$_Tree_val@U?$_Tree_simple_types@U?$pair@QBVArea@BWEM@@PBV?$vector@VChokePoint@BWEM@@V?$allocator@VChokePoint@BWEM@@@std@@@std@@@std@@@std@@@std@@QAEXAAV?$allocator@U?$_Tree_node@U?$pair@QBVArea@BWEM@@PBV?$vector@VChokePoint@BWEM@@V?$allocator@VChokePoint@BWEM@@@std@@@std@@@std@@PAX@std@@@1@PAU?$_Tree_node@U?$pair@QBVArea@BWEM@@PBV?$vector@VChokePoint@BWEM@@V?$allocator@VChokePoint@BWEM@@@std@@@std@@@std@@PAX@1@@Z 0041b6b0 f i area.obj
 0001:0001a6b0       ??$_Erase_tree_and_orphan@V?$allocator@U?$_Tree_node@U?$pair@QAVUnitInterface@BWAPI@@_N@std@@PAX@std@@@std@@@?$_Tree_val@U?$_Tree_simple_types@U?$pair@QAVUnitInterface@BWAPI@@_N@std@@@std@@@std@@QAEXAAV?$allocator@U?$_Tree_node@U?$pair@QAVUnitInterface@BWAPI@@_N@std@@PAX@std@@@1@PAU?$_Tree_node@U?$pair@QAVUnitInterface@BWAPI@@_N@std@@PAX@1@@Z 0041b6b0 f i SquadData.obj
 0001:0001a6f0       ?_Growmap@?$deque@V?$Point@H$07@BWAPI@@V?$allocator@V?$Point@H$07@BWAPI@@@std@@@std@@AAEXI@Z 0041b6f0 f i cp.obj
 0001:0001a6f0       ?_Growmap@?$deque@V?$Point@H$0CA@@BWAPI@@V?$allocator@V?$Point@H$0CA@@BWAPI@@@std@@@std@@AAEXI@Z 0041b6f0 f i area.obj
 0001:0001a8a0       ?_Xlen@?$deque@V?$Point@H$0CA@@BWAPI@@V?$allocator@V?$Point@H$0CA@@BWAPI@@@std@@@std@@ABEXXZ 0041b8a0 f i area.obj
 0001:0001a8a0       ?_Xlen@?$deque@VUnitType@BWAPI@@V?$allocator@VUnitType@BWAPI@@@std@@@std@@ABEXXZ 0041b8a0 f i BWAPIClient:UnitShared.obj
 0001:0001a8a0       ?_Xlen@?$deque@V?$Point@H$00@BWAPI@@V?$allocator@V?$Point@H$00@BWAPI@@@std@@@std@@ABEXXZ 0041b8a0 f i BWAPIClient:GameImpl.obj
 0001:0001a8a0       ?_Xlen@?$deque@V?$Point@H$07@BWAPI@@V?$allocator@V?$Point@H$07@BWAPI@@@std@@@std@@ABEXXZ 0041b8a0 f i cp.obj
 0001:0001a8a0       ?_Xlen@?$deque@UBuildOrderItem@UAlbertaBot@@V?$allocator@UBuildOrderItem@UAlbertaBot@@@std@@@std@@ABEXXZ 0041b8a0 f i BuildOrderQueue.obj
 0001:0001a8b0       ??1?$_Tree_temp_node_alloc@V?$allocator@U?$_Tree_node@U?$pair@QAVPlayerInterface@BWAPI@@V?$set@PBVBaseLocation@UAlbertaBot@@U?$less@PBVBaseLocation@UAlbertaBot@@@std@@V?$allocator@PBVBaseLocation@UAlbertaBot@@@4@@std@@@std@@PAX@std@@@std@@@std@@QAE@XZ 0041b8b0 f i BaseLocationManager.obj
 0001:0001a8b0       ??1?$_Alloc_construct_ptr@V?$allocator@U?$_Tree_node@U?$pair@QAVPlayerInterface@BWAPI@@V?$set@PBVBaseLocation@UAlbertaBot@@U?$less@PBVBaseLocation@UAlbertaBot@@@std@@V?$allocator@PBVBaseLocation@UAlbertaBot@@@4@@std@@@std@@PAX@std@@@std@@@std@@QAE@XZ 0041b8b0 f i BaseLocationManager.obj
 0001:0001a8b0       ??1?$_Alloc_construct_ptr@V?$allocator@U?$_Tree_node@U?$pair@$$CBHV?$Point@H$0CA@@BWAPI@@@std@@PAX@std@@@std@@@std@@QAE@XZ 0041b8b0 f i area.obj
 0001:0001a8b0       ??1?$_Tree_temp_node@V?$allocator@U?$_Tree_node@U?$pair@$$CBHV?$Point@H$0CA@@BWAPI@@@std@@PAX@std@@@std@@@std@@QAE@XZ 0041b8b0 f i area.obj
 0001:0001a8d0       ??$_Find_upper_bound@H@?$_Tree@V?$_Tmap_traits@HV?$Point@H$0CA@@BWAPI@@U?$less@H@std@@V?$allocator@U?$pair@$$CBHV?$Point@H$0CA@@BWAPI@@@std@@@4@$00@std@@@std@@IBE?AU?$_Tree_find_result@PAU?$_Tree_node@U?$pair@$$CBHV?$Point@H$0CA@@BWAPI@@@std@@PAX@std@@@1@ABH@Z 0041b8d0 f i area.obj
 0001:0001a920       ??0Base@BWEM@@QAE@PAVArea@1@ABV?$Point@H$0CA@@BWAPI@@ABV?$vector@PAVRessource@BWEM@@V?$allocator@PAVRessource@BWEM@@@std@@@std@@ABV?$vector@PAVMineral@BWEM@@V?$allocator@PAVMineral@BWEM@@@std@@@6@@Z 0041b920 f   base.obj
 0001:0001aaf0       ??0Base@BWEM@@QAE@ABV01@@Z 0041baf0 f   base.obj
 0001:0001ab80       ?_Xlen_string@std@@YAXXZ   0041bb80 f i bwem.obj
 0001:0001ab90       ??0runtime_error@std@@QAE@ABV01@@Z 0041bb90 f i bwem.obj
 0001:0001abd0       ?to_string@std@@YA?AV?$basic_string@DU?$char_traits@D@std@@V?$allocator@D@2@@1@H@Z 0041bbd0 f i bwem.obj
 0001:0001ac80       ??0Exception@BWEM@@QAE@ABV?$basic_string@DU?$char_traits@D@std@@V?$allocator@D@2@@std@@@Z 0041bc80 f i bwem.obj
 0001:0001acd0       ?onAssertThrowFailed@detail@BWEM@@YAXABV?$basic_string@DU?$char_traits@D@std@@V?$allocator@D@2@@std@@H00@Z 0041bcd0 f   bwem.obj
 0001:0001ad80       ??0Exception@BWEM@@QAE@ABV01@@Z 0041bd80 f i bwem.obj
 0001:0001adc0       ?c_str@?$basic_string@DU?$char_traits@D@std@@V?$allocator@D@2@@std@@QBEPBDXZ 0041bdc0 f i bwem.obj
 0001:0001add0       ??1?$basic_string@DU?$char_traits@D@std@@V?$allocator@D@2@@std@@QAE@XZ 0041bdd0 f i bwem.obj
 0001:0001ae20       ?assign@?$basic_string@DU?$char_traits@D@std@@V?$allocator@D@2@@std@@QAEAAV12@QBDI@Z 0041be20 f i bwem.obj
 0001:0001af10       ?append@?$basic_string@DU?$char_traits@D@std@@V?$allocator@D@2@@std@@QAEAAV12@QBDI@Z 0041bf10 f i bwem.obj
 0001:0001b070       ?allocate@?$allocator@D@std@@QAEPADI@Z 0041c070 f i bwem.obj
 0001:0001b0d0       ??$?HDU?$char_traits@D@std@@V?$allocator@D@1@@std@@YA?AV?$basic_string@DU?$char_traits@D@std@@V?$allocator@D@2@@0@$$QAV10@QBD@Z 0041c0d0 f i bwem.obj
 0001:0001b140       ??$?HDU?$char_traits@D@std@@V?$allocator@D@1@@std@@YA?AV?$basic_string@DU?$char_traits@D@std@@V?$allocator@D@2@@0@ABV10@QBD@Z 0041c140 f i bwem.obj
 0001:0001b190       ??$?HDU?$char_traits@D@std@@V?$allocator@D@1@@std@@YA?AV?$basic_string@DU?$char_traits@D@std@@V?$allocator@D@2@@0@$$QAV10@0@Z 0041c190 f i bwem.obj
 0001:0001b1b0       ??$?HDU?$char_traits@D@std@@V?$allocator@D@1@@std@@YA?AV?$basic_string@DU?$char_traits@D@std@@V?$allocator@D@2@@0@$$QAV10@ABV10@@Z 0041c1b0 f i bwem.obj
 0001:0001b210       ??0?$basic_string@DU?$char_traits@D@std@@V?$allocator@D@2@@std@@QAE@U_String_constructor_concat_tag@1@AAV01@1@Z 0041c210 f i bwem.obj
 0001:0001b3a0       ??0?$basic_string@DU?$char_traits@D@std@@V?$allocator@D@2@@std@@QAE@U_String_constructor_concat_tag@1@ABV01@QBDI2I@Z 0041c3a0 f i bwem.obj
 0001:0001b440       ??0ChokePoint@BWEM@@QAE@PAVGraph@detail@1@HPBVArea@1@1ABV?$deque@V?$Point@H$07@BWAPI@@V?$allocator@V?$Point@H$07@BWAPI@@@std@@@std@@PAVNeutral@1@@Z 0041c440 f   cp.obj
 0001:0001b800       ??0ChokePoint@BWEM@@QAE@ABV01@@Z 0041c800 f   cp.obj
 0001:0001b8e0       ??_H@YGXPAXIIP6EPAX0@Z@Z   0041c8e0 f i cp.obj
 0001:0001b910       ??0?$deque@V?$Point@H$07@BWAPI@@V?$allocator@V?$Point@H$07@BWAPI@@@std@@@std@@QAE@ABV01@@Z 0041c910 f i cp.obj
 0001:0001b9e0       ??1?$_Container_proxy_ptr12@V?$allocator@U_Container_proxy@std@@@std@@@std@@QAE@XZ 0041c9e0 f i cp.obj
 0001:0001be10       ??1?$_Tidy_guard@V?$deque@VUnitType@BWAPI@@V?$allocator@VUnitType@BWAPI@@@std@@@std@@@std@@QAE@XZ 0041ce10 f i BWAPIClient:UnitShared.obj
 0001:0001be10       ??1?$_Tidy_guard@V?$deque@V?$Point@H$07@BWAPI@@V?$allocator@V?$Point@H$07@BWAPI@@@std@@@std@@@std@@QAE@XZ 0041ce10 f i cp.obj
 0001:0001be20       ??$_Emplace_reallocate@ABV?$Point@H$07@BWAPI@@@?$vector@V?$Point@H$07@BWAPI@@V?$allocator@V?$Point@H$07@BWAPI@@@std@@@std@@QAEPAV?$Point@H$07@BWAPI@@QAV23@ABV23@@Z 0041ce20 f i cp.obj
 0001:0001be20       ??$_Emplace_reallocate@V?$Point@H$07@BWAPI@@@?$vector@V?$Point@H$07@BWAPI@@V?$allocator@V?$Point@H$07@BWAPI@@@std@@@std@@QAEPAV?$Point@H$07@BWAPI@@QAV23@$$QAV23@@Z 0041ce20 f i mapImpl.obj
 0001:0001bf70       ?getName@?$Type@VUnitType@BWAPI@@$0OJ@@BWAPI@@QBEABV?$basic_string@DU?$char_traits@D@std@@V?$allocator@D@2@@std@@XZ 0041cf70 f i examples.obj
 0001:0001bf90       ??0?$basic_string@DU?$char_traits@D@std@@V?$allocator@D@2@@std@@QAE@QBD@Z 0041cf90 f i examples.obj
 0001:0001bfd0       ??$endl@DU?$char_traits@D@std@@@std@@YAAAV?$basic_ostream@DU?$char_traits@D@std@@@0@AAV10@@Z 0041cfd0 f i examples.obj
 0001:0001c000       ??1sentry@?$basic_ostream@DU?$char_traits@D@std@@@std@@QAE@XZ 0041d000 f i examples.obj
 0001:0001c070       ??0sentry@?$basic_ostream@DU?$char_traits@D@std@@@std@@QAE@AAV12@@Z 0041d070 f i examples.obj
 0001:0001c110       ??1_Sentry_base@?$basic_ostream@DU?$char_traits@D@std@@@std@@QAE@XZ 0041d110 f i examples.obj
 0001:0001c110       ??1_Sentry_base@?$basic_istream@DU?$char_traits@D@std@@@std@@QAE@XZ 0041d110 f i ParseUtils.obj
 0001:0001c160       ??$?6U?$char_traits@D@std@@@std@@YAAAV?$basic_ostream@DU?$char_traits@D@std@@@0@AAV10@PBD@Z 0041d160 f i examples.obj
 0001:0001c350       ??$?6DU?$char_traits@D@std@@V?$allocator@D@1@@std@@YAAAV?$basic_ostream@DU?$char_traits@D@std@@@0@AAV10@ABV?$basic_string@DU?$char_traits@D@std@@V?$allocator@D@2@@0@@Z 0041d350 f i examples.obj
 0001:0001c370       ??$_Insert_string@DU?$char_traits@D@std@@I@std@@YAAAV?$basic_ostream@DU?$char_traits@D@std@@@0@AAV10@QBDI@Z 0041d370 f i examples.obj
 0001:0001c520       ??0?$vector@V?$Point@H$0CA@@BWAPI@@V?$allocator@V?$Point@H$0CA@@BWAPI@@@std@@@std@@QAE@ABV01@@Z 0041d520 f i exampleWall.obj
 0001:0001c590       ?mainArea@detail@BWEM@@YAPAVArea@2@PAVMapImpl@12@V?$Point@H$0CA@@BWAPI@@1@Z 0041d590 f   graph.obj
 0001:0001c7f0       ??1?$map@PAVArea@BWEM@@HU?$less@PAVArea@BWEM@@@std@@V?$allocator@U?$pair@QAVArea@BWEM@@H@std@@@4@@std@@QAE@XZ 0041d7f0 f i graph.obj
 0001:0001c7f0       ??1?$multimap@HPBVChokePoint@BWEM@@U?$less@H@std@@V?$allocator@U?$pair@$$CBHPBVChokePoint@BWEM@@@std@@@4@@std@@QAE@XZ 0041d7f0 f i graph.obj
 0001:0001c7f0       ??1?$_Tree@V?$_Tmap_traits@U?$pair@FF@std@@HU?$less@U?$pair@FF@std@@@2@V?$allocator@U?$pair@$$CBU?$pair@FF@std@@H@std@@@2@$0A@@std@@@std@@QAE@XZ 0041d7f0 f i mapImpl.obj
 0001:0001c830       ?CreateChokePoints@Graph@detail@BWEM@@QAEXXZ 0041d830 f   graph.obj
 0001:0001d7d0       ??1?$map@U?$pair@FF@std@@V?$vector@V?$Point@H$07@BWAPI@@V?$allocator@V?$Point@H$07@BWAPI@@@std@@@2@U?$less@U?$pair@FF@std@@@2@V?$allocator@U?$pair@$$CBU?$pair@FF@std@@V?$vector@V?$Point@H$07@BWAPI@@V?$allocator@V?$Point@H$07@BWAPI@@@std@@@2@@std@@@2@@std@@QAE@XZ 0041e7d0 f i graph.obj
 0001:0001d7e0       ?SetPath@Graph@detail@BWEM@@AAEXPBVChokePoint@3@0ABV?$vector@PBVChokePoint@BWEM@@V?$allocator@PBVChokePoint@BWEM@@@std@@@std@@@Z 0041e7e0 f   graph.obj
 0001:0001d910       ?ComputeChokePointDistanceMatrix@Graph@detail@BWEM@@QAEXXZ 0041e910 f   graph.obj
 0001:0001df80       ?ComputeDistances@Graph@detail@BWEM@@ABE?AV?$vector@HV?$allocator@H@std@@@std@@PBVChokePoint@3@ABV?$vector@PBVChokePoint@BWEM@@V?$allocator@PBVChokePoint@BWEM@@@std@@@5@@Z 0041ef80 f   graph.obj
 0001:0001e410       ?GetPath@Graph@detail@BWEM@@QBEABV?$vector@PBVChokePoint@BWEM@@V?$allocator@PBVChokePoint@BWEM@@@std@@@std@@ABV?$Point@H$00@BWAPI@@0PAH@Z 0041f410 f   graph.obj
 0001:0001e960       ?CollectInformation@Graph@detail@BWEM@@QAEXXZ 0041f960 f   graph.obj
 0001:0001eae0       ??1?$vector@V?$deque@V?$Point@H$07@BWAPI@@V?$allocator@V?$Point@H$07@BWAPI@@@std@@@std@@V?$allocator@V?$deque@V?$Point@H$07@BWAPI@@V?$allocator@V?$Point@H$07@BWAPI@@@std@@@std@@@2@@std@@QAE@XZ 0041fae0 f i graph.obj
 0001:0001eb60       ??1?$vector@FV?$allocator@F@std@@@std@@QAE@XZ 0041fb60 f i graph.obj
 0001:0001eb60       ?_Tidy@?$vector@UDirection@BaseBorderFinder@@V?$allocator@UDirection@BaseBorderFinder@@@std@@@std@@AAEXXZ 0041fb60 f i BaseLocationManager.obj
 0001:0001ebc0       ??1?$_Tree@V?$_Tmap_traits@U?$pair@FF@std@@V?$vector@V?$Point@H$07@BWAPI@@V?$allocator@V?$Point@H$07@BWAPI@@@std@@@2@U?$less@U?$pair@FF@std@@@2@V?$allocator@U?$pair@$$CBU?$pair@FF@std@@V?$vector@V?$Point@H$07@BWAPI@@V?$allocator@V?$Point@H$07@BWAPI@@@std@@@2@@std@@@2@$0A@@std@@@std@@QAE@XZ 0041fbc0 f i graph.obj
 0001:0001ec10       ?_Reallocate_exactly@?$vector@VChokePoint@BWEM@@V?$allocator@VChokePoint@BWEM@@@std@@@std@@AAEXI@Z 0041fc10 f i graph.obj
 0001:0001ed50       ?_Reallocate_exactly@?$vector@VArea@BWEM@@V?$allocator@VArea@BWEM@@@std@@@std@@AAEXI@Z 0041fd50 f i graph.obj
 0001:0001ee90       ?_Change_array@?$vector@VChokePoint@BWEM@@V?$allocator@VChokePoint@BWEM@@@std@@@std@@AAEXQAVChokePoint@BWEM@@II@Z 0041fe90 f i graph.obj
 0001:0001ef20       ?deallocate@?$allocator@VArea@BWEM@@@std@@QAEXQAVArea@BWEM@@I@Z 0041ff20 f i graph.obj
 0001:0001ef20       ?deallocate@?$allocator@VChokePoint@BWEM@@@std@@QAEXQAVChokePoint@BWEM@@I@Z 0041ff20 f i graph.obj
 0001:0001ef60       ?_Destroy@?$vector@V?$deque@V?$Point@H$07@BWAPI@@V?$allocator@V?$Point@H$07@BWAPI@@@std@@@std@@V?$allocator@V?$deque@V?$Point@H$07@BWAPI@@V?$allocator@V?$Point@H$07@BWAPI@@@std@@@std@@@2@@std@@AAEXPAV?$deque@V?$Point@H$07@BWAPI@@V?$allocator@V?$Point@H$07@BWAPI@@@std@@@2@0@Z 0041ff60 f i graph.obj
 0001:0001ef80       ?deallocate@?$allocator@V?$deque@V?$Point@H$07@BWAPI@@V?$allocator@V?$Point@H$07@BWAPI@@@std@@@std@@@std@@QAEXQAV?$deque@V?$Point@H$07@BWAPI@@V?$allocator@V?$Point@H$07@BWAPI@@@std@@@2@I@Z 0041ff80 f i graph.obj
 0001:0001efc0       ?_Change_array@?$vector@VArea@BWEM@@V?$allocator@VArea@BWEM@@@std@@@std@@AAEXQAVArea@BWEM@@II@Z 0041ffc0 f i graph.obj
 0001:0001f050       ?_Destroy@?$vector@VArea@BWEM@@V?$allocator@VArea@BWEM@@@std@@@std@@AAEXPAVArea@BWEM@@0@Z 00420050 f i graph.obj
 0001:0001f070       ?_Destroy@?$vector@VChokePoint@BWEM@@V?$allocator@VChokePoint@BWEM@@@std@@@std@@AAEXPAVChokePoint@BWEM@@0@Z 00420070 f i graph.obj
 0001:0001f090       ??$GetNearestArea@V?$Point@H$07@BWAPI@@@Graph@detail@BWEM@@QBEPBVArea@2@V?$Point@H$07@BWAPI@@@Z 00420090 f i graph.obj
 0001:0001f130       ??$construct@VArea@BWEM@@PAVGraph@detail@2@AAFAAV?$Point@H$07@BWAPI@@AAH@?$_Default_allocator_traits@V?$allocator@VArea@BWEM@@@std@@@std@@SAXAAV?$allocator@VArea@BWEM@@@1@QAVArea@BWEM@@$$QAPAVGraph@detail@4@AAFAAV?$Point@H$07@BWAPI@@AAH@Z 00420130 f i graph.obj
 0001:0001f270       ??$_Emplace_reallocate@PAVGraph@detail@BWEM@@AAFAAV?$Point@H$07@BWAPI@@AAH@?$vector@VArea@BWEM@@V?$allocator@VArea@BWEM@@@std@@@std@@QAEPAVArea@BWEM@@QAV23@$$QAPAVGraph@detail@3@AAFAAV?$Point@H$07@BWAPI@@AAH@Z 00420270 f i graph.obj
 0001:0001f500       ??$_Emplace_reallocate@PAVGraph@detail@BWEM@@HPAVArea@3@PAV43@ABV?$deque@V?$Point@H$07@BWAPI@@V?$allocator@V?$Point@H$07@BWAPI@@@std@@@std@@@?$vector@VChokePoint@BWEM@@V?$allocator@VChokePoint@BWEM@@@std@@@std@@QAEPAVChokePoint@BWEM@@QAV23@$$QAPAVGraph@detail@3@$$QAH$$QAPAVArea@3@3ABV?$deque@V?$Point@H$07@BWAPI@@V?$allocator@V?$Point@H$07@BWAPI@@@std@@@1@@Z 00420500 f i graph.obj
 0001:0001fa80       ??$_Emplace_reallocate@PAVGraph@detail@BWEM@@HAAPBVArea@3@AAPBV43@V?$deque@V?$Point@H$07@BWAPI@@V?$allocator@V?$Point@H$07@BWAPI@@@std@@@std@@AAPAVNeutral@3@@?$vector@VChokePoint@BWEM@@V?$allocator@VChokePoint@BWEM@@@std@@@std@@QAEPAVChokePoint@BWEM@@QAV23@$$QAPAVGraph@detail@3@$$QAHAAPBVArea@3@3$$QAV?$deque@V?$Point@H$07@BWAPI@@V?$allocator@V?$Point@H$07@BWAPI@@@std@@@1@AAPAVNeutral@3@@Z 00420a80 f i graph.obj
 0001:0001fd10       ??$ComputeChokePointDistances@VGraph@detail@BWEM@@@Graph@detail@BWEM@@AAEXPBV012@@Z 00420d10 f i graph.obj
 0001:00020010       ??$ComputeChokePointDistances@VArea@BWEM@@@Graph@detail@BWEM@@AAEXPBVArea@2@@Z 00421010 f i graph.obj
 0001:00020460       ??$emplace@HAAPBVChokePoint@BWEM@@@?$multimap@HPBVChokePoint@BWEM@@U?$less@H@std@@V?$allocator@U?$pair@$$CBHPBVChokePoint@BWEM@@@std@@@4@@std@@QAE?AV?$_Tree_iterator@V?$_Tree_val@U?$_Tree_simple_types@U?$pair@$$CBHPBVChokePoint@BWEM@@@std@@@std@@@std@@@1@$$QAHAAPBVChokePoint@BWEM@@@Z 00421460 f i graph.obj
 0001:00020460       ??$emplace@ABHAAPBVChokePoint@BWEM@@@?$multimap@HPBVChokePoint@BWEM@@U?$less@H@std@@V?$allocator@U?$pair@$$CBHPBVChokePoint@BWEM@@@std@@@4@@std@@QAE?AV?$_Tree_iterator@V?$_Tree_val@U?$_Tree_simple_types@U?$pair@$$CBHPBVChokePoint@BWEM@@@std@@@std@@@std@@@1@ABHAAPBVChokePoint@BWEM@@@Z 00421460 f i graph.obj
 0001:00020540       ??$construct@V?$deque@V?$Point@H$07@BWAPI@@V?$allocator@V?$Point@H$07@BWAPI@@@std@@@std@@V12@@?$_Default_allocator_traits@V?$allocator@V?$deque@V?$Point@H$07@BWAPI@@V?$allocator@V?$Point@H$07@BWAPI@@@std@@@std@@@std@@@std@@SAXAAV?$allocator@V?$deque@V?$Point@H$07@BWAPI@@V?$allocator@V?$Point@H$07@BWAPI@@@std@@@std@@@1@QAV?$deque@V?$Point@H$07@BWAPI@@V?$allocator@V?$Point@H$07@BWAPI@@@std@@@1@$$QAV31@@Z 00421540 f i graph.obj
 0001:000205d0       ??$_Emplace_reallocate@V?$deque@V?$Point@H$07@BWAPI@@V?$allocator@V?$Point@H$07@BWAPI@@@std@@@std@@@?$vector@V?$deque@V?$Point@H$07@BWAPI@@V?$allocator@V?$Point@H$07@BWAPI@@@std@@@std@@V?$allocator@V?$deque@V?$Point@H$07@BWAPI@@V?$allocator@V?$Point@H$07@BWAPI@@@std@@@std@@@2@@std@@QAEPAV?$deque@V?$Point@H$07@BWAPI@@V?$allocator@V?$Point@H$07@BWAPI@@@std@@@1@QAV21@$$QAV21@@Z 004215d0 f i graph.obj
 0001:00020890       ??$_Emplace_reallocate@F@?$vector@FV?$allocator@F@std@@@std@@QAEPAFQAF$$QAF@Z 00421890 f i graph.obj
 0001:000209f0       ??$_Destroy_range@V?$allocator@V?$vector@V?$vector@PBVChokePoint@BWEM@@V?$allocator@PBVChokePoint@BWEM@@@std@@@std@@V?$allocator@V?$vector@PBVChokePoint@BWEM@@V?$allocator@PBVChokePoint@BWEM@@@std@@@std@@@2@@std@@@std@@@std@@YAXPAV?$vector@V?$vector@PBVChokePoint@BWEM@@V?$allocator@PBVChokePoint@BWEM@@@std@@@std@@V?$allocator@V?$vector@PBVChokePoint@BWEM@@V?$allocator@PBVChokePoint@BWEM@@@std@@@std@@@2@@0@QAV10@AAV?$allocator@V?$vector@V?$vector@PBVChokePoint@BWEM@@V?$allocator@PBVChokePoint@BWEM@@@std@@@std@@V?$allocator@V?$vector@PBVChokePoint@BWEM@@V?$allocator@PBVChokePoint@BWEM@@@std@@@std@@@2@@std@@@0@@Z 004219f0 f i graph.obj
 0001:00020a80       ??$_Destroy_range@V?$allocator@V?$deque@V?$Point@H$07@BWAPI@@V?$allocator@V?$Point@H$07@BWAPI@@@std@@@std@@@std@@@std@@YAXPAV?$deque@V?$Point@H$07@BWAPI@@V?$allocator@V?$Point@H$07@BWAPI@@@std@@@0@QAV10@AAV?$allocator@V?$deque@V?$Point@H$07@BWAPI@@V?$allocator@V?$Point@H$07@BWAPI@@@std@@@std@@@0@@Z 00421a80 f i graph.obj
 0001:00020ac0       ??$_Destroy_range@V?$allocator@V?$vector@V?$vector@VChokePoint@BWEM@@V?$allocator@VChokePoint@BWEM@@@std@@@std@@V?$allocator@V?$vector@VChokePoint@BWEM@@V?$allocator@VChokePoint@BWEM@@@std@@@std@@@2@@std@@@std@@@std@@YAXPAV?$vector@V?$vector@VChokePoint@BWEM@@V?$allocator@VChokePoint@BWEM@@@std@@@std@@V?$allocator@V?$vector@VChokePoint@BWEM@@V?$allocator@VChokePoint@BWEM@@@std@@@std@@@2@@0@QAV10@AAV?$allocator@V?$vector@V?$vector@VChokePoint@BWEM@@V?$allocator@VChokePoint@BWEM@@@std@@@std@@V?$allocator@V?$vector@VChokePoint@BWEM@@V?$allocator@VChokePoint@BWEM@@@std@@@std@@@2@@std@@@0@@Z 00421ac0 f i graph.obj
 0001:00020b50       ??$_Destroy_range@V?$allocator@VArea@BWEM@@@std@@@std@@YAXPAVArea@BWEM@@QAV12@AAV?$allocator@VArea@BWEM@@@0@@Z 00421b50 f i graph.obj
 0001:00020c50       ??$_Destroy_range@V?$allocator@VChokePoint@BWEM@@@std@@@std@@YAXPAVChokePoint@BWEM@@QAV12@AAV?$allocator@VChokePoint@BWEM@@@0@@Z 00421c50 f i graph.obj
 0001:00020c90       ??1?$_Uninitialized_backout_al@V?$allocator@VArea@BWEM@@@std@@@std@@QAE@XZ 00421c90 f i graph.obj
 0001:00020ca0       ??1?$_Uninitialized_backout_al@V?$allocator@VChokePoint@BWEM@@@std@@@std@@QAE@XZ 00421ca0 f i graph.obj
 0001:00020cb0       ??1?$_Alloc_construct_ptr@V?$allocator@U?$_Tree_node@U?$pair@$$CBU?$pair@FF@std@@V?$vector@V?$Point@H$07@BWAPI@@V?$allocator@V?$Point@H$07@BWAPI@@@std@@@2@@std@@PAX@std@@@std@@@std@@QAE@XZ 00421cb0 f i graph.obj
 0001:00020cd0       ?allocate@?$allocator@V?$vector@HV?$allocator@H@std@@@std@@@std@@QAEPAV?$vector@HV?$allocator@H@std@@@2@I@Z 00421cd0 f i graph.obj
 0001:00020d30       ??$BreadthFirstSearch@V?$Point@H$07@BWAPI@@V<lambda_d81e2adfc887d72a35b81278325137cd>@@V<lambda_a0af58e8904505622d30e6069adcd62d>@@@Map@BWEM@@QBE?AV?$Point@H$07@BWAPI@@V23@V<lambda_d81e2adfc887d72a35b81278325137cd>@@V<lambda_a0af58e8904505622d30e6069adcd62d>@@_N@Z 00421d30 f i graph.obj
 0001:00021020       ??$_Erase_tree@V?$allocator@U?$_Tree_node@U?$pair@$$CBU?$pair@FF@std@@V?$vector@V?$Point@H$07@BWAPI@@V?$allocator@V?$Point@H$07@BWAPI@@@std@@@2@@std@@PAX@std@@@std@@@?$_Tree_val@U?$_Tree_simple_types@U?$pair@$$CBU?$pair@FF@std@@V?$vector@V?$Point@H$07@BWAPI@@V?$allocator@V?$Point@H$07@BWAPI@@@std@@@2@@std@@@std@@@std@@QAEXAAV?$allocator@U?$_Tree_node@U?$pair@$$CBU?$pair@FF@std@@V?$vector@V?$Point@H$07@BWAPI@@V?$allocator@V?$Point@H$07@BWAPI@@@std@@@2@@std@@PAX@std@@@1@PAU?$_Tree_node@U?$pair@$$CBU?$pair@FF@std@@V?$vector@V?$Point@H$07@BWAPI@@V?$allocator@V?$Point@H$07@BWAPI@@@std@@@2@@std@@PAX@1@@Z 00422020 f i graph.obj
 0001:00021070       ??$_Resize_reallocate@U_Value_init_tag@std@@@?$vector@V?$vector@VChokePoint@BWEM@@V?$allocator@VChokePoint@BWEM@@@std@@@std@@V?$allocator@V?$vector@VChokePoint@BWEM@@V?$allocator@VChokePoint@BWEM@@@std@@@std@@@2@@std@@AAEXIABU_Value_init_tag@1@@Z 00422070 f i graph.obj
 0001:00021240       ??$_Resize_reallocate@U_Value_init_tag@std@@@?$vector@V?$vector@PBVChokePoint@BWEM@@V?$allocator@PBVChokePoint@BWEM@@@std@@@std@@V?$allocator@V?$vector@PBVChokePoint@BWEM@@V?$allocator@PBVChokePoint@BWEM@@@std@@@std@@@2@@std@@AAEXIABU_Value_init_tag@1@@Z 00422240 f i graph.obj
 0001:00021410       ??$_Resize_reallocate@H@?$vector@HV?$allocator@H@std@@@std@@AAEXIABH@Z 00422410 f i graph.obj
 0001:00021520       ??$_Resize_reallocate@U_Value_init_tag@std@@@?$vector@V?$vector@V?$vector@PBVChokePoint@BWEM@@V?$allocator@PBVChokePoint@BWEM@@@std@@@std@@V?$allocator@V?$vector@PBVChokePoint@BWEM@@V?$allocator@PBVChokePoint@BWEM@@@std@@@std@@@2@@std@@V?$allocator@V?$vector@V?$vector@PBVChokePoint@BWEM@@V?$allocator@PBVChokePoint@BWEM@@@std@@@std@@V?$allocator@V?$vector@PBVChokePoint@BWEM@@V?$allocator@PBVChokePoint@BWEM@@@std@@@std@@@2@@std@@@2@@std@@AAEXIABU_Value_init_tag@1@@Z 00422520 f i graph.obj
 0001:000216f0       ??$_Resize_reallocate@U_Value_init_tag@std@@@?$vector@V?$vector@HV?$allocator@H@std@@@std@@V?$allocator@V?$vector@HV?$allocator@H@std@@@std@@@2@@std@@AAEXIABU_Value_init_tag@1@@Z 004226f0 f i graph.obj
 0001:00021870       ??$_Resize_reallocate@U_Value_init_tag@std@@@?$vector@V?$vector@V?$vector@VChokePoint@BWEM@@V?$allocator@VChokePoint@BWEM@@@std@@@std@@V?$allocator@V?$vector@VChokePoint@BWEM@@V?$allocator@VChokePoint@BWEM@@@std@@@std@@@2@@std@@V?$allocator@V?$vector@V?$vector@VChokePoint@BWEM@@V?$allocator@VChokePoint@BWEM@@@std@@@std@@V?$allocator@V?$vector@VChokePoint@BWEM@@V?$allocator@VChokePoint@BWEM@@@std@@@std@@@2@@std@@@2@@std@@AAEXIABU_Value_init_tag@1@@Z 00422870 f i graph.obj
 0001:00021a40       ??$_Destroy_range@V?$allocator@V?$vector@VChokePoint@BWEM@@V?$allocator@VChokePoint@BWEM@@@std@@@std@@@std@@@std@@YAXPAV?$vector@VChokePoint@BWEM@@V?$allocator@VChokePoint@BWEM@@@std@@@0@QAV10@AAV?$allocator@V?$vector@VChokePoint@BWEM@@V?$allocator@VChokePoint@BWEM@@@std@@@std@@@0@@Z 00422a40 f i graph.obj
 0001:00021ad0       ??$_Destroy_range@V?$allocator@V?$vector@PBVChokePoint@BWEM@@V?$allocator@PBVChokePoint@BWEM@@@std@@@std@@@std@@@std@@YAXPAV?$vector@PBVChokePoint@BWEM@@V?$allocator@PBVChokePoint@BWEM@@@std@@@0@QAV10@AAV?$allocator@V?$vector@PBVChokePoint@BWEM@@V?$allocator@PBVChokePoint@BWEM@@@std@@@std@@@0@@Z 00422ad0 f i graph.obj
 0001:00021b40       ??1?$_Uninitialized_backout_al@V?$allocator@V?$vector@PAVBaseLocation@UAlbertaBot@@V?$allocator@PAVBaseLocation@UAlbertaBot@@@std@@@std@@@std@@@std@@QAE@XZ 00422b40 f i BaseLocationManager.obj
 0001:00021b40       ??1?$_Uninitialized_backout_al@V?$allocator@V?$vector@HV?$allocator@H@std@@@std@@@std@@@std@@QAE@XZ 00422b40 f i graph.obj
 0001:00021b70       ??1?$_Uninitialized_backout_al@V?$allocator@V?$deque@V?$Point@H$07@BWAPI@@V?$allocator@V?$Point@H$07@BWAPI@@@std@@@std@@@std@@@std@@QAE@XZ 00422b70 f i graph.obj
 0001:00021b80       ?_Clear_and_reserve_geometric@?$vector@IV?$allocator@I@std@@@std@@AAEXI@Z 00422b80 f i BOSSManager.obj
 0001:00021b80       ?_Clear_and_reserve_geometric@?$vector@PBVChokePoint@BWEM@@V?$allocator@PBVChokePoint@BWEM@@@std@@@std@@AAEXI@Z 00422b80 f i graph.obj
 0001:00021b80       ?_Clear_and_reserve_geometric@?$vector@HV?$allocator@H@std@@@std@@AAEXI@Z 00422b80 f i CombatSimulation.obj
 0001:00021c30       ??0?$vector@HV?$allocator@H@std@@@std@@QAE@XZ 00422c30 f i graph.obj
 0001:00021c30       ??0?$vector@VAction@SparCraft@@V?$allocator@VAction@SparCraft@@@std@@@std@@QAE@XZ 00422c30 f i SparCraft:Game.obj
 0001:00021c30       ??0?$vector@VUnit@SparCraft@@V?$allocator@VUnit@SparCraft@@@std@@@std@@QAE@XZ 00422c30 f i SparCraft:GameState.obj
 0001:00021c50       ??$?HDU?$char_traits@D@std@@V?$allocator@D@1@@std@@YA?AV?$basic_string@DU?$char_traits@D@std@@V?$allocator@D@2@@0@QBDABV10@@Z 00422c50 f i mapDrawer.obj
 0001:00021cb0       ??$_Traits_equal@U?$char_traits@D@std@@@std@@YA_NQBDI0I@Z 00422cb0 f i mapDrawer.obj
 0001:00021d20       ?AutomaticPathUpdate@MapImpl@detail@BWEM@@UBE_NXZ 00422d20 f i mapImpl.obj
 0001:00021d30       ?EnableAutomaticPathAnalysis@MapImpl@detail@BWEM@@UBEXXZ 00422d30 f i mapImpl.obj
 0001:00021d40       ?MaxAltitude@MapImpl@detail@BWEM@@UBEFXZ 00422d40 f i mapImpl.obj
 0001:00021d50       ?BaseCount@MapImpl@detail@BWEM@@UBEHXZ 00422d50 f i mapImpl.obj
 0001:00021d60       ?ChokePointCount@MapImpl@detail@BWEM@@UBEHXZ 00422d60 f i mapImpl.obj
 0001:00021d70       ?StartingLocations@MapImpl@detail@BWEM@@UBEABV?$vector@V?$Point@H$0CA@@BWAPI@@V?$allocator@V?$Point@H$0CA@@BWAPI@@@std@@@std@@XZ 00422d70 f i mapImpl.obj
 0001:00021d80       ?Geysers@MapImpl@detail@BWEM@@UBEABV?$vector@V?$unique_ptr@VGeyser@BWEM@@U?$default_delete@VGeyser@BWEM@@@std@@@std@@V?$allocator@V?$unique_ptr@VGeyser@BWEM@@U?$default_delete@VGeyser@BWEM@@@std@@@std@@@2@@std@@XZ 00422d80 f i mapImpl.obj
 0001:00021d90       ?Minerals@MapImpl@detail@BWEM@@UBEABV?$vector@V?$unique_ptr@VMineral@BWEM@@U?$default_delete@VMineral@BWEM@@@std@@@std@@V?$allocator@V?$unique_ptr@VMineral@BWEM@@U?$default_delete@VMineral@BWEM@@@std@@@std@@@2@@std@@XZ 00422d90 f i mapImpl.obj
 0001:00021da0       ?StaticBuildings@MapImpl@detail@BWEM@@UBEABV?$vector@V?$unique_ptr@VStaticBuilding@BWEM@@U?$default_delete@VStaticBuilding@BWEM@@@std@@@std@@V?$allocator@V?$unique_ptr@VStaticBuilding@BWEM@@U?$default_delete@VStaticBuilding@BWEM@@@std@@@std@@@2@@std@@XZ 00422da0 f i mapImpl.obj
 0001:00021db0       ?Areas@MapImpl@detail@BWEM@@UBEABV?$vector@VArea@BWEM@@V?$allocator@VArea@BWEM@@@std@@@std@@XZ 00422db0 f i mapImpl.obj
 0001:00021dc0       ?GetArea@MapImpl@detail@BWEM@@UBEPBVArea@3@F@Z 00422dc0 f i mapImpl.obj
 0001:00021de0       ?GetArea@MapImpl@detail@BWEM@@UBEPBVArea@3@V?$Point@H$07@BWAPI@@@Z 00422de0 f i mapImpl.obj
 0001:00021e20       ?GetArea@MapImpl@detail@BWEM@@UBEPBVArea@3@V?$Point@H$0CA@@BWAPI@@@Z 00422e20 f i mapImpl.obj
 0001:00021e60       ?GetNearestArea@MapImpl@detail@BWEM@@UBEPBVArea@3@V?$Point@H$07@BWAPI@@@Z 00422e60 f i mapImpl.obj
 0001:00021e80       ?GetNearestArea@MapImpl@detail@BWEM@@UBEPBVArea@3@V?$Point@H$0CA@@BWAPI@@@Z 00422e80 f i mapImpl.obj
 0001:00021f20       ?GetPath@MapImpl@detail@BWEM@@UBEABV?$vector@PBVChokePoint@BWEM@@V?$allocator@PBVChokePoint@BWEM@@@std@@@std@@ABV?$Point@H$00@BWAPI@@0PAH@Z 00422f20 f i mapImpl.obj
 0001:00021f30       ?RawFrontier@MapImpl@detail@BWEM@@UBEABV?$vector@U?$pair@U?$pair@FF@std@@V?$Point@H$07@BWAPI@@@std@@V?$allocator@U?$pair@U?$pair@FF@std@@V?$Point@H$07@BWAPI@@@std@@@2@@std@@XZ 00422f30 f i mapImpl.obj
 0001:00021f40       ??0MapImpl@detail@BWEM@@QAE@XZ 00422f40 f   mapImpl.obj
 0001:000220d0       ??_EMapImpl@detail@BWEM@@UAEPAXI@Z 004230d0 f i * CIL library *:* CIL module *
 0001:000220d0       ??_GMapImpl@detail@BWEM@@UAEPAXI@Z 004230d0 f i mapImpl.obj
 0001:00022150       ??1Graph@detail@BWEM@@QAE@XZ 00423150 f i mapImpl.obj
 0001:000221d0       ?Initialize@MapImpl@detail@BWEM@@UAEXXZ 004231d0 f   mapImpl.obj
 0001:00022590       ?LoadData@MapImpl@detail@BWEM@@AAEXXZ 00423590 f   mapImpl.obj
 0001:00022760       ?DecideSeasOrLakes@MapImpl@detail@BWEM@@AAEXXZ 00423760 f   mapImpl.obj
 0001:00022b00       ?InitializeNeutrals@MapImpl@detail@BWEM@@AAEXXZ 00423b00 f   mapImpl.obj
 0001:00023070       ?ReplaceAreaIds@MapImpl@detail@BWEM@@AAEXV?$Point@H$07@BWAPI@@F@Z 00424070 f   mapImpl.obj
 0001:00023220       ?ComputeAltitude@MapImpl@detail@BWEM@@AAEXXZ 00424220 f   mapImpl.obj
 0001:000237a0       ?ProcessBlockingNeutrals@MapImpl@detail@BWEM@@AAEXXZ 004247a0 f   mapImpl.obj
 0001:00024350       ?SortMiniTiles@MapImpl@detail@BWEM@@AAE?AV?$vector@U?$pair@V?$Point@H$07@BWAPI@@PAVMiniTile@BWEM@@@std@@V?$allocator@U?$pair@V?$Point@H$07@BWAPI@@PAVMiniTile@BWEM@@@std@@@2@@std@@XZ 00425350 f   mapImpl.obj
 0001:00024630       ?ComputeTempAreas@MapImpl@detail@BWEM@@AAE?AV?$vector@VTempAreaInfo@detail@BWEM@@V?$allocator@VTempAreaInfo@detail@BWEM@@@std@@@std@@ABV?$vector@U?$pair@V?$Point@H$07@BWAPI@@PAVMiniTile@BWEM@@@std@@V?$allocator@U?$pair@V?$Point@H$07@BWAPI@@PAVMiniTile@BWEM@@@std@@@2@@5@@Z 00425630 f   mapImpl.obj
 0001:00024b40       ?CreateAreas@MapImpl@detail@BWEM@@AAEXABV?$vector@VTempAreaInfo@detail@BWEM@@V?$allocator@VTempAreaInfo@detail@BWEM@@@std@@@std@@@Z 00425b40 f   mapImpl.obj
 0001:00024d80       ?SetAreaIdInTile@MapImpl@detail@BWEM@@AAEXV?$Point@H$0CA@@BWAPI@@@Z 00425d80 f   mapImpl.obj
 0001:00024e10       ?GetMineral@MapImpl@detail@BWEM@@UBEPAVMineral@3@PAVUnitInterface@BWAPI@@@Z 00425e10 f   mapImpl.obj
 0001:00024e50       ?GetGeyser@MapImpl@detail@BWEM@@UBEPAVGeyser@3@PAVUnitInterface@BWAPI@@@Z 00425e50 f   mapImpl.obj
 0001:00024e90       ?OnMineralDestroyed@MapImpl@detail@BWEM@@UAEXPAVUnitInterface@BWAPI@@@Z 00425e90 f   mapImpl.obj
 0001:00024ef0       ?OnStaticBuildingDestroyed@MapImpl@detail@BWEM@@UAEXPAVUnitInterface@BWAPI@@@Z 00425ef0 f   mapImpl.obj
 0001:00024f70       ?OnBlockingNeutralDestroyed@MapImpl@detail@BWEM@@QAEXPBVNeutral@3@@Z 00425f70 f   mapImpl.obj
 0001:00025200       ?FindBasesForStartingLocations@MapImpl@detail@BWEM@@UAE_NXZ 00426200 f   mapImpl.obj
 0001:00025330       ??1?$vector@U?$pair@V?$Point@H$07@BWAPI@@H@std@@V?$allocator@U?$pair@V?$Point@H$07@BWAPI@@H@std@@@2@@std@@QAE@XZ 00426330 f i mapImpl.obj
 0001:00025330       ??1?$vector@U?$pair@U?$pair@FF@std@@V?$Point@H$07@BWAPI@@@std@@V?$allocator@U?$pair@U?$pair@FF@std@@V?$Point@H$07@BWAPI@@@std@@@2@@std@@QAE@XZ 00426330 f i mapImpl.obj
 0001:00025330       ??1?$vector@U?$pair@V?$Point@H$07@BWAPI@@F@std@@V?$allocator@U?$pair@V?$Point@H$07@BWAPI@@F@std@@@2@@std@@QAE@XZ 00426330 f i mapImpl.obj
 0001:00025330       ??1?$vector@U?$pair@V?$Point@H$07@BWAPI@@PAVMiniTile@BWEM@@@std@@V?$allocator@U?$pair@V?$Point@H$07@BWAPI@@PAVMiniTile@BWEM@@@std@@@2@@std@@QAE@XZ 00426330 f i mapImpl.obj
 0001:000253a0       ??1?$vector@VTempAreaInfo@detail@BWEM@@V?$allocator@VTempAreaInfo@detail@BWEM@@@std@@@std@@QAE@XZ 004263a0 f i mapImpl.obj
 0001:000253a0       ??1?$vector@VMetaType@UAlbertaBot@@V?$allocator@VMetaType@UAlbertaBot@@@std@@@std@@QAE@XZ 004263a0 f i BOSSManager.obj
 0001:000253a0       ??1?$vector@VActionPerformed@BOSS@@V?$allocator@VActionPerformed@BOSS@@@std@@@std@@QAE@XZ 004263a0 f i BOSSManager.obj
 0001:000253b0       ??1?$unique_ptr@VStaticBuilding@BWEM@@U?$default_delete@VStaticBuilding@BWEM@@@std@@@std@@QAE@XZ 004263b0 f i mapImpl.obj
 0001:000253d0       ??1?$unique_ptr@VGeyser@BWEM@@U?$default_delete@VGeyser@BWEM@@@std@@@std@@QAE@XZ 004263d0 f i mapImpl.obj
 0001:00025400       ??1?$unique_ptr@VMineral@BWEM@@U?$default_delete@VMineral@BWEM@@@std@@@std@@QAE@XZ 00426400 f i mapImpl.obj
 0001:00025510       ??1?$vector@V?$unique_ptr@VStaticBuilding@BWEM@@U?$default_delete@VStaticBuilding@BWEM@@@std@@@std@@V?$allocator@V?$unique_ptr@VStaticBuilding@BWEM@@U?$default_delete@VStaticBuilding@BWEM@@@std@@@std@@@2@@std@@QAE@XZ 00426510 f i mapImpl.obj
 0001:000255b0       ??1?$vector@V?$unique_ptr@VGeyser@BWEM@@U?$default_delete@VGeyser@BWEM@@@std@@@std@@V?$allocator@V?$unique_ptr@VGeyser@BWEM@@U?$default_delete@VGeyser@BWEM@@@std@@@std@@@2@@std@@QAE@XZ 004265b0 f i mapImpl.obj
 0001:00025610       ??1?$vector@V?$unique_ptr@VMineral@BWEM@@U?$default_delete@VMineral@BWEM@@@std@@@std@@V?$allocator@V?$unique_ptr@VMineral@BWEM@@U?$default_delete@VMineral@BWEM@@@std@@@std@@@2@@std@@QAE@XZ 00426610 f i mapImpl.obj
 0001:00025680       ??1?$vector@VTile@BWEM@@V?$allocator@VTile@BWEM@@@std@@@std@@QAE@XZ 00426680 f i mapImpl.obj
 0001:000256e0       ??1?$vector@V?$vector@V?$vector@PBVChokePoint@BWEM@@V?$allocator@PBVChokePoint@BWEM@@@std@@@std@@V?$allocator@V?$vector@PBVChokePoint@BWEM@@V?$allocator@PBVChokePoint@BWEM@@@std@@@std@@@2@@std@@V?$allocator@V?$vector@V?$vector@PBVChokePoint@BWEM@@V?$allocator@PBVChokePoint@BWEM@@@std@@@std@@V?$allocator@V?$vector@PBVChokePoint@BWEM@@V?$allocator@PBVChokePoint@BWEM@@@std@@@std@@@2@@std@@@2@@std@@QAE@XZ 004266e0 f i mapImpl.obj
 0001:00025760       ??1?$vector@V?$vector@V?$vector@VChokePoint@BWEM@@V?$allocator@VChokePoint@BWEM@@@std@@@std@@V?$allocator@V?$vector@VChokePoint@BWEM@@V?$allocator@VChokePoint@BWEM@@@std@@@std@@@2@@std@@V?$allocator@V?$vector@V?$vector@VChokePoint@BWEM@@V?$allocator@VChokePoint@BWEM@@@std@@@std@@V?$allocator@V?$vector@VChokePoint@BWEM@@V?$allocator@VChokePoint@BWEM@@@std@@@std@@@2@@std@@@2@@std@@QAE@XZ 00426760 f i mapImpl.obj
 0001:000257e0       ??1?$vector@VArea@BWEM@@V?$allocator@VArea@BWEM@@@std@@@std@@QAE@XZ 004267e0 f i mapImpl.obj
 0001:00025860       ?_Tidy@?$vector@VMetaType@UAlbertaBot@@V?$allocator@VMetaType@UAlbertaBot@@@std@@@std@@AAEXXZ 00426860 f i BOSSManager.obj
 0001:00025860       ?_Tidy@?$vector@VTempAreaInfo@detail@BWEM@@V?$allocator@VTempAreaInfo@detail@BWEM@@@std@@@std@@AAEXXZ 00426860 f i mapImpl.obj
 0001:00025860       ?_Tidy@?$vector@VActionPerformed@BOSS@@V?$allocator@VActionPerformed@BOSS@@@std@@@std@@AAEXXZ 00426860 f i BOSSManager.obj
 0001:000258d0       ?_Tidy@?$vector@V?$vector@PAVBaseLocation@UAlbertaBot@@V?$allocator@PAVBaseLocation@UAlbertaBot@@@std@@@std@@V?$allocator@V?$vector@PAVBaseLocation@UAlbertaBot@@V?$allocator@PAVBaseLocation@UAlbertaBot@@@std@@@std@@@2@@std@@AAEXXZ 004268d0 f i BaseLocationManager.obj
 0001:000258d0       ?_Tidy@?$vector@V?$vector@HV?$allocator@H@std@@@std@@V?$allocator@V?$vector@HV?$allocator@H@std@@@std@@@2@@std@@AAEXXZ 004268d0 f i mapImpl.obj
 0001:00025950       ??$_Emplace_reallocate@V?$Point@H$07@BWAPI@@F@?$vector@U?$pair@V?$Point@H$07@BWAPI@@F@std@@V?$allocator@U?$pair@V?$Point@H$07@BWAPI@@F@std@@@2@@std@@QAEPAU?$pair@V?$Point@H$07@BWAPI@@F@1@QAU21@$$QAV?$Point@H$07@BWAPI@@$$QAF@Z 00426950 f i mapImpl.obj
 0001:00025c90       ??$_Emplace_reallocate@AAV?$Point@H$07@BWAPI@@PAVMiniTile@BWEM@@@?$vector@U?$pair@V?$Point@H$07@BWAPI@@PAVMiniTile@BWEM@@@std@@V?$allocator@U?$pair@V?$Point@H$07@BWAPI@@PAVMiniTile@BWEM@@@std@@@2@@std@@QAEPAU?$pair@V?$Point@H$07@BWAPI@@PAVMiniTile@BWEM@@@1@QAU21@AAV?$Point@H$07@BWAPI@@$$QAPAVMiniTile@BWEM@@@Z 00426c90 f i mapImpl.obj
 0001:00025c90       ??$_Emplace_reallocate@V?$Point@H$07@BWAPI@@H@?$vector@U?$pair@V?$Point@H$07@BWAPI@@H@std@@V?$allocator@U?$pair@V?$Point@H$07@BWAPI@@H@std@@@2@@std@@QAEPAU?$pair@V?$Point@H$07@BWAPI@@H@1@QAU21@$$QAV?$Point@H$07@BWAPI@@$$QAH@Z 00426c90 f i mapImpl.obj
 0001:00025e90       ??$_Emplace_reallocate@FAAPAVMiniTile@BWEM@@ABV?$Point@H$07@BWAPI@@@?$vector@VTempAreaInfo@detail@BWEM@@V?$allocator@VTempAreaInfo@detail@BWEM@@@std@@@std@@QAEPAVTempAreaInfo@detail@BWEM@@QAV234@$$QAFAAPAVMiniTile@4@ABV?$Point@H$07@BWAPI@@@Z 00426e90 f i mapImpl.obj
 0001:000260b0       ??$_Emplace_reallocate@AAU?$pair@FF@std@@ABV?$Point@H$07@BWAPI@@@?$vector@U?$pair@U?$pair@FF@std@@V?$Point@H$07@BWAPI@@@std@@V?$allocator@U?$pair@U?$pair@FF@std@@V?$Point@H$07@BWAPI@@@std@@@2@@std@@QAEPAU?$pair@U?$pair@FF@std@@V?$Point@H$07@BWAPI@@@1@QAU21@AAU?$pair@FF@1@ABV?$Point@H$07@BWAPI@@@Z 004270b0 f i mapImpl.obj
 0001:000264b0       ??$_Emplace_reallocate@V?$unique_ptr@VStaticBuilding@BWEM@@U?$default_delete@VStaticBuilding@BWEM@@@std@@@std@@@?$vector@V?$unique_ptr@VStaticBuilding@BWEM@@U?$default_delete@VStaticBuilding@BWEM@@@std@@@std@@V?$allocator@V?$unique_ptr@VStaticBuilding@BWEM@@U?$default_delete@VStaticBuilding@BWEM@@@std@@@std@@@2@@std@@QAEPAV?$unique_ptr@VStaticBuilding@BWEM@@U?$default_delete@VStaticBuilding@BWEM@@@std@@@1@QAV21@$$QAV21@@Z 004274b0 f i mapImpl.obj
 0001:00026670       ??$_Emplace_reallocate@V?$unique_ptr@VGeyser@BWEM@@U?$default_delete@VGeyser@BWEM@@@std@@@std@@@?$vector@V?$unique_ptr@VGeyser@BWEM@@U?$default_delete@VGeyser@BWEM@@@std@@@std@@V?$allocator@V?$unique_ptr@VGeyser@BWEM@@U?$default_delete@VGeyser@BWEM@@@std@@@std@@@2@@std@@QAEPAV?$unique_ptr@VGeyser@BWEM@@U?$default_delete@VGeyser@BWEM@@@std@@@1@QAV21@$$QAV21@@Z 00427670 f i mapImpl.obj
 0001:00026820       ??$_Emplace_reallocate@V?$unique_ptr@VMineral@BWEM@@U?$default_delete@VMineral@BWEM@@@std@@@std@@@?$vector@V?$unique_ptr@VMineral@BWEM@@U?$default_delete@VMineral@BWEM@@@std@@@std@@V?$allocator@V?$unique_ptr@VMineral@BWEM@@U?$default_delete@VMineral@BWEM@@@std@@@std@@@2@@std@@QAEPAV?$unique_ptr@VMineral@BWEM@@U?$default_delete@VMineral@BWEM@@@std@@@1@QAV21@$$QAV21@@Z 00427820 f i mapImpl.obj
 0001:000269d0       ??$_Destroy_range@V?$allocator@V?$unique_ptr@VGeyser@BWEM@@U?$default_delete@VGeyser@BWEM@@@std@@@std@@@std@@@std@@YAXPAV?$unique_ptr@VGeyser@BWEM@@U?$default_delete@VGeyser@BWEM@@@std@@@0@QAV10@AAV?$allocator@V?$unique_ptr@VGeyser@BWEM@@U?$default_delete@VGeyser@BWEM@@@std@@@std@@@0@@Z 004279d0 f i mapImpl.obj
 0001:00026a10       ?_Ufill@?$vector@VTile@BWEM@@V?$allocator@VTile@BWEM@@@std@@@std@@AAEPAVTile@BWEM@@PAV34@IU_Value_init_tag@2@@Z 00427a10 f i mapImpl.obj
 0001:00026a70       ??$BreadthFirstSearch@V?$Point@H$0CA@@BWAPI@@V<lambda_eb94171b345e128f80af273dec74f018>@@V<lambda_e1f777ee43d2c33774b2e98e34192e33>@@@Map@BWEM@@QBE?AV?$Point@H$0CA@@BWAPI@@V23@V<lambda_eb94171b345e128f80af273dec74f018>@@V<lambda_e1f777ee43d2c33774b2e98e34192e33>@@_N@Z 00427a70 f i mapImpl.obj
 0001:00027250       ??$_Resize_reallocate@U_Value_init_tag@std@@@?$vector@VMiniTile@BWEM@@V?$allocator@VMiniTile@BWEM@@@std@@@std@@AAEXIABU_Value_init_tag@1@@Z 00428250 f i mapImpl.obj
 0001:00027390       ??$_Resize_reallocate@U_Value_init_tag@std@@@?$vector@VTile@BWEM@@V?$allocator@VTile@BWEM@@@std@@@std@@AAEXIABU_Value_init_tag@1@@Z 00428390 f i mapImpl.obj
 0001:00027f50       ___scrt_exe_initialize_mta 00428f50 f i MSVCRT:utility_desktop.obj
 0001:00027f50       ?IsGeyser@Neutral@BWEM@@UAEPAVGeyser@2@XZ 00428f50 f i neutral.obj
 0001:00027f50       ?IsMineral@Neutral@BWEM@@UBEPBVMineral@2@XZ 00428f50 f i neutral.obj
 0001:00027f50       ?IsStaticBuilding@Neutral@BWEM@@UBEPBVStaticBuilding@2@XZ 00428f50 f i neutral.obj
 0001:00027f50       ?IsMineral@Neutral@BWEM@@UAEPAVMineral@2@XZ 00428f50 f i neutral.obj
 0001:00027f50       ?IsStaticBuilding@Neutral@BWEM@@UAEPAVStaticBuilding@2@XZ 00428f50 f i neutral.obj
 0001:00027f50       ?IsRessource@Neutral@BWEM@@UAEPAVRessource@2@XZ 00428f50 f i neutral.obj
 0001:00027f50       ___scrt_initialize_winrt   00428f50 f i MSVCRT:utility_desktop.obj
 0001:00027f50       __get_startup_new_mode     00428f50 f i MSVCRT:new_mode.obj
 0001:00027f50       ___scrt_stub_for_initialize_mta 00428f50 f i MSVCRT:utility_desktop.obj
 0001:00027f50       __get_startup_thread_locale_mode 00428f50 f i MSVCRT:thread_locale.obj
 0001:00027f50       __get_startup_commit_mode  00428f50 f i MSVCRT:commit_mode.obj
 0001:00027f50       ?IsRessource@Neutral@BWEM@@UBEPBVRessource@2@XZ 00428f50 f i neutral.obj
 0001:00027f50       ?IsGeyser@Neutral@BWEM@@UBEPBVGeyser@2@XZ 00428f50 f i neutral.obj
 0001:00027f50       ?getLastEventTime@GameImpl@BWAPI@@UBEHXZ 00428f50 f i BWAPIClient:GameImpl.obj
 0001:00027f50       __matherr                  00428f50 f i MSVCRT:matherr.obj
 0001:00027f60       ?size@?$Vec@VActionInProgress@BOSS@@$0DC@@BOSS@@QBEABIXZ 00428f60 f i BOSS:ActionInProgress.obj
 0001:00027f60       ?_Getal@?$_Tree@V?$_Tmap_traits@PAVPlayerInterface@BWAPI@@_NU?$less@PAVPlayerInterface@BWAPI@@@std@@V?$allocator@U?$pair@QAVPlayerInterface@BWAPI@@_N@std@@@4@$0A@@std@@@std@@IAEAAV?$allocator@U?$_Tree_node@U?$pair@QAVPlayerInterface@BWAPI@@_N@std@@PAX@std@@@2@XZ 00428f60 f i BaseLocation.obj
 0001:00027f60       ?IsStaticBuilding@StaticBuilding@BWEM@@UBEPBV12@XZ 00428f60 f i neutral.obj
 0001:00027f60       ?size@?$Vec@VActionType@BOSS@@$0GE@@BOSS@@QBEABIXZ 00428f60 f i BOSS:ActionSet.obj
 0001:00027f60       ?IsGeyser@Geyser@BWEM@@UBEPBV12@XZ 00428f60 f i neutral.obj
 0001:00027f60       ?_Getal@?$_Tree@V?$_Tmap_traits@PAVUnitInterface@BWAPI@@_NU?$less@PAVUnitInterface@BWAPI@@@std@@V?$allocator@U?$pair@QAVUnitInterface@BWAPI@@_N@std@@@4@$0A@@std@@@std@@IAEAAV?$allocator@U?$_Tree_node@U?$pair@QAVUnitInterface@BWAPI@@_N@std@@PAX@std@@@2@XZ 00428f60 f i DetectorManager.obj
 0001:00027f60       ?IsGeyser@Geyser@BWEM@@UAEPAV12@XZ 00428f60 f i neutral.obj
 0001:00027f60       ?size@?$Vec@H$0EA@@BOSS@@QBEABIXZ 00428f60 f i BOSS:DFBB_BuildOrderSearchParameters.obj
 0001:00027f60       ?IsMineral@Mineral@BWEM@@UBEPBV12@XZ 00428f60 f i neutral.obj
 0001:00027f60       ?_Getal@?$_Tree@V?$_Tmap_traits@HPAXU?$less@H@std@@V?$allocator@U?$pair@$$CBHPAX@std@@@2@$0A@@std@@@std@@IAEAAV?$allocator@U?$_Tree_node@U?$pair@$$CBHPAX@std@@PAX@std@@@2@XZ 00428f60 f i BWAPILIB:Unitset.obj
 0001:00027f60       ?size@?$Vec@VActionCountPair@BOSS@@$0GE@@BOSS@@QBEABIXZ 00428f60 f i BOSS:PrerequisiteSet.obj
 0001:00027f60       ?IsRessource@Ressource@BWEM@@UBEPBV12@XZ 00428f60 f i neutral.obj
 0001:00027f60       ?IsRessource@Ressource@BWEM@@UAEPAV12@XZ 00428f60 f i neutral.obj
 0001:00027f60       ?_Getal@?$_Tree@V?$_Tmap_traits@VUnitType@BWAPI@@HU?$less@VUnitType@BWAPI@@@std@@V?$allocator@U?$pair@$$CBVUnitType@BWAPI@@H@std@@@4@$0A@@std@@@std@@IAEAAV?$allocator@U?$_Tree_node@U?$pair@$$CBVUnitType@BWAPI@@H@std@@PAX@std@@@2@XZ 00428f60 f i BWAPILIB:UnitType.obj
 0001:00027f60       ?size@?$Vec@VBuildingStatus@BOSS@@$0EG@@BOSS@@QBEABIXZ 00428f60 f i BOSS:BuildingData.obj
 0001:00027f60       ?size@?$Vec@VHatchery@BOSS@@$09@BOSS@@QBEABIXZ 00428f60 f i BOSS:HatcheryData.obj
 0001:00027f60       ?IsMineral@Mineral@BWEM@@UAEPAV12@XZ 00428f60 f i neutral.obj
 0001:00027f60       ?IsStaticBuilding@StaticBuilding@BWEM@@UAEPAV12@XZ 00428f60 f i neutral.obj
 0001:00027f70       ??0Neutral@BWEM@@IAE@PAVUnitInterface@BWAPI@@PAVMap@1@@Z 00428f70 f   neutral.obj
 0001:000280d0       ??1Neutral@BWEM@@IAE@XZ    004290d0 f   neutral.obj
 0001:00028150       ?RemoveFromTiles@Neutral@BWEM@@AAEXXZ 00429150 f   neutral.obj
 0001:00028210       ?BlockedAreas@Neutral@BWEM@@QBE?AV?$vector@PBVArea@BWEM@@V?$allocator@PBVArea@BWEM@@@std@@@std@@XZ 00429210 f   neutral.obj
 0001:000282d0       ?_Clear_and_reserve_geometric@?$vector@V?$Point@H$07@BWAPI@@V?$allocator@V?$Point@H$07@BWAPI@@@std@@@std@@AAEXI@Z 004292d0 f i neutral.obj
 0001:000282d0       ?_Clear_and_reserve_geometric@?$vector@V?$Point@H$00@BWAPI@@V?$allocator@V?$Point@H$00@BWAPI@@@std@@@std@@AAEXI@Z 004292d0 f i SquadData.obj
 0001:00028380       ??0bad_cast@std@@QAE@XZ    00429380 f i utils.obj
 0001:000283a0       ?_Throw_bad_cast@std@@YAXXZ 004293a0 f i utils.obj
 0001:000283c0       ??0bad_cast@std@@QAE@ABV01@@Z 004293c0 f i utils.obj
 0001:00028400       ??1locale@std@@QAE@XZ      00429400 f i utils.obj
 0001:00028420       ??_D?$basic_ofstream@DU?$char_traits@D@std@@@std@@QAEXXZ 00429420 f i utils.obj
 0001:000284e0       ?imbue@?$basic_filebuf@DU?$char_traits@D@std@@@std@@MAEXABVlocale@2@@Z 004294e0 f i utils.obj
 0001:00028520       ?sync@?$basic_filebuf@DU?$char_traits@D@std@@@std@@MAEHXZ 00429520 f i utils.obj
 0001:00028550       ?setbuf@?$basic_filebuf@DU?$char_traits@D@std@@@std@@MAEPAV?$basic_streambuf@DU?$char_traits@D@std@@@2@PAD_J@Z 00429550 f i utils.obj
 0001:00028620       ?seekpos@?$basic_filebuf@DU?$char_traits@D@std@@@std@@MAE?AV?$fpos@U_Mbstatet@@@2@V32@H@Z 00429620 f i utils.obj
 0001:000286f0       ?seekoff@?$basic_filebuf@DU?$char_traits@D@std@@@std@@MAE?AV?$fpos@U_Mbstatet@@@2@_JHH@Z 004296f0 f i utils.obj
 0001:00028800       ?xsputn@?$basic_filebuf@DU?$char_traits@D@std@@@std@@MAE_JPBD_J@Z 00429800 f i utils.obj
 0001:000288f0       ?xsgetn@?$basic_filebuf@DU?$char_traits@D@std@@@std@@MAE_JPAD_J@Z 004298f0 f i utils.obj
 0001:00028a20       ?uflow@?$basic_filebuf@DU?$char_traits@D@std@@@std@@MAEHXZ 00429a20 f i utils.obj
 0001:00028c40       ?underflow@?$basic_filebuf@DU?$char_traits@D@std@@@std@@MAEHXZ 00429c40 f i utils.obj
 0001:00028c80       ?pbackfail@?$basic_filebuf@DU?$char_traits@D@std@@@std@@MAEHH@Z 00429c80 f i utils.obj
 0001:00028d30       ?overflow@?$basic_filebuf@DU?$char_traits@D@std@@@std@@MAEHH@Z 00429d30 f i utils.obj
 0001:00028e80       ?_Unlock@?$basic_filebuf@DU?$char_traits@D@std@@@std@@UAEXXZ 00429e80 f i utils.obj
 0001:00028e90       ?_Lock@?$basic_filebuf@DU?$char_traits@D@std@@@std@@UAEXXZ 00429e90 f i utils.obj
 0001:00028ea0       ??1?$basic_filebuf@DU?$char_traits@D@std@@@std@@UAE@XZ 00429ea0 f i utils.obj
 0001:00028f20       ??0?$basic_string@DU?$char_traits@D@std@@V?$allocator@D@2@@std@@QAE@XZ 00429f20 f i utils.obj
 0001:00028f40       ??_E?$basic_filebuf@DU?$char_traits@D@std@@@std@@UAEPAXI@Z 00429f40 f i * CIL library *:* CIL module *
 0001:00028f40       ??_G?$basic_filebuf@DU?$char_traits@D@std@@@std@@UAEPAXI@Z 00429f40 f i utils.obj
 0001:00028fe0       ??_E?$basic_ofstream@DU?$char_traits@D@std@@@std@@UAEPAXI@Z 00429fe0 f i * CIL library *:* CIL module *
 0001:00028fe0       ??_G?$basic_ofstream@DU?$char_traits@D@std@@@std@@UAEPAXI@Z 00429fe0 f i utils.obj
 0001:00029010       ?_Endwrite@?$basic_filebuf@DU?$char_traits@D@std@@@std@@IAE_NXZ 0042a010 f i utils.obj
 0001:000290e0       ?close@?$basic_filebuf@DU?$char_traits@D@std@@@std@@QAEPAV12@XZ 0042a0e0 f i utils.obj
 0001:00029140       ??0?$basic_ofstream@DU?$char_traits@D@std@@@std@@QAE@PBDHH@Z 0042a140 f i utils.obj
 0001:00029250       ?push_back@?$basic_string@DU?$char_traits@D@std@@V?$allocator@D@2@@std@@QAEXD@Z 0042a250 f i utils.obj
 0001:00029360       ?open@?$basic_filebuf@DU?$char_traits@D@std@@@std@@QAEPAV12@PBDHH@Z 0042a360 f i utils.obj
 0001:000294a0       ?_Xran@?$_String_val@U?$_Simple_types@D@std@@@std@@SAXXZ 0042a4a0 f i utils.obj
 0001:000294b0       ??$use_facet@V?$codecvt@DDU_Mbstatet@@@std@@@std@@YAABV?$codecvt@DDU_Mbstatet@@@0@ABVlocale@0@@Z 0042a4b0 f i utils.obj
 0001:000295a0       ??1?$unique_ptr@V_Facet_base@std@@U?$default_delete@V_Facet_base@std@@@2@@std@@QAE@XZ 0042a5a0 f i utils.obj
 0001:000295ad       ??_E?$basic_ofstream@DU?$char_traits@D@std@@@std@@$4PPPPPPPM@A@AEPAXI@Z 0042a5ad f i utils.obj
 0001:000295c0       ?onFrame@AutoObserver@UAlbertaBot@@QAEXXZ 0042a5c0 f   AutoObserver.obj
 0001:00029870       ??1?$vector@V?$basic_string@DU?$char_traits@D@std@@V?$allocator@D@2@@std@@V?$allocator@V?$basic_string@DU?$char_traits@D@std@@V?$allocator@D@2@@std@@@2@@std@@QAE@XZ 0042a870 f i AutoObserver.obj
 0001:000298f0       ??$_Destroy_range@V?$allocator@V?$basic_string@DU?$char_traits@D@std@@V?$allocator@D@2@@std@@@std@@@std@@YAXPAV?$basic_string@DU?$char_traits@D@std@@V?$allocator@D@2@@0@QAV10@AAV?$allocator@V?$basic_string@DU?$char_traits@D@std@@V?$allocator@D@2@@std@@@0@@Z 0042a8f0 f i AutoObserver.obj
 0001:00029960       ??$_Erase_tree@V?$allocator@U?$_Tree_node@U?$pair@$$CBV?$basic_string@DU?$char_traits@D@std@@V?$allocator@D@2@@std@@H@std@@PAX@std@@@std@@@?$_Tree_val@U?$_Tree_simple_types@U?$pair@$$CBV?$basic_string@DU?$char_traits@D@std@@V?$allocator@D@2@@std@@H@std@@@std@@@std@@QAEXAAV?$allocator@U?$_Tree_node@U?$pair@$$CBV?$basic_string@DU?$char_traits@D@std@@V?$allocator@D@2@@std@@H@std@@PAX@std@@@1@PAU?$_Tree_node@U?$pair@$$CBV?$basic_string@DU?$char_traits@D@std@@V?$allocator@D@2@@std@@H@std@@PAX@1@@Z 0042a960 f i AutoObserver.obj
 0001:000299f0       ??0BaseLocation@UAlbertaBot@@QAE@HABV?$vector@PAVUnitInterface@BWAPI@@V?$allocator@PAVUnitInterface@BWAPI@@@std@@@std@@@Z 0042a9f0 f   BaseLocation.obj
 0001:0002a0f0       ??1DistanceMap@UAlbertaBot@@QAE@XZ 0042b0f0 f i BaseLocation.obj
 0001:0002a110       ??1?$set@V?$Point@H$00@BWAPI@@U?$less@V?$Point@H$00@BWAPI@@@std@@V?$allocator@V?$Point@H$00@BWAPI@@@4@@std@@QAE@XZ 0042b110 f i TransportManager.obj
 0001:0002a110       ??1?$map@PAVPlayerInterface@BWAPI@@_NU?$less@PAVPlayerInterface@BWAPI@@@std@@V?$allocator@U?$pair@QAVPlayerInterface@BWAPI@@_N@std@@@4@@std@@QAE@XZ 0042b110 f i BaseLocation.obj
 0001:0002a110       ??1?$map@PAVUnitInterface@BWAPI@@PAV12@U?$less@PAVUnitInterface@BWAPI@@@std@@V?$allocator@U?$pair@QAVUnitInterface@BWAPI@@PAV12@@std@@@4@@std@@QAE@XZ 0042b110 f i Global.obj
 0001:0002a110       ??1?$map@PAVUnitInterface@BWAPI@@HU?$less@PAVUnitInterface@BWAPI@@@std@@V?$allocator@U?$pair@QAVUnitInterface@BWAPI@@H@std@@@4@@std@@QAE@XZ 0042b110 f i CorsairManager.obj
 0001:0002a110       ??1?$map@PAVUnitInterface@BWAPI@@W4WorkerJob@WorkerData@UAlbertaBot@@U?$less@PAVUnitInterface@BWAPI@@@std@@V?$allocator@U?$pair@QAVUnitInterface@BWAPI@@W4WorkerJob@WorkerData@UAlbertaBot@@@std@@@7@@std@@QAE@XZ 0042b110 f i Global.obj
 0001:0002a110       ??1?$map@PAVPlayerInterface@BWAPI@@PBVBaseLocation@UAlbertaBot@@U?$less@PAVPlayerInterface@BWAPI@@@std@@V?$allocator@U?$pair@QAVPlayerInterface@BWAPI@@PBVBaseLocation@UAlbertaBot@@@std@@@6@@std@@QAE@XZ 0042b110 f i BaseLocationManager.obj
 0001:0002a110       ??1?$map@PAVUnitInterface@BWAPI@@VUnitType@2@U?$less@PAVUnitInterface@BWAPI@@@std@@V?$allocator@U?$pair@QAVUnitInterface@BWAPI@@VUnitType@2@@std@@@5@@std@@QAE@XZ 0042b110 f i Global.obj
 0001:0002a130       ??4DistanceMap@UAlbertaBot@@QAEAAV01@$$QAV01@@Z 0042b130 f i BaseLocation.obj
 0001:0002a1e0       ??1?$Grid2D@H@@QAE@XZ      0042b1e0 f i BaseLocationManager.obj
 0001:0002a1e0       ??1?$Grid@H@UAlbertaBot@@QAE@XZ 0042b1e0 f i BaseLocation.obj
 0001:0002a1e0       ??1BuildingPlacerManager@UAlbertaBot@@QAE@XZ 0042b1e0 f i BuildingManager.obj
 0001:0002a1f0       ?setPlayerOccupying@BaseLocation@UAlbertaBot@@QAEXPAVPlayerInterface@BWAPI@@_N@Z 0042b1f0 f   BaseLocation.obj
 0001:0002a260       ?getClosestTiles@BaseLocation@UAlbertaBot@@QBE?BV?$vector@V?$Point@H$0CA@@BWAPI@@V?$allocator@V?$Point@H$0CA@@BWAPI@@@std@@@std@@H@Z 0042b260 f   BaseLocation.obj
 0001:0002a340       ?draw@BaseLocation@UAlbertaBot@@QAEXXZ 0042b340 f   BaseLocation.obj
 0001:0002b1b0       ??_D?$basic_stringstream@DU?$char_traits@D@std@@V?$allocator@D@2@@std@@QAEXXZ 0042c1b0 f i BaseLocation.obj
 0001:0002b200       ?str@?$basic_stringstream@DU?$char_traits@D@std@@V?$allocator@D@2@@std@@QBE?AV?$basic_string@DU?$char_traits@D@std@@V?$allocator@D@2@@2@XZ 0042c200 f i BaseLocation.obj
 0001:0002b220       ??0?$basic_stringstream@DU?$char_traits@D@std@@V?$allocator@D@2@@std@@QAE@XZ 0042c220 f i BaseLocation.obj
 0001:0002b2e0       ??A?$map@PAVPlayerInterface@BWAPI@@_NU?$less@PAVPlayerInterface@BWAPI@@@std@@V?$allocator@U?$pair@QAVPlayerInterface@BWAPI@@_N@std@@@4@@std@@QAEAA_NABQAVPlayerInterface@BWAPI@@@Z 0042c2e0 f i BaseLocation.obj
 0001:0002b3a0       ??A?$map@PAVPlayerInterface@BWAPI@@_NU?$less@PAVPlayerInterface@BWAPI@@@std@@V?$allocator@U?$pair@QAVPlayerInterface@BWAPI@@_N@std@@@4@@std@@QAEAA_N$$QAPAVPlayerInterface@BWAPI@@@Z 0042c3a0 f i BaseLocation.obj
 0001:0002b460       ?seekpos@?$basic_stringbuf@DU?$char_traits@D@std@@V?$allocator@D@2@@std@@MAE?AV?$fpos@U_Mbstatet@@@2@V32@H@Z 0042c460 f i BaseLocation.obj
 0001:0002b570       ?seekoff@?$basic_stringbuf@DU?$char_traits@D@std@@V?$allocator@D@2@@std@@MAE?AV?$fpos@U_Mbstatet@@@2@_JHH@Z 0042c570 f i BaseLocation.obj
 0001:0002b700       ?underflow@?$basic_stringbuf@DU?$char_traits@D@std@@V?$allocator@D@2@@std@@MAEHXZ 0042c700 f i BaseLocation.obj
 0001:0002b760       ?pbackfail@?$basic_stringbuf@DU?$char_traits@D@std@@V?$allocator@D@2@@std@@MAEHH@Z 0042c760 f i BaseLocation.obj
 0001:0002b7c0       ?overflow@?$basic_stringbuf@DU?$char_traits@D@std@@V?$allocator@D@2@@std@@MAEHH@Z 0042c7c0 f i BaseLocation.obj
 0001:0002b930       ??_G?$basic_stringstream@DU?$char_traits@D@std@@V?$allocator@D@2@@std@@UAEPAXI@Z 0042c930 f i BaseLocation.obj
 0001:0002b930       ??_E?$basic_stringstream@DU?$char_traits@D@std@@V?$allocator@D@2@@std@@UAEPAXI@Z 0042c930 f i * CIL library *:* CIL module *
 0001:0002b9a0       ??_G?$basic_stringbuf@DU?$char_traits@D@std@@V?$allocator@D@2@@std@@UAEPAXI@Z 0042c9a0 f i BaseLocation.obj
 0001:0002b9a0       ??_E?$basic_stringbuf@DU?$char_traits@D@std@@V?$allocator@D@2@@std@@UAEPAXI@Z 0042c9a0 f i * CIL library *:* CIL module *
 0001:0002b9e0       ?_Tidy@?$basic_stringbuf@DU?$char_traits@D@std@@V?$allocator@D@2@@std@@IAEXXZ 0042c9e0 f i BaseLocation.obj
 0001:0002ba80       ?str@?$basic_stringbuf@DU?$char_traits@D@std@@V?$allocator@D@2@@std@@QBE?AV?$basic_string@DU?$char_traits@D@std@@V?$allocator@D@2@@2@XZ 0042ca80 f i BaseLocation.obj
 0001:0002bb60       ??$_Find_lower_bound@PAVUnitInterface@BWAPI@@@?$_Tree@V?$_Tmap_traits@PAVUnitInterface@BWAPI@@W4WorkerJob@WorkerData@UAlbertaBot@@U?$less@PAVUnitInterface@BWAPI@@@std@@V?$allocator@U?$pair@QAVUnitInterface@BWAPI@@W4WorkerJob@WorkerData@UAlbertaBot@@@std@@@7@$0A@@std@@@std@@IBE?AU?$_Tree_find_result@PAU?$_Tree_node@U?$pair@QAVUnitInterface@BWAPI@@W4WorkerJob@WorkerData@UAlbertaBot@@@std@@PAX@std@@@1@ABQAVUnitInterface@BWAPI@@@Z 0042cb60 f i WorkerData.obj
 0001:0002bb60       ??$_Find_lower_bound@PAVUnitInterface@BWAPI@@@?$_Tree@V?$_Tmap_traits@PAVUnitInterface@BWAPI@@VWorkerMoveData@UAlbertaBot@@U?$less@PAVUnitInterface@BWAPI@@@std@@V?$allocator@U?$pair@QAVUnitInterface@BWAPI@@VWorkerMoveData@UAlbertaBot@@@std@@@6@$0A@@std@@@std@@IBE?AU?$_Tree_find_result@PAU?$_Tree_node@U?$pair@QAVUnitInterface@BWAPI@@VWorkerMoveData@UAlbertaBot@@@std@@PAX@std@@@1@ABQAVUnitInterface@BWAPI@@@Z 0042cb60 f i WorkerData.obj
 0001:0002bb60       ??$_Find_lower_bound@PAVPlayerInterface@BWAPI@@@?$_Tree@V?$_Tmap_traits@PAVPlayerInterface@BWAPI@@V?$set@PBVBaseLocation@UAlbertaBot@@U?$less@PBVBaseLocation@UAlbertaBot@@@std@@V?$allocator@PBVBaseLocation@UAlbertaBot@@@4@@std@@U?$less@PAVPlayerInterface@BWAPI@@@4@V?$allocator@U?$pair@QAVPlayerInterface@BWAPI@@V?$set@PBVBaseLocation@UAlbertaBot@@U?$less@PBVBaseLocation@UAlbertaBot@@@std@@V?$allocator@PBVBaseLocation@UAlbertaBot@@@4@@std@@@std@@@4@$0A@@std@@@std@@IBE?AU?$_Tree_find_result@PAU?$_Tree_node@U?$pair@QAVPlayerInterface@BWAPI@@V?$set@PBVBaseLocation@UAlbertaBot@@U?$less@PBVBaseLocation@UAlbertaBot@@@std@@V?$allocator@PBVBaseLocation@UAlbertaBot@@@4@@std@@@std@@PAX@std@@@1@ABQAVPlayerInterface@BWAPI@@@Z 0042cb60 f i BaseLocationManager.obj
 0001:0002bb60       ??$_Find_lower_bound@PAVPlayerInterface@BWAPI@@@?$_Tree@V?$_Tmap_traits@PAVPlayerInterface@BWAPI@@_NU?$less@PAVPlayerInterface@BWAPI@@@std@@V?$allocator@U?$pair@QAVPlayerInterface@BWAPI@@_N@std@@@4@$0A@@std@@@std@@IBE?AU?$_Tree_find_result@PAU?$_Tree_node@U?$pair@QAVPlayerInterface@BWAPI@@_N@std@@PAX@std@@@1@ABQAVPlayerInterface@BWAPI@@@Z 0042cb60 f i BaseLocation.obj
 0001:0002bb60       ??$_Find_lower_bound@PAVUnitInterface@BWAPI@@@?$_Tree@V?$_Tmap_traits@PAVUnitInterface@BWAPI@@PAV12@U?$less@PAVUnitInterface@BWAPI@@@std@@V?$allocator@U?$pair@QAVUnitInterface@BWAPI@@PAV12@@std@@@4@$0A@@std@@@std@@IBE?AU?$_Tree_find_result@PAU?$_Tree_node@U?$pair@QAVUnitInterface@BWAPI@@PAV12@@std@@PAX@std@@@1@ABQAVUnitInterface@BWAPI@@@Z 0042cb60 f i WorkerData.obj
 0001:0002bb60       ??$_Find_lower_bound@PAVUnitInterface@BWAPI@@@?$_Tree@V?$_Tmap_traits@PAVUnitInterface@BWAPI@@HU?$less@PAVUnitInterface@BWAPI@@@std@@V?$allocator@U?$pair@QAVUnitInterface@BWAPI@@H@std@@@4@$0A@@std@@@std@@IBE?AU?$_Tree_find_result@PAU?$_Tree_node@U?$pair@QAVUnitInterface@BWAPI@@H@std@@PAX@std@@@1@ABQAVUnitInterface@BWAPI@@@Z 0042cb60 f i CorsairManager.obj
 0001:0002bb60       ??$_Find_lower_bound@PAVPlayerInterface@BWAPI@@@?$_Tree@V?$_Tmap_traits@PAVPlayerInterface@BWAPI@@PBVBaseLocation@UAlbertaBot@@U?$less@PAVPlayerInterface@BWAPI@@@std@@V?$allocator@U?$pair@QAVPlayerInterface@BWAPI@@PBVBaseLocation@UAlbertaBot@@@std@@@6@$0A@@std@@@std@@IBE?AU?$_Tree_find_result@PAU?$_Tree_node@U?$pair@QAVPlayerInterface@BWAPI@@PBVBaseLocation@UAlbertaBot@@@std@@PAX@std@@@1@ABQAVPlayerInterface@BWAPI@@@Z 0042cb60 f i BaseLocationManager.obj
 0001:0002bb60       ??$_Find_lower_bound@PAVUnitInterface@BWAPI@@@?$_Tree@V?$_Tmap_traits@PAVUnitInterface@BWAPI@@UUnitInfo@UAlbertaBot@@U?$less@PAVUnitInterface@BWAPI@@@std@@V?$allocator@U?$pair@QAVUnitInterface@BWAPI@@UUnitInfo@UAlbertaBot@@@std@@@6@$0A@@std@@@std@@IBE?AU?$_Tree_find_result@PAU?$_Tree_node@U?$pair@QAVUnitInterface@BWAPI@@UUnitInfo@UAlbertaBot@@@std@@PAX@std@@@1@ABQAVUnitInterface@BWAPI@@@Z 0042cb60 f i UnitData.obj
 0001:0002bb60       ??$_Find_lower_bound@PAVPlayerInterface@BWAPI@@@?$_Tree@V?$_Tmap_traits@PAVPlayerInterface@BWAPI@@VUnitData@UAlbertaBot@@U?$less@PAVPlayerInterface@BWAPI@@@std@@V?$allocator@U?$pair@QAVPlayerInterface@BWAPI@@VUnitData@UAlbertaBot@@@std@@@6@$0A@@std@@@std@@IBE?AU?$_Tree_find_result@PAU?$_Tree_node@U?$pair@QAVPlayerInterface@BWAPI@@VUnitData@UAlbertaBot@@@std@@PAX@std@@@1@ABQAVPlayerInterface@BWAPI@@@Z 0042cb60 f i InformationManager.obj
 0001:0002bbab       ??_E?$basic_stringstream@DU?$char_traits@D@std@@V?$allocator@D@2@@std@@$4PPPPPPPM@A@AEPAXI@Z 0042cbab f i BaseLocation.obj
 0001:0002bbc0       ?resourceDistanceBFS@BaseBorderFinder@@AAEXHH@Z 0042cbc0 f i BaseLocationManager.obj
 0001:0002bd30       ?resourceClusterFormationBFS@BaseBorderFinder@@AAE?AUCluster@@HHH@Z 0042cd30 f i BaseLocationManager.obj
 0001:0002bfd0       ?computeBases@BaseBorderFinder@@QAEXABVStarDraftMap@@@Z 0042cfd0 f i BaseLocationManager.obj
 0001:0002c2c0       ??1Cluster@@QAE@XZ         0042d2c0 f i BaseLocationManager.obj
 0001:0002c2e0       ??0Cluster@@QAE@$$QAU0@@Z  0042d2e0 f i BaseLocationManager.obj
 0001:0002c370       ??0BaseLocationManager@UAlbertaBot@@AAE@XZ 0042d370 f   BaseLocationManager.obj
 0001:0002c580       ??1BaseBorderFinder@@QAE@XZ 0042d580 f i BaseLocationManager.obj
 0001:0002c5c0       ??1?$map@PAVPlayerInterface@BWAPI@@V?$set@PBVBaseLocation@UAlbertaBot@@U?$less@PBVBaseLocation@UAlbertaBot@@@std@@V?$allocator@PBVBaseLocation@UAlbertaBot@@@4@@std@@U?$less@PAVPlayerInterface@BWAPI@@@4@V?$allocator@U?$pair@QAVPlayerInterface@BWAPI@@V?$set@PBVBaseLocation@UAlbertaBot@@U?$less@PBVBaseLocation@UAlbertaBot@@@std@@V?$allocator@PBVBaseLocation@UAlbertaBot@@@4@@std@@@std@@@4@@std@@QAE@XZ 0042d5c0 f i BaseLocationManager.obj
 0001:0002c5e0       ?onStart@BaseLocationManager@UAlbertaBot@@QAEXXZ 0042d5e0 f   BaseLocationManager.obj
 0001:0002cf40       ??4BaseBorderFinder@@QAEAAV0@$$QAV0@@Z 0042df40 f i BaseLocationManager.obj
 0001:0002d0c0       ??1BaseLocation@UAlbertaBot@@QAE@XZ 0042e0c0 f i BaseLocationManager.obj
 0001:0002d140       ??1?$set@PBVBaseLocation@UAlbertaBot@@U?$less@PBVBaseLocation@UAlbertaBot@@@std@@V?$allocator@PBVBaseLocation@UAlbertaBot@@@4@@std@@QAE@XZ 0042e140 f i BaseLocationManager.obj
 0001:0002d160       ?onFrame@BaseLocationManager@UAlbertaBot@@QAEXXZ 0042e160 f   BaseLocationManager.obj
 0001:0002d8a0       ?drawBaseLocations@BaseLocationManager@UAlbertaBot@@QAEXXZ 0042e8a0 f   BaseLocationManager.obj
 0001:0002d960       ?getNextExpansion@BaseLocationManager@UAlbertaBot@@QBE?AV?$Point@H$0CA@@BWAPI@@PAVPlayerInterface@4@@Z 0042e960 f   BaseLocationManager.obj
 0001:0002df50       ??1?$vector@V?$vector@PAVBaseLocation@UAlbertaBot@@V?$allocator@PAVBaseLocation@UAlbertaBot@@@std@@@std@@V?$allocator@V?$vector@PAVBaseLocation@UAlbertaBot@@V?$allocator@PAVBaseLocation@UAlbertaBot@@@std@@@std@@@2@@std@@QAE@XZ 0042ef50 f i BaseLocationManager.obj
 0001:0002df60       ??A?$map@PAVPlayerInterface@BWAPI@@V?$set@PBVBaseLocation@UAlbertaBot@@U?$less@PBVBaseLocation@UAlbertaBot@@@std@@V?$allocator@PBVBaseLocation@UAlbertaBot@@@4@@std@@U?$less@PAVPlayerInterface@BWAPI@@@4@V?$allocator@U?$pair@QAVPlayerInterface@BWAPI@@V?$set@PBVBaseLocation@UAlbertaBot@@U?$less@PBVBaseLocation@UAlbertaBot@@@std@@V?$allocator@PBVBaseLocation@UAlbertaBot@@@4@@std@@@std@@@4@@std@@QAEAAV?$set@PBVBaseLocation@UAlbertaBot@@U?$less@PBVBaseLocation@UAlbertaBot@@@std@@V?$allocator@PBVBaseLocation@UAlbertaBot@@@4@@1@$$QAPAVPlayerInterface@BWAPI@@@Z 0042ef60 f i BaseLocationManager.obj
 0001:0002e060       ??A?$map@PAVPlayerInterface@BWAPI@@PBVBaseLocation@UAlbertaBot@@U?$less@PAVPlayerInterface@BWAPI@@@std@@V?$allocator@U?$pair@QAVPlayerInterface@BWAPI@@PBVBaseLocation@UAlbertaBot@@@std@@@6@@std@@QAEAAPBVBaseLocation@UAlbertaBot@@$$QAPAVPlayerInterface@BWAPI@@@Z 0042f060 f i BaseLocationManager.obj
 0001:0002e060       ??A?$map@PAVUnitInterface@BWAPI@@HU?$less@PAVUnitInterface@BWAPI@@@std@@V?$allocator@U?$pair@QAVUnitInterface@BWAPI@@H@std@@@4@@std@@QAEAAHABQAVUnitInterface@BWAPI@@@Z 0042f060 f i CorsairManager.obj
 0001:0002e120       ??1?$vector@VBaseLocation@UAlbertaBot@@V?$allocator@VBaseLocation@UAlbertaBot@@@std@@@std@@QAE@XZ 0042f120 f i BaseLocationManager.obj
 0001:0002e1b0       ??1?$vector@UCluster@@V?$allocator@UCluster@@@std@@@std@@QAE@XZ 0042f1b0 f i BaseLocationManager.obj
 0001:0002e1c0       ??1?$vector@UDirection@BaseBorderFinder@@V?$allocator@UDirection@BaseBorderFinder@@@std@@@std@@QAE@XZ 0042f1c0 f i BaseLocationManager.obj
 0001:0002e1d0       ??0?$vector@UDirection@BaseBorderFinder@@V?$allocator@UDirection@BaseBorderFinder@@@std@@@std@@QAE@V?$initializer_list@UDirection@BaseBorderFinder@@@1@ABV?$allocator@UDirection@BaseBorderFinder@@@1@@Z 0042f1d0 f i BaseLocationManager.obj
 0001:0002e290       ??1?$vector@UBaseBorder@@V?$allocator@UBaseBorder@@@std@@@std@@QAE@XZ 0042f290 f i BaseLocationManager.obj
 0001:0002e2a0       ??0?$vector@HV?$allocator@H@std@@@std@@QAE@IABHABV?$allocator@H@1@@Z 0042f2a0 f i BaseLocationManager.obj
 0001:0002e2a0       ??0?$vector@IV?$allocator@I@std@@@std@@QAE@IABIABV?$allocator@I@1@@Z 0042f2a0 f i BOSS:NaiveBuildOrderSearch.obj
 0001:0002e340       ?_Tidy@?$vector@UCluster@@V?$allocator@UCluster@@@std@@@std@@AAEXXZ 0042f340 f i BaseLocationManager.obj
 0001:0002e3d0       ?_Tidy@?$vector@UBaseBorder@@V?$allocator@UBaseBorder@@@std@@@std@@AAEXXZ 0042f3d0 f i BaseLocationManager.obj
 0001:0002e430       ?_Reallocate_exactly@?$vector@UTile@@V?$allocator@UTile@@@std@@@std@@AAEXI@Z 0042f430 f i BaseLocationManager.obj
 0001:0002e4a0       ??0?$vector@V?$vector@HV?$allocator@H@std@@@std@@V?$allocator@V?$vector@HV?$allocator@H@std@@@std@@@2@@std@@QAE@IABV?$vector@HV?$allocator@H@std@@@1@ABV?$allocator@V?$vector@HV?$allocator@H@std@@@std@@@1@@Z 0042f4a0 f i BaseLocationManager.obj
 0001:0002e560       ?_Destroy@?$vector@VBaseLocation@UAlbertaBot@@V?$allocator@VBaseLocation@UAlbertaBot@@@std@@@std@@AAEXPAVBaseLocation@UAlbertaBot@@0@Z 0042f560 f i BaseLocationManager.obj
 0001:0002e590       ?deallocate@?$allocator@VBaseLocation@UAlbertaBot@@@std@@QAEXQAVBaseLocation@UAlbertaBot@@I@Z 0042f590 f i BaseLocationManager.obj
 0001:0002e5d0       ??$insert@$0A@$0A@@?$_Tree@V?$_Tset_traits@PBVBaseLocation@UAlbertaBot@@U?$less@PBVBaseLocation@UAlbertaBot@@@std@@V?$allocator@PBVBaseLocation@UAlbertaBot@@@4@$0A@@std@@@std@@QAE?AU?$pair@V?$_Tree_const_iterator@V?$_Tree_val@U?$_Tree_simple_types@PBVBaseLocation@UAlbertaBot@@@std@@@std@@@std@@_N@1@$$QAPBVBaseLocation@UAlbertaBot@@@Z 0042f5d0 f i BaseLocationManager.obj
 0001:0002e6c0       ??$_Emplace_reallocate@VBaseLocation@UAlbertaBot@@@?$vector@VBaseLocation@UAlbertaBot@@V?$allocator@VBaseLocation@UAlbertaBot@@@std@@@std@@QAEPAVBaseLocation@UAlbertaBot@@QAV23@$$QAV23@@Z 0042f6c0 f i BaseLocationManager.obj
 0001:0002e9a0       ??$_Emplace_reallocate@UCluster@@@?$vector@UCluster@@V?$allocator@UCluster@@@std@@@std@@QAEPAUCluster@@QAU2@$$QAU2@@Z 0042f9a0 f i BaseLocationManager.obj
 0001:0002ebb0       ??$_Emplace_reallocate@ABUBaseBorder@@@?$vector@UBaseBorder@@V?$allocator@UBaseBorder@@@std@@@std@@QAEPAUBaseBorder@@QAU2@ABU2@@Z 0042fbb0 f i BaseLocationManager.obj
 0001:0002ece0       ??$_Erase_tree@V?$allocator@U?$_Tree_node@VUnitType@BWAPI@@PAX@std@@@std@@@?$_Tree_val@U?$_Tree_simple_types@VUnitType@BWAPI@@@std@@@std@@QAEXAAV?$allocator@U?$_Tree_node@VUnitType@BWAPI@@PAX@std@@@1@PAU?$_Tree_node@VUnitType@BWAPI@@PAX@1@@Z 0042fce0 f i Config.obj
 0001:0002ece0       ??$_Erase_tree@V?$allocator@U?$_Tree_node@PBVBaseLocation@UAlbertaBot@@PAX@std@@@std@@@?$_Tree_val@U?$_Tree_simple_types@PBVBaseLocation@UAlbertaBot@@@std@@@std@@QAEXAAV?$allocator@U?$_Tree_node@PBVBaseLocation@UAlbertaBot@@PAX@std@@@1@PAU?$_Tree_node@PBVBaseLocation@UAlbertaBot@@PAX@1@@Z 0042fce0 f i BaseLocationManager.obj
 0001:0002ed20       ??0BaseLocation@UAlbertaBot@@QAE@$$QAV01@@Z 0042fd20 f i BaseLocationManager.obj
 0001:0002ef90       ??1?$_Tidy_guard@V?$vector@V?$vector@HV?$allocator@H@std@@@std@@V?$allocator@V?$vector@HV?$allocator@H@std@@@std@@@2@@std@@@std@@QAE@XZ 0042ff90 f i BaseLocationManager.obj
 0001:0002ef90       ??1?$_Tidy_guard@V?$vector@V?$vector@PAVBaseLocation@UAlbertaBot@@V?$allocator@PAVBaseLocation@UAlbertaBot@@@std@@@std@@V?$allocator@V?$vector@PAVBaseLocation@UAlbertaBot@@V?$allocator@PAVBaseLocation@UAlbertaBot@@@std@@@std@@@2@@std@@@std@@QAE@XZ 0042ff90 f i BaseLocationManager.obj
 0001:0002efa0       ?allocate@?$allocator@UBaseBorder@@@std@@QAEPAUBaseBorder@@I@Z 0042ffa0 f i BaseLocationManager.obj
 0001:0002f000       ?_Buy_raw@?$vector@PAVBaseLocation@UAlbertaBot@@V?$allocator@PAVBaseLocation@UAlbertaBot@@@std@@@std@@AAEXI@Z 00430000 f i BaseLocationManager.obj
 0001:0002f090       ??$_Erase_tree@V?$allocator@U?$_Tree_node@U?$pair@QAVPlayerInterface@BWAPI@@V?$set@PBVBaseLocation@UAlbertaBot@@U?$less@PBVBaseLocation@UAlbertaBot@@@std@@V?$allocator@PBVBaseLocation@UAlbertaBot@@@4@@std@@@std@@PAX@std@@@std@@@?$_Tree_val@U?$_Tree_simple_types@U?$pair@QAVPlayerInterface@BWAPI@@V?$set@PBVBaseLocation@UAlbertaBot@@U?$less@PBVBaseLocation@UAlbertaBot@@@std@@V?$allocator@PBVBaseLocation@UAlbertaBot@@@4@@std@@@std@@@std@@@std@@QAEXAAV?$allocator@U?$_Tree_node@U?$pair@QAVPlayerInterface@BWAPI@@V?$set@PBVBaseLocation@UAlbertaBot@@U?$less@PBVBaseLocation@UAlbertaBot@@@std@@V?$allocator@PBVBaseLocation@UAlbertaBot@@@4@@std@@@std@@PAX@std@@@1@PAU?$_Tree_node@U?$pair@QAVPlayerInterface@BWAPI@@V?$set@PBVBaseLocation@UAlbertaBot@@U?$less@PBVBaseLocation@UAlbertaBot@@@std@@V?$allocator@PBVBaseLocation@UAlbertaBot@@@4@@std@@@std@@PAX@1@@Z 00430090 f i BaseLocationManager.obj
 0001:0002f0f0       ??1?$_Uninitialized_backout_al@V?$allocator@VBaseLocation@UAlbertaBot@@@std@@@std@@QAE@XZ 004300f0 f i BaseLocationManager.obj
 0001:0002f120       ??1?$_Alloc_construct_ptr@V?$allocator@U?$_Tree_node@PBVBaseLocation@UAlbertaBot@@PAX@std@@@std@@@std@@QAE@XZ 00430120 f i BaseLocationManager.obj
 0001:0002f120       ??1?$_Alloc_construct_ptr@V?$allocator@U?$_Tree_node@VUnitType@BWAPI@@PAX@std@@@std@@@std@@QAE@XZ 00430120 f i ParseUtils.obj
 0001:0002f120       ??1?$_Alloc_construct_ptr@V?$allocator@U?$_Tree_node@IPAX@std@@@std@@@std@@QAE@XZ 00430120 f i SparCraft:GameState.obj
 0001:0002f140       ??0BaseLocation@UAlbertaBot@@QAE@ABV01@@Z 00430140 f i BaseLocationManager.obj
 0001:0002f480       ??0?$vector@HV?$allocator@H@std@@@std@@QAE@ABV01@@Z 00430480 f i BaseLocationManager.obj
 0001:0002f480       ??0?$vector@PBVBaseLocation@UAlbertaBot@@V?$allocator@PBVBaseLocation@UAlbertaBot@@@std@@@std@@QAE@ABV01@@Z 00430480 f i DetectorManager.obj
 0001:0002f4f0       ??0?$map@PAVPlayerInterface@BWAPI@@_NU?$less@PAVPlayerInterface@BWAPI@@@std@@V?$allocator@U?$pair@QAVPlayerInterface@BWAPI@@_N@std@@@4@@std@@QAE@ABV01@@Z 004304f0 f i BaseLocationManager.obj
 0001:0002f5d0       ??1?$_Tree_head_scoped_ptr@V?$allocator@U?$_Tree_node@U?$pair@QAVPlayerInterface@BWAPI@@_N@std@@PAX@std@@@std@@V?$_Tree_val@U?$_Tree_simple_types@U?$pair@QAVPlayerInterface@BWAPI@@_N@std@@@std@@@2@@std@@QAE@XZ 004305d0 f i BaseLocationManager.obj
 0001:0002f600       ??$_Copy_nodes@U_Copy_tag@?$_Tree@V?$_Tmap_traits@PAVUnitInterface@BWAPI@@_NU?$less@PAVUnitInterface@BWAPI@@@std@@V?$allocator@U?$pair@QAVUnitInterface@BWAPI@@_N@std@@@4@$0A@@std@@@std@@@?$_Tree@V?$_Tmap_traits@PAVUnitInterface@BWAPI@@_NU?$less@PAVUnitInterface@BWAPI@@@std@@V?$allocator@U?$pair@QAVUnitInterface@BWAPI@@_N@std@@@4@$0A@@std@@@std@@IAEPAU?$_Tree_node@U?$pair@QAVUnitInterface@BWAPI@@_N@std@@PAX@1@PAU21@0U_Copy_tag@01@@Z 00430600 f i SquadData.obj
 0001:0002f600       ??$_Copy_nodes@U_Copy_tag@?$_Tree@V?$_Tmap_traits@PAVPlayerInterface@BWAPI@@_NU?$less@PAVPlayerInterface@BWAPI@@@std@@V?$allocator@U?$pair@QAVPlayerInterface@BWAPI@@_N@std@@@4@$0A@@std@@@std@@@?$_Tree@V?$_Tmap_traits@PAVPlayerInterface@BWAPI@@_NU?$less@PAVPlayerInterface@BWAPI@@@std@@V?$allocator@U?$pair@QAVPlayerInterface@BWAPI@@_N@std@@@4@$0A@@std@@@std@@IAEPAU?$_Tree_node@U?$pair@QAVPlayerInterface@BWAPI@@_N@std@@PAX@1@PAU21@0U_Copy_tag@01@@Z 00430600 f i BaseLocationManager.obj
 0001:0002f6f0       ?_Get_deleter@_Ref_count_base@std@@UBEPAXABVtype_info@@@Z 004306f0 f i BOSSManager.obj
 0001:0002f6f0       ?_Move@?$_Func_impl_no_alloc@V<lambda_cfd6fce307c286eb3135c7782fdef1bb>@@_NPAVUnitInterface@BWAPI@@@std@@EAEPAV?$_Func_base@_NPAVUnitInterface@BWAPI@@@2@PAX@Z 004306f0 f i BWAPILIB:Game.obj
 0001:0002f700       ??1GameState@BOSS@@QAE@XZ  00430700 f i BOSSManager.obj
 0001:0002f710       ??1BuildOrder@BOSS@@QAE@XZ 00430710 f i BOSSManager.obj
 0001:0002f730       ??1BuildOrder@UAlbertaBot@@QAE@XZ 00430730 f i BOSSManager.obj
 0001:0002f740       ??1DFBB_BuildOrderSearchResults@BOSS@@QAE@XZ 00430740 f i BOSSManager.obj
 0001:0002f760       ?reset@BOSSManager@UAlbertaBot@@QAEXXZ 00430760 f   BOSSManager.obj
 0001:0002f8a0       ??4BuildOrder@BOSS@@QAEAAV01@$$QAV01@@Z 004308a0 f i BOSSManager.obj
 0001:0002f920       ??4GameState@BOSS@@QAEAAV01@$$QAV01@@Z 00430920 f i BOSSManager.obj
 0001:0002fb10       ?startNewSearch@BOSSManager@UAlbertaBot@@QAEXABV?$vector@U?$pair@VMetaType@UAlbertaBot@@I@std@@V?$allocator@U?$pair@VMetaType@UAlbertaBot@@I@std@@@2@@std@@@Z 00430b10 f   BOSSManager.obj
 0001:0002ffa0       ??1BuildOrderSearchGoal@BOSS@@QAE@XZ 00430fa0 f i BOSSManager.obj
 0001:0002ffc0       ?drawSearchInformation@BOSSManager@UAlbertaBot@@QAEXHH@Z 00430fc0 f   BOSSManager.obj
 0001:00030200       ?drawStateInformation@BOSSManager@UAlbertaBot@@QAEXHH@Z 00431200 f   BOSSManager.obj
 0001:00030420       ?update@BOSSManager@UAlbertaBot@@QAEXN@Z 00431420 f   BOSSManager.obj
 0001:00030d10       ??4BuildOrder@BOSS@@QAEAAV01@ABV01@@Z 00431d10 f i BOSSManager.obj
 0001:00030d90       ??1NaiveBuildOrderSearch@BOSS@@QAE@XZ 00431d90 f i BOSSManager.obj
 0001:00030dd0       ??4GameState@BOSS@@QAEAAV01@ABV01@@Z 00431dd0 f i BOSSManager.obj
 0001:00030fa0       ?GetGoal@BOSSManager@UAlbertaBot@@SA?AVBuildOrderSearchGoal@BOSS@@ABV?$vector@U?$pair@VMetaType@UAlbertaBot@@I@std@@V?$allocator@U?$pair@VMetaType@UAlbertaBot@@I@std@@@2@@std@@@Z 00431fa0 f   BOSSManager.obj
 0001:000311d0       ?GetMetaVector@BOSSManager@UAlbertaBot@@SA?AV?$vector@VMetaType@UAlbertaBot@@V?$allocator@VMetaType@UAlbertaBot@@@std@@@std@@ABVBuildOrder@BOSS@@@Z 004321d0 f   BOSSManager.obj
 0001:000313a0       ??1?$vector@U?$pair@VMetaType@UAlbertaBot@@I@std@@V?$allocator@U?$pair@VMetaType@UAlbertaBot@@I@std@@@2@@std@@QAE@XZ 004323a0 f i BOSSManager.obj
 0001:000313a0       ?_Tidy@?$vector@VAction@SparCraft@@V?$allocator@VAction@SparCraft@@@std@@@std@@AAEXXZ 004323a0 f i CombatSimulation.obj
 0001:00031410       ??1?$shared_ptr@VDFBB_BuildOrderSmartSearch@BOSS@@@std@@QAE@XZ 00432410 f i BOSSManager.obj
 0001:00031410       ??1?$shared_ptr@VPlayer@SparCraft@@@std@@QAE@XZ 00432410 f i CombatSimulation.obj
 0001:00031440       ??4?$basic_string@DU?$char_traits@D@std@@V?$allocator@D@2@@std@@QAEAAV01@$$QAV01@@Z 00432440 f i BOSSManager.obj
 0001:000314c0       ?allocate@?$allocator@VActionPerformed@BOSS@@@std@@QAEPAVActionPerformed@BOSS@@I@Z 004324c0 f i BOSSManager.obj
 0001:000314c0       ?allocate@?$allocator@VMetaType@UAlbertaBot@@@std@@QAEPAVMetaType@UAlbertaBot@@I@Z 004324c0 f i BOSSManager.obj
 0001:00031520       ??$_Emplace_reallocate@VMetaType@UAlbertaBot@@@?$vector@VMetaType@UAlbertaBot@@V?$allocator@VMetaType@UAlbertaBot@@@std@@@std@@QAEPAVMetaType@UAlbertaBot@@QAV23@$$QAV23@@Z 00432520 f i BOSSManager.obj
 0001:00031520       ??$_Emplace_reallocate@ABVMetaType@UAlbertaBot@@@?$vector@VMetaType@UAlbertaBot@@V?$allocator@VMetaType@UAlbertaBot@@@std@@@std@@QAEPAVMetaType@UAlbertaBot@@QAV23@ABV23@@Z 00432520 f i BuildOrder.obj
 0001:00031670       ?_Delete_this@?$_Ref_count@VDFBB_BuildOrderSmartSearch@BOSS@@@std@@EAEXXZ 00432670 f i BOSSManager.obj
 0001:00031670       ?_Delete_this@?$_Ref_count@VPlayer_NOKDPS@SparCraft@@@std@@EAEXXZ 00432670 f i CombatSimulation.obj
 0001:00031680       ?_Destroy@?$_Ref_count@VDFBB_BuildOrderSmartSearch@BOSS@@@std@@EAEXXZ 00432680 f i BOSSManager.obj
 0001:00031690       ??1?$_Temporary_owner@VDFBB_BuildOrderSmartSearch@BOSS@@@std@@QAE@XZ 00432690 f i BOSSManager.obj
 0001:000316a0       ?_Change_array@?$vector@VMetaType@UAlbertaBot@@V?$allocator@VMetaType@UAlbertaBot@@@std@@@std@@AAEXQAVMetaType@UAlbertaBot@@II@Z 004326a0 f i BOSSManager.obj
 0001:00031720       ??_GDFBB_BuildOrderSmartSearch@BOSS@@QAEPAXI@Z 00432720 f i BOSSManager.obj
 0001:000317b0       ??_E?$_Ref_count@VDFBB_BuildOrderSmartSearch@BOSS@@@std@@UAEPAXI@Z 004327b0 f i * CIL library *:* CIL module *
 0001:000317b0       ??_G?$_Ref_count@VDFBB_BuildOrderSmartSearch@BOSS@@@std@@UAEPAXI@Z 004327b0 f i BOSSManager.obj
 0001:000317b0       ??_G?$_Ref_count@VPlayer_NOKDPS@SparCraft@@@std@@UAEPAXI@Z 004327b0 f i CombatSimulation.obj
 0001:000317b0       ??_E?$_Ref_count@VPlayer_NOKDPS@SparCraft@@@std@@UAEPAXI@Z 004327b0 f i * CIL library *:* CIL module *
 0001:000317d0       ??1DFBB_BuildOrderSearchParameters@BOSS@@QAE@XZ 004327d0 f i BOSSManager.obj
 0001:00031800       ??1DFBB_BuildOrderStackSearch@BOSS@@QAE@XZ 00432800 f i BOSSManager.obj
 0001:00031870       ?_Tidy@?$vector@VStackData@BOSS@@V?$allocator@VStackData@BOSS@@@std@@@std@@AAEXXZ 00432870 f i BOSSManager.obj
 0001:00031900       ??$_Assign_range@PAU?$pair@VMetaType@UAlbertaBot@@I@std@@@?$vector@U?$pair@VMetaType@UAlbertaBot@@I@std@@V?$allocator@U?$pair@VMetaType@UAlbertaBot@@I@std@@@2@@std@@AAEXPAU?$pair@VMetaType@UAlbertaBot@@I@1@0Uforward_iterator_tag@1@@Z 00432900 f i BOSSManager.obj
 0001:00031ac0       ??$_Assign_range@PAVActionType@BOSS@@@?$vector@VActionType@BOSS@@V?$allocator@VActionType@BOSS@@@std@@@std@@AAEXPAVActionType@BOSS@@0Uforward_iterator_tag@1@@Z 00432ac0 f i BOSSManager.obj
 0001:00031c30       ??$_Assign_range@PAVActionPerformed@BOSS@@@?$vector@VActionPerformed@BOSS@@V?$allocator@VActionPerformed@BOSS@@@std@@@std@@AAEXPAVActionPerformed@BOSS@@0Uforward_iterator_tag@1@@Z 00432c30 f i BOSSManager.obj
 0001:00031d80       ?allocate@?$allocator@U?$pair@VMetaType@UAlbertaBot@@I@std@@@std@@QAEPAU?$pair@VMetaType@UAlbertaBot@@I@2@I@Z 00432d80 f i BOSSManager.obj
 0001:00031d80       ?allocate@?$allocator@V?$basic_string@DU?$char_traits@D@std@@V?$allocator@D@2@@std@@@std@@QAEPAV?$basic_string@DU?$char_traits@D@std@@V?$allocator@D@2@@2@I@Z 00432d80 f i TimerManager.obj
 0001:00031de0       ??$_Copy_unchecked@PAVActionPerformed@BOSS@@PAV12@@std@@YAPAVActionPerformed@BOSS@@PAV12@00@Z 00432de0 f i BOSSManager.obj
 0001:00031e30       ??1StackData@BOSS@@QAE@XZ  00432e30 f i BOSSManager.obj
 0001:00031e40       ??$_Uninitialized_copy@PAVActionPerformed@BOSS@@V?$allocator@VActionPerformed@BOSS@@@std@@@std@@YAPAVActionPerformed@BOSS@@QAV12@0PAV12@AAV?$allocator@VActionPerformed@BOSS@@@0@@Z 00432e40 f i BOSSManager.obj
 0001:00031e90       ?_Tidy@?$vector@VTimer@BOSS@@V?$allocator@VTimer@BOSS@@@std@@@std@@AAEXXZ 00432e90 f i main.obj
 0001:00031e90       ??1?$vector@VBuilding@UAlbertaBot@@V?$allocator@VBuilding@UAlbertaBot@@@std@@@std@@QAE@XZ 00432e90 f i BuildingData.obj
 0001:00031f00       ??$_Emplace_reallocate@ABVBuilding@UAlbertaBot@@@?$vector@VBuilding@UAlbertaBot@@V?$allocator@VBuilding@UAlbertaBot@@@std@@@std@@QAEPAVBuilding@UAlbertaBot@@QAV23@ABV23@@Z 00432f00 f i BuildingData.obj
 0001:00032120       ?update@BuildingManager@UAlbertaBot@@QAEXXZ 00433120 f   BuildingManager.obj
 0001:00032360       ?assignWorkersToUnassignedBuildings@BuildingManager@UAlbertaBot@@AAEXXZ 00433360 f   BuildingManager.obj
 0001:00032560       ?constructAssignedBuildings@BuildingManager@UAlbertaBot@@AAEXXZ 00433560 f   BuildingManager.obj
 0001:000327a0       ?checkForStartedConstruction@BuildingManager@UAlbertaBot@@AAEXXZ 004337a0 f   BuildingManager.obj
 0001:000329e0       ?checkForCompletedBuildings@BuildingManager@UAlbertaBot@@AAEXXZ 004339e0 f   BuildingManager.obj
 0001:00032ba0       ?drawBuildingInformation@BuildingManager@UAlbertaBot@@QAEXHH@Z 00433ba0 f   BuildingManager.obj
 0001:00032ec0       ?buildingsQueued@BuildingManager@UAlbertaBot@@QAE?AV?$vector@VUnitType@BWAPI@@V?$allocator@VUnitType@BWAPI@@@std@@@std@@XZ 00433ec0 f   BuildingManager.obj
 0001:00032f70       ?getBuildingLocation@BuildingManager@UAlbertaBot@@QAE?AV?$Point@H$0CA@@BWAPI@@ABVBuilding@2@@Z 00433f70 f   BuildingManager.obj
 0001:00033220       ?removeBuildings@BuildingManager@UAlbertaBot@@AAEXABV?$vector@VBuilding@UAlbertaBot@@V?$allocator@VBuilding@UAlbertaBot@@@std@@@std@@@Z 00434220 f   BuildingManager.obj
 0001:000332a0       ??$_Emplace_reallocate@ABVUnitType@BWAPI@@@?$vector@VUnitType@BWAPI@@V?$allocator@VUnitType@BWAPI@@@std@@@std@@QAEPAVUnitType@BWAPI@@QAV23@ABV23@@Z 004342a0 f i BuildingManager.obj
 0001:00033420       _ceilf                     00434420 f i BuildingPlacerManager.obj
 0001:00033460       ??1?$function@$$A6A_NPAVPlayerInterface@BWAPI@@@Z@std@@QAE@XZ 00434460 f i BWAPIClient:GameImpl.obj
 0001:00033460       ??1?$function@$$A6A_NPAVUnitInterface@BWAPI@@@Z@std@@QAE@XZ 00434460 f i BuildingPlacerManager.obj
 0001:00033460       ??1?$_Func_class@XPAVUnitInterface@BWAPI@@@std@@QAE@XZ 00434460 f i BWAPIClient:GameImpl.obj
 0001:00033460       ??1?$_Func_class@_NPAVForceInterface@BWAPI@@@std@@QAE@XZ 00434460 f i BWAPIClient:GameImpl.obj
 0001:00033460       ??1?$_Func_class@XPAVForceInterface@BWAPI@@@std@@QAE@XZ 00434460 f i BWAPIClient:GameImpl.obj
 0001:00033460       ??1?$function@$$A6A_NPAVBulletInterface@BWAPI@@@Z@std@@QAE@XZ 00434460 f i BWAPIClient:GameImpl.obj
 0001:00033460       ??1?$_Func_class@XPAVBulletInterface@BWAPI@@@std@@QAE@XZ 00434460 f i BWAPIClient:GameImpl.obj
 0001:00033460       ??1?$_Func_class@_NPAVUnitInterface@BWAPI@@@std@@QAE@XZ 00434460 f i BuildingPlacerManager.obj
 0001:00033460       ??1?$_Func_class@_NPAVPlayerInterface@BWAPI@@@std@@QAE@XZ 00434460 f i BWAPIClient:GameImpl.obj
 0001:00033460       ??1?$_Func_class@XPAVPlayerInterface@BWAPI@@@std@@QAE@XZ 00434460 f i BWAPIClient:GameImpl.obj
 0001:00033460       ??1?$UnaryFilter@PAVUnitInterface@BWAPI@@V?$function@$$A6A_NPAVUnitInterface@BWAPI@@@Z@std@@@BWAPI@@QAE@XZ 00434460 f i BuildingPlacerManager.obj
 0001:00033460       ??1?$_Func_class@_NPAVBulletInterface@BWAPI@@@std@@QAE@XZ 00434460 f i BWAPIClient:GameImpl.obj
 0001:00033460       ??1?$function@$$A6A_NPAVForceInterface@BWAPI@@@Z@std@@QAE@XZ 00434460 f i BWAPIClient:GameImpl.obj
 0001:00033490       ??0BuildingPlacerManager@UAlbertaBot@@QAE@XZ 00434490 f   BuildingPlacerManager.obj
 0001:000335c0       ?computeResourceBox@BuildingPlacerManager@UAlbertaBot@@QAEXXZ 004345c0 f   BuildingPlacerManager.obj
 0001:00033790       ??0?$SetContainer@PAVUnitInterface@BWAPI@@U?$hash@PAX@std@@@BWAPI@@QAE@XZ 00434790 f i BuildingPlacerManager.obj
 0001:00033840       ??1?$SetContainer@VUpgradeType@BWAPI@@U?$hash@H@std@@@BWAPI@@QAE@XZ 00434840 f i BWAPILIB:UnitType.obj
 0001:00033840       ??1?$SetContainer@VTechType@BWAPI@@U?$hash@H@std@@@BWAPI@@QAE@XZ 00434840 f i BWAPILIB:UnitType.obj
 0001:00033840       ??1?$SetContainer@VUnitType@BWAPI@@U?$hash@H@std@@@BWAPI@@QAE@XZ 00434840 f i BWAPILIB:UnitType.obj
 0001:00033840       ??1Bulletset@BWAPI@@QAE@XZ 00434840 f i BWAPIClient:GameImpl.obj
 0001:00033840       ??1Unitset@BWAPI@@QAE@XZ   00434840 f i BuildingPlacerManager.obj
 0001:00033840       ??1Playerset@BWAPI@@QAE@XZ 00434840 f i BWAPIClient:GameImpl.obj
 0001:00033840       ??1?$SetContainer@VWeaponType@BWAPI@@U?$hash@H@std@@@BWAPI@@QAE@XZ 00434840 f i BWAPILIB:WeaponType.obj
 0001:00033840       ??1Forceset@BWAPI@@QAE@XZ  00434840 f i BWAPIClient:GameImpl.obj
 0001:00033840       ??1Regionset@BWAPI@@QAE@XZ 00434840 f i BWAPIClient:GameImpl.obj
 0001:00033850       ??1?$_Hash@V?$_Uset_traits@VTechType@BWAPI@@V?$_Uhash_compare@VTechType@BWAPI@@U?$hash@H@std@@U?$equal_to@VTechType@BWAPI@@@4@@std@@V?$allocator@VTechType@BWAPI@@@4@$0A@@std@@@std@@QAE@XZ 00434850 f i BWAPILIB:UnitType.obj
 0001:00033850       ??1?$_Hash@V?$_Uset_traits@PAVPlayerInterface@BWAPI@@V?$_Uhash_compare@PAVPlayerInterface@BWAPI@@U?$hash@PAX@std@@U?$equal_to@PAVPlayerInterface@BWAPI@@@4@@std@@V?$allocator@PAVPlayerInterface@BWAPI@@@4@$0A@@std@@@std@@QAE@XZ 00434850 f i BWAPIClient:GameImpl.obj
 0001:00033850       ??1?$_Hash@V?$_Uset_traits@VUpgradeType@BWAPI@@V?$_Uhash_compare@VUpgradeType@BWAPI@@U?$hash@H@std@@U?$equal_to@VUpgradeType@BWAPI@@@4@@std@@V?$allocator@VUpgradeType@BWAPI@@@4@$0A@@std@@@std@@QAE@XZ 00434850 f i BWAPILIB:UnitType.obj
 0001:00033850       ??1?$_Hash@V?$_Uset_traits@VWeaponType@BWAPI@@V?$_Uhash_compare@VWeaponType@BWAPI@@U?$hash@H@std@@U?$equal_to@VWeaponType@BWAPI@@@4@@std@@V?$allocator@VWeaponType@BWAPI@@@4@$0A@@std@@@std@@QAE@XZ 00434850 f i BWAPILIB:WeaponType.obj
 0001:00033850       ??1?$_Hash@V?$_Uset_traits@PAVForceInterface@BWAPI@@V?$_Uhash_compare@PAVForceInterface@BWAPI@@U?$hash@PAX@std@@U?$equal_to@PAVForceInterface@BWAPI@@@4@@std@@V?$allocator@PAVForceInterface@BWAPI@@@4@$0A@@std@@@std@@QAE@XZ 00434850 f i BWAPIClient:GameImpl.obj
 0001:00033850       ??1?$_Hash@V?$_Uset_traits@PAVUnitInterface@BWAPI@@V?$_Uhash_compare@PAVUnitInterface@BWAPI@@U?$hash@PAX@std@@U?$equal_to@PAVUnitInterface@BWAPI@@@4@@std@@V?$allocator@PAVUnitInterface@BWAPI@@@4@$0A@@std@@@std@@QAE@XZ 00434850 f i BuildingPlacerManager.obj
 0001:00033850       ??1?$_Hash@V?$_Uset_traits@PAVBulletInterface@BWAPI@@V?$_Uhash_compare@PAVBulletInterface@BWAPI@@U?$hash@PAX@std@@U?$equal_to@PAVBulletInterface@BWAPI@@@4@@std@@V?$allocator@PAVBulletInterface@BWAPI@@@4@$0A@@std@@@std@@QAE@XZ 00434850 f i BWAPIClient:GameImpl.obj
 0001:00033850       ??1?$_Hash@V?$_Uset_traits@VRace@BWAPI@@V?$_Uhash_compare@VRace@BWAPI@@U?$hash@H@std@@U?$equal_to@VRace@BWAPI@@@4@@std@@V?$allocator@VRace@BWAPI@@@4@$0A@@std@@@std@@QAE@XZ 00434850 f i BWAPILIB:Race.obj
 0001:00033850       ??1?$_Hash@V?$_Uset_traits@PAVRegionInterface@BWAPI@@V?$_Uhash_compare@PAVRegionInterface@BWAPI@@U?$hash@PAX@std@@U?$equal_to@PAVRegionInterface@BWAPI@@@4@@std@@V?$allocator@PAVRegionInterface@BWAPI@@@4@$0A@@std@@@std@@QAE@XZ 00434850 f i BWAPIClient:GameImpl.obj
 0001:00033850       ??1?$_Hash@V?$_Uset_traits@VUnitType@BWAPI@@V?$_Uhash_compare@VUnitType@BWAPI@@U?$hash@H@std@@U?$equal_to@VUnitType@BWAPI@@@4@@std@@V?$allocator@VUnitType@BWAPI@@@4@$0A@@std@@@std@@QAE@XZ 00434850 f i BWAPILIB:UnitType.obj
 0001:000338e0       ?canBuildHere@BuildingPlacerManager@UAlbertaBot@@QBE_NV?$Point@H$0CA@@BWAPI@@ABVBuilding@2@@Z 004348e0 f   BuildingPlacerManager.obj
 0001:00033b00       ?tileBlocksAddon@BuildingPlacerManager@UAlbertaBot@@QBE_NV?$Point@H$0CA@@BWAPI@@@Z 00434b00 f   BuildingPlacerManager.obj
 0001:00033c60       ?canBuildHereWithSpace@BuildingPlacerManager@UAlbertaBot@@QBE_NV?$Point@H$0CA@@BWAPI@@ABVBuilding@2@H_N@Z 00434c60 f   BuildingPlacerManager.obj
 0001:00033e70       ?getBuildLocationNear@BuildingPlacerManager@UAlbertaBot@@QBE?AV?$Point@H$0CA@@BWAPI@@ABVBuilding@2@H_N@Z 00434e70 f   BuildingPlacerManager.obj
 0001:00034450       ?buildable@BuildingPlacerManager@UAlbertaBot@@QBE_NABVBuilding@2@HH@Z 00435450 f   BuildingPlacerManager.obj
 0001:00034600       ?freeTiles@BuildingPlacerManager@UAlbertaBot@@QAEXV?$Point@H$0CA@@BWAPI@@HH@Z 00435600 f   BuildingPlacerManager.obj
 0001:00034670       ?getRefineryPosition@BuildingPlacerManager@UAlbertaBot@@QAE?AV?$Point@H$0CA@@BWAPI@@XZ 00435670 f   BuildingPlacerManager.obj
 0001:000347f0       ??1?$_Hash_vec@V?$allocator@V?$_List_unchecked_const_iterator@V?$_List_val@U?$_List_simple_types@VWeaponType@BWAPI@@@std@@@std@@U_Iterator_base0@2@@std@@@std@@@std@@QAE@XZ 004357f0 f i BWAPILIB:WeaponType.obj
 0001:000347f0       ??1?$_Hash_vec@V?$allocator@V?$_List_unchecked_iterator@V?$_List_val@U?$_List_simple_types@U?$pair@$$CBII@std@@@std@@@std@@@std@@@std@@@std@@QAE@XZ 004357f0 f i BWAPIClient:GameImpl.obj
 0001:000347f0       ??1?$_Hash_vec@V?$allocator@V?$_List_unchecked_const_iterator@V?$_List_val@U?$_List_simple_types@PAVUnitInterface@BWAPI@@@std@@@std@@U_Iterator_base0@2@@std@@@std@@@std@@QAE@XZ 004357f0 f i BuildingPlacerManager.obj
 0001:000347f0       ??1?$_Hash_vec@V?$allocator@V?$_List_unchecked_const_iterator@V?$_List_val@U?$_List_simple_types@PAVRegionInterface@BWAPI@@@std@@@std@@U_Iterator_base0@2@@std@@@std@@@std@@QAE@XZ 004357f0 f i BWAPIClient:GameImpl.obj
 0001:000347f0       ??1?$_Hash_vec@V?$allocator@V?$_List_unchecked_const_iterator@V?$_List_val@U?$_List_simple_types@VUpgradeType@BWAPI@@@std@@@std@@U_Iterator_base0@2@@std@@@std@@@std@@QAE@XZ 004357f0 f i BWAPILIB:UnitType.obj
 0001:000347f0       ??1?$_Hash_vec@V?$allocator@V?$_List_unchecked_const_iterator@V?$_List_val@U?$_List_simple_types@PAVForceInterface@BWAPI@@@std@@@std@@U_Iterator_base0@2@@std@@@std@@@std@@QAE@XZ 004357f0 f i BWAPIClient:GameImpl.obj
 0001:000347f0       ??1?$_Hash_vec@V?$allocator@V?$_List_unchecked_const_iterator@V?$_List_val@U?$_List_simple_types@PAVBulletInterface@BWAPI@@@std@@@std@@U_Iterator_base0@2@@std@@@std@@@std@@QAE@XZ 004357f0 f i BWAPIClient:GameImpl.obj
 0001:000347f0       ??1?$_Hash_vec@V?$allocator@V?$_List_unchecked_const_iterator@V?$_List_val@U?$_List_simple_types@VRace@BWAPI@@@std@@@std@@U_Iterator_base0@2@@std@@@std@@@std@@QAE@XZ 004357f0 f i BWAPILIB:Race.obj
 0001:000347f0       ??1?$_Hash_vec@V?$allocator@V?$_List_unchecked_const_iterator@V?$_List_val@U?$_List_simple_types@PAVPlayerInterface@BWAPI@@@std@@@std@@U_Iterator_base0@2@@std@@@std@@@std@@QAE@XZ 004357f0 f i BWAPIClient:GameImpl.obj
 0001:000347f0       ??1?$_Hash_vec@V?$allocator@V?$_List_unchecked_const_iterator@V?$_List_val@U?$_List_simple_types@VTechType@BWAPI@@@std@@@std@@U_Iterator_base0@2@@std@@@std@@@std@@QAE@XZ 004357f0 f i BWAPILIB:UnitType.obj
 0001:000347f0       ??1?$_Hash_vec@V?$allocator@V?$_List_unchecked_const_iterator@V?$_List_val@U?$_List_simple_types@VUnitType@BWAPI@@@std@@@std@@U_Iterator_base0@2@@std@@@std@@@std@@QAE@XZ 004357f0 f i BWAPILIB:UnitType.obj
 0001:00034840       ?clear@?$_Hash@V?$_Uset_traits@PAVUnitInterface@BWAPI@@V?$_Uhash_compare@PAVUnitInterface@BWAPI@@U?$hash@PAX@std@@U?$equal_to@PAVUnitInterface@BWAPI@@@4@@std@@V?$allocator@PAVUnitInterface@BWAPI@@@4@$0A@@std@@@std@@QAEXXZ 00435840 f i BuildingPlacerManager.obj
 0001:000348d0       ??1?$list@VRace@BWAPI@@V?$allocator@VRace@BWAPI@@@std@@@std@@QAE@XZ 004358d0 f i BWAPILIB:Race.obj
 0001:000348d0       ??1?$list@PAVPlayerInterface@BWAPI@@V?$allocator@PAVPlayerInterface@BWAPI@@@std@@@std@@QAE@XZ 004358d0 f i BWAPIClient:GameImpl.obj
 0001:000348d0       ??1?$list@VUnitType@BWAPI@@V?$allocator@VUnitType@BWAPI@@@std@@@std@@QAE@XZ 004358d0 f i BWAPILIB:UnitType.obj
 0001:000348d0       ??1?$list@VWeaponType@BWAPI@@V?$allocator@VWeaponType@BWAPI@@@std@@@std@@QAE@XZ 004358d0 f i BWAPILIB:WeaponType.obj
 0001:000348d0       ??1?$list@PAVForceInterface@BWAPI@@V?$allocator@PAVForceInterface@BWAPI@@@std@@@std@@QAE@XZ 004358d0 f i BWAPIClient:GameImpl.obj
 0001:000348d0       ??1?$list@PAVUnitInterface@BWAPI@@V?$allocator@PAVUnitInterface@BWAPI@@@std@@@std@@QAE@XZ 004358d0 f i BuildingPlacerManager.obj
 0001:000348d0       ??1?$list@PAVRegionInterface@BWAPI@@V?$allocator@PAVRegionInterface@BWAPI@@@std@@@std@@QAE@XZ 004358d0 f i BWAPIClient:GameImpl.obj
 0001:000348d0       ??1?$list@VUpgradeType@BWAPI@@V?$allocator@VUpgradeType@BWAPI@@@std@@@std@@QAE@XZ 004358d0 f i BWAPILIB:UnitType.obj
 0001:000348d0       ??1?$list@VTechType@BWAPI@@V?$allocator@VTechType@BWAPI@@@std@@@std@@QAE@XZ 004358d0 f i BWAPILIB:UnitType.obj
 0001:000348d0       ??1?$list@PAVBulletInterface@BWAPI@@V?$allocator@PAVBulletInterface@BWAPI@@@std@@@std@@QAE@XZ 004358d0 f i BWAPIClient:GameImpl.obj
 0001:00034910       ?_Unchecked_erase@?$_Hash@V?$_Uset_traits@PAVUnitInterface@BWAPI@@V?$_Uhash_compare@PAVUnitInterface@BWAPI@@U?$hash@PAX@std@@U?$equal_to@PAVUnitInterface@BWAPI@@@4@@std@@V?$allocator@PAVUnitInterface@BWAPI@@@4@$0A@@std@@@std@@AAEPAU?$_List_node@PAVUnitInterface@BWAPI@@PAX@2@PAU32@QAU32@@Z 00435910 f i BuildingPlacerManager.obj
 0001:00034aa0       ?_Assign_grow@?$_Hash_vec@V?$allocator@V?$_List_unchecked_const_iterator@V?$_List_val@U?$_List_simple_types@PAVUnitInterface@BWAPI@@@std@@@std@@U_Iterator_base0@2@@std@@@std@@@std@@QAEXIV?$_List_unchecked_const_iterator@V?$_List_val@U?$_List_simple_types@PAVUnitInterface@BWAPI@@@std@@@std@@U_Iterator_base0@2@@2@@Z 00435aa0 f i BuildingPlacerManager.obj
 0001:00034b90       ??$fill@PAV?$_List_unchecked_const_iterator@V?$_List_val@U?$_List_simple_types@PAVUnitInterface@BWAPI@@@std@@@std@@U_Iterator_base0@2@@std@@V12@@std@@YAXQAV?$_List_unchecked_const_iterator@V?$_List_val@U?$_List_simple_types@PAVUnitInterface@BWAPI@@@std@@@std@@U_Iterator_base0@2@@0@0ABV10@@Z 00435b90 f i BuildingPlacerManager.obj
 0001:00034c00       ??$emplace@ABQAVUnitInterface@BWAPI@@@?$_Hash@V?$_Uset_traits@PAVUnitInterface@BWAPI@@V?$_Uhash_compare@PAVUnitInterface@BWAPI@@U?$hash@PAX@std@@U?$equal_to@PAVUnitInterface@BWAPI@@@4@@std@@V?$allocator@PAVUnitInterface@BWAPI@@@4@$0A@@std@@@std@@QAE?AU?$pair@V?$_List_const_iterator@V?$_List_val@U?$_List_simple_types@PAVUnitInterface@BWAPI@@@std@@@std@@@std@@_N@1@ABQAVUnitInterface@BWAPI@@@Z 00435c00 f i BuildingPlacerManager.obj
 0001:00034c00       ??$emplace@PAVUnitInterface@BWAPI@@@?$_Hash@V?$_Uset_traits@PAVUnitInterface@BWAPI@@V?$_Uhash_compare@PAVUnitInterface@BWAPI@@U?$hash@PAX@std@@U?$equal_to@PAVUnitInterface@BWAPI@@@4@@std@@V?$allocator@PAVUnitInterface@BWAPI@@@4@$0A@@std@@@std@@QAE?AU?$pair@V?$_List_const_iterator@V?$_List_val@U?$_List_simple_types@PAVUnitInterface@BWAPI@@@std@@@std@@@std@@_N@1@$$QAPAVUnitInterface@BWAPI@@@Z 00435c00 f i BWAPIClient:GameImpl.obj
 0001:00034de0       ??1?$_List_node_emplace_op2@V?$allocator@U?$_List_node@PAVRegionInterface@BWAPI@@PAX@std@@@std@@@std@@QAE@XZ 00435de0 f i BWAPIClient:GameImpl.obj
 0001:00034de0       ??1?$_List_node_emplace_op2@V?$allocator@U?$_List_node@PAVUnitInterface@BWAPI@@PAX@std@@@std@@@std@@QAE@XZ 00435de0 f i BuildingPlacerManager.obj
 0001:00034de0       ??1?$_Alloc_construct_ptr@V?$allocator@U?$_List_node@PAVPlayerInterface@BWAPI@@PAX@std@@@std@@@std@@QAE@XZ 00435de0 f i BWAPIClient:GameImpl.obj
 0001:00034de0       ??1?$_List_node_emplace_op2@V?$allocator@U?$_List_node@VUnitType@BWAPI@@PAX@std@@@std@@@std@@QAE@XZ 00435de0 f i BWAPILIB:UnitType.obj
 0001:00034de0       ??1?$_Alloc_construct_ptr@V?$allocator@U?$_List_node@VRace@BWAPI@@PAX@std@@@std@@@std@@QAE@XZ 00435de0 f i BWAPILIB:Race.obj
 0001:00034de0       ??1?$_List_node_emplace_op2@V?$allocator@U?$_List_node@VWeaponType@BWAPI@@PAX@std@@@std@@@std@@QAE@XZ 00435de0 f i BWAPILIB:WeaponType.obj
 0001:00034de0       ??1?$_List_node_emplace_op2@V?$allocator@U?$_List_node@PAVBulletInterface@BWAPI@@PAX@std@@@std@@@std@@QAE@XZ 00435de0 f i BWAPIClient:GameImpl.obj
 0001:00034de0       ??1?$_List_node_emplace_op2@V?$allocator@U?$_List_node@VTechType@BWAPI@@PAX@std@@@std@@@std@@QAE@XZ 00435de0 f i BWAPILIB:UnitType.obj
 0001:00034de0       ??1?$_Alloc_construct_ptr@V?$allocator@U?$_List_node@PAVRegionInterface@BWAPI@@PAX@std@@@std@@@std@@QAE@XZ 00435de0 f i BWAPIClient:GameImpl.obj
 0001:00034de0       ??1?$_Alloc_construct_ptr@V?$allocator@U?$_List_node@VUpgradeType@BWAPI@@PAX@std@@@std@@@std@@QAE@XZ 00435de0 f i BWAPILIB:UnitType.obj
 0001:00034de0       ??1?$_List_node_emplace_op2@V?$allocator@U?$_List_node@PAVForceInterface@BWAPI@@PAX@std@@@std@@@std@@QAE@XZ 00435de0 f i BWAPIClient:GameImpl.obj
 0001:00034de0       ??1?$_Alloc_construct_ptr@V?$allocator@U?$_List_node@PAVBulletInterface@BWAPI@@PAX@std@@@std@@@std@@QAE@XZ 00435de0 f i BWAPIClient:GameImpl.obj
 0001:00034de0       ??1?$_List_node_emplace_op2@V?$allocator@U?$_List_node@PAVPlayerInterface@BWAPI@@PAX@std@@@std@@@std@@QAE@XZ 00435de0 f i BWAPIClient:GameImpl.obj
 0001:00034de0       ??1?$_Alloc_construct_ptr@V?$allocator@U?$_List_node@VUnitType@BWAPI@@PAX@std@@@std@@@std@@QAE@XZ 00435de0 f i BWAPILIB:UnitType.obj
 0001:00034de0       ??1?$_Alloc_construct_ptr@V?$allocator@U?$_List_node@VTechType@BWAPI@@PAX@std@@@std@@@std@@QAE@XZ 00435de0 f i BWAPILIB:UnitType.obj
 0001:00034de0       ??1?$_Alloc_construct_ptr@V?$allocator@U?$_List_node@VWeaponType@BWAPI@@PAX@std@@@std@@@std@@QAE@XZ 00435de0 f i BWAPILIB:WeaponType.obj
 0001:00034de0       ??1?$_List_node_emplace_op2@V?$allocator@U?$_List_node@VRace@BWAPI@@PAX@std@@@std@@@std@@QAE@XZ 00435de0 f i BWAPILIB:Race.obj
 0001:00034de0       ??1?$_List_node_emplace_op2@V?$allocator@U?$_List_node@VUpgradeType@BWAPI@@PAX@std@@@std@@@std@@QAE@XZ 00435de0 f i BWAPILIB:UnitType.obj
 0001:00034de0       ??1?$_Alloc_construct_ptr@V?$allocator@U?$_List_node@PAVForceInterface@BWAPI@@PAX@std@@@std@@@std@@QAE@XZ 00435de0 f i BWAPIClient:GameImpl.obj
 0001:00034de0       ??1?$_Alloc_construct_ptr@V?$allocator@U?$_List_node@PAVUnitInterface@BWAPI@@PAX@std@@@std@@@std@@QAE@XZ 00435de0 f i BuildingPlacerManager.obj
 0001:00034e00       ?_Forced_rehash@?$_Hash@V?$_Uset_traits@PAVUnitInterface@BWAPI@@V?$_Uhash_compare@PAVUnitInterface@BWAPI@@U?$hash@PAX@std@@U?$equal_to@PAVUnitInterface@BWAPI@@@4@@std@@V?$allocator@PAVUnitInterface@BWAPI@@@4@$0A@@std@@@std@@IAEXI@Z 00435e00 f i BuildingPlacerManager.obj
 0001:00034f60       ??$_Find_last@PAVUnitInterface@BWAPI@@@?$_Hash@V?$_Uset_traits@PAVUnitInterface@BWAPI@@V?$_Uhash_compare@PAVUnitInterface@BWAPI@@U?$hash@PAX@std@@U?$equal_to@PAVUnitInterface@BWAPI@@@4@@std@@V?$allocator@PAVUnitInterface@BWAPI@@@4@$0A@@std@@@std@@IBE?AU?$_Hash_find_last_result@PAU?$_List_node@PAVUnitInterface@BWAPI@@PAX@std@@@1@ABQAVUnitInterface@BWAPI@@I@Z 00435f60 f i BuildingPlacerManager.obj
 0001:00034fd0       ??0?$vector@VMetaType@UAlbertaBot@@V?$allocator@VMetaType@UAlbertaBot@@@std@@@std@@QAE@ABV01@@Z 00435fd0 f i BuildOrder.obj
 0001:00035060       ??0BuildOrderQueue@UAlbertaBot@@QAE@XZ 00436060 f   BuildOrderQueue.obj
 0001:000350d0       ?queueItem@BuildOrderQueue@UAlbertaBot@@QAEXUBuildOrderItem@2@@Z 004360d0 f   BuildOrderQueue.obj
 0001:000351e0       ?removeCurrentHighestPriorityItem@BuildOrderQueue@UAlbertaBot@@QAEXXZ 004361e0 f   BuildOrderQueue.obj
 0001:00035260       ?drawQueueInformation@BuildOrderQueue@UAlbertaBot@@QAEXHH@Z 00436260 f   BuildOrderQueue.obj
 0001:00035480       ?back@?$deque@UBuildOrderItem@UAlbertaBot@@V?$allocator@UBuildOrderItem@UAlbertaBot@@@std@@@std@@QAEAAUBuildOrderItem@UAlbertaBot@@XZ 00436480 f i BuildOrderQueue.obj
 0001:000354b0       ?_Tidy@?$deque@UBuildOrderItem@UAlbertaBot@@V?$allocator@UBuildOrderItem@UAlbertaBot@@@std@@@std@@AAEXXZ 004364b0 f i BuildOrderQueue.obj
 0001:00035540       ?_Growmap@?$deque@UBuildOrderItem@UAlbertaBot@@V?$allocator@UBuildOrderItem@UAlbertaBot@@@std@@@std@@AAEXI@Z 00436540 f i BuildOrderQueue.obj
 0001:000356f0       ?erase@?$deque@UBuildOrderItem@UAlbertaBot@@V?$allocator@UBuildOrderItem@UAlbertaBot@@@std@@@std@@QAE?AV?$_Deque_iterator@V?$_Deque_val@U?$_Deque_simple_types@UBuildOrderItem@UAlbertaBot@@@std@@@std@@@2@V?$_Deque_const_iterator@V?$_Deque_val@U?$_Deque_simple_types@UBuildOrderItem@UAlbertaBot@@@std@@@std@@@2@0@Z 004366f0 f i BuildOrderQueue.obj
 0001:00035830       ??$_Emplace_back_internal@ABUBuildOrderItem@UAlbertaBot@@@?$deque@UBuildOrderItem@UAlbertaBot@@V?$allocator@UBuildOrderItem@UAlbertaBot@@@std@@@std@@AAEXABUBuildOrderItem@UAlbertaBot@@@Z 00436830 f i BuildOrderQueue.obj
 0001:000358b0       ??$move_backward@V?$_Deque_iterator@V?$_Deque_val@U?$_Deque_simple_types@UBuildOrderItem@UAlbertaBot@@@std@@@std@@@std@@V12@@std@@YA?AV?$_Deque_iterator@V?$_Deque_val@U?$_Deque_simple_types@UBuildOrderItem@UAlbertaBot@@@std@@@std@@@0@V10@00@Z 004368b0 f i BuildOrderQueue.obj
 0001:00035920       ??$move@V?$_Deque_iterator@V?$_Deque_val@U?$_Deque_simple_types@UBuildOrderItem@UAlbertaBot@@@std@@@std@@@std@@V12@@std@@YA?AV?$_Deque_iterator@V?$_Deque_val@U?$_Deque_simple_types@UBuildOrderItem@UAlbertaBot@@@std@@@std@@@0@V10@00@Z 00436920 f i BuildOrderQueue.obj
 0001:000359c0       ??$sort@V?$_Deque_iterator@V?$_Deque_val@U?$_Deque_simple_types@UBuildOrderItem@UAlbertaBot@@@std@@@std@@@std@@U?$less@X@2@@std@@YAXV?$_Deque_iterator@V?$_Deque_val@U?$_Deque_simple_types@UBuildOrderItem@UAlbertaBot@@@std@@@std@@@0@0U?$less@X@0@@Z 004369c0 f i BuildOrderQueue.obj
 0001:00035a00       ??$_Move_backward_unchecked@V?$_Deque_unchecked_iterator@V?$_Deque_val@U?$_Deque_simple_types@UBuildOrderItem@UAlbertaBot@@@std@@@std@@@std@@V12@@std@@YA?AV?$_Deque_unchecked_iterator@V?$_Deque_val@U?$_Deque_simple_types@UBuildOrderItem@UAlbertaBot@@@std@@@std@@@0@V10@00@Z 00436a00 f i BuildOrderQueue.obj
 0001:00035a70       ??$_Sort_unchecked@V?$_Deque_unchecked_iterator@V?$_Deque_val@U?$_Deque_simple_types@UBuildOrderItem@UAlbertaBot@@@std@@@std@@@std@@U?$less@X@2@@std@@YAXV?$_Deque_unchecked_iterator@V?$_Deque_val@U?$_Deque_simple_types@UBuildOrderItem@UAlbertaBot@@@std@@@std@@@0@0HU?$less@X@0@@Z 00436a70 f i BuildOrderQueue.obj
 0001:00035d70       ??$_Partition_by_median_guess_unchecked@V?$_Deque_unchecked_iterator@V?$_Deque_val@U?$_Deque_simple_types@UBuildOrderItem@UAlbertaBot@@@std@@@std@@@std@@U?$less@X@2@@std@@YA?AU?$pair@V?$_Deque_unchecked_iterator@V?$_Deque_val@U?$_Deque_simple_types@UBuildOrderItem@UAlbertaBot@@@std@@@std@@@std@@V12@@0@V?$_Deque_unchecked_iterator@V?$_Deque_val@U?$_Deque_simple_types@UBuildOrderItem@UAlbertaBot@@@std@@@std@@@0@0U?$less@X@0@@Z 00436d70 f i BuildOrderQueue.obj
 0001:000361c0       ??$_Pop_heap_hole_by_index@V?$_Deque_unchecked_iterator@V?$_Deque_val@U?$_Deque_simple_types@UBuildOrderItem@UAlbertaBot@@@std@@@std@@@std@@UBuildOrderItem@UAlbertaBot@@U?$less@X@2@@std@@YAXV?$_Deque_unchecked_iterator@V?$_Deque_val@U?$_Deque_simple_types@UBuildOrderItem@UAlbertaBot@@@std@@@std@@@0@HH$$QAUBuildOrderItem@UAlbertaBot@@U?$less@X@0@@Z 004371c0 f i BuildOrderQueue.obj
 0001:00036390       ??$_Med3_unchecked@V?$_Deque_unchecked_iterator@V?$_Deque_val@U?$_Deque_simple_types@UBuildOrderItem@UAlbertaBot@@@std@@@std@@@std@@U?$less@X@2@@std@@YAXV?$_Deque_unchecked_iterator@V?$_Deque_val@U?$_Deque_simple_types@UBuildOrderItem@UAlbertaBot@@@std@@@std@@@0@00U?$less@X@0@@Z 00437390 f i BuildOrderQueue.obj
 0001:000364d0       ??1GameState@SparCraft@@QAE@XZ 004374d0 f i CombatSimulation.obj
 0001:00036530       ?setCombatUnits@CombatSimulation@UAlbertaBot@@QAEXABV?$Point@H$00@BWAPI@@H@Z 00437530 f   CombatSimulation.obj
 0001:00036c40       ??4GameState@SparCraft@@QAEAAV01@ABV01@@Z 00437c40 f i CombatSimulation.obj
 0001:00036e60       ?simulateCombat@CombatSimulation@UAlbertaBot@@QAEHXZ 00437e60 f   CombatSimulation.obj
 0001:000374e0       ??0GameState@SparCraft@@QAE@ABV01@@Z 004384e0 f i CombatSimulation.obj
 0001:00037610       ??1Game@SparCraft@@QAE@XZ  00438610 f i CombatSimulation.obj
 0001:000376a0       ??1?$vector@UUnitInfo@UAlbertaBot@@V?$allocator@UUnitInfo@UAlbertaBot@@@std@@@std@@QAE@XZ 004386a0 f i CombatSimulation.obj
 0001:00037710       ??1?$vector@VAction@SparCraft@@V?$allocator@VAction@SparCraft@@@std@@@std@@QAE@XZ 00438710 f i CombatSimulation.obj
 0001:00037720       ??1?$vector@VUnit@SparCraft@@V?$allocator@VUnit@SparCraft@@@std@@@std@@QAE@XZ 00438720 f i CombatSimulation.obj
 0001:00037730       ??0?$vector@VUnit@SparCraft@@V?$allocator@VUnit@SparCraft@@@std@@@std@@QAE@ABV01@@Z 00438730 f i CombatSimulation.obj
 0001:00037790       ?_Tidy@?$vector@VUnit@SparCraft@@V?$allocator@VUnit@SparCraft@@@std@@@std@@AAEXXZ 00438790 f i CombatSimulation.obj
 0001:00037800       ?_Buy_raw@?$vector@VUnit@SparCraft@@V?$allocator@VUnit@SparCraft@@@std@@@std@@AAEXI@Z 00438800 f i CombatSimulation.obj
 0001:00037890       ??$?0VPlayer_NOKDPS@SparCraft@@$0A@@?$shared_ptr@VPlayer@SparCraft@@@std@@QAE@PAVPlayer_NOKDPS@SparCraft@@@Z 00438890 f i CombatSimulation.obj
 0001:00037930       ??$_Ucopy@PAVUnit@SparCraft@@@?$vector@VUnit@SparCraft@@V?$allocator@VUnit@SparCraft@@@std@@@std@@AAEPAVUnit@SparCraft@@PAV23@00@Z 00438930 f i CombatSimulation.obj
 0001:00037980       ?_Destroy@?$_Ref_count@VPlayer_NOKDPS@SparCraft@@@std@@EAEXXZ 00438980 f i CombatSimulation.obj
 0001:00037990       ??1?$_Temporary_owner@VPlayer_NOKDPS@SparCraft@@@std@@QAE@XZ 00438990 f i CombatSimulation.obj
 0001:000379a0       ?_Clear_and_reserve_geometric@?$vector@VUnit@SparCraft@@V?$allocator@VUnit@SparCraft@@@std@@@std@@AAEXI@Z 004389a0 f i CombatSimulation.obj
 0001:00037a50       ??1SquadOrder@UAlbertaBot@@QAE@XZ 00438a50 f i CombatCommander.obj
 0001:00037aa0       ??1SquadData@UAlbertaBot@@QAE@XZ 00438aa0 f i CombatCommander.obj
 0001:00037ad0       ?initializeSquads@CombatCommander@UAlbertaBot@@AAEXXZ 00438ad0 f   CombatCommander.obj
 0001:00038630       ?update@CombatCommander@UAlbertaBot@@QAEXABVUnitset@BWAPI@@@Z 00439630 f   CombatCommander.obj
 0001:00038850       ?updateCorsairSquads@CombatCommander@UAlbertaBot@@AAEXXZ 00439850 f   CombatCommander.obj
 0001:00038af0       ?updateAttackSquads@CombatCommander@UAlbertaBot@@AAEXXZ 00439af0 f   CombatCommander.obj
 0001:00038de0       ?updateDropSquads@CombatCommander@UAlbertaBot@@AAEXXZ 00439de0 f   CombatCommander.obj
 0001:00039230       ?updateScoutDefenseSquad@CombatCommander@UAlbertaBot@@AAEXXZ 0043a230 f   CombatCommander.obj
 0001:00039750       ?updateDefenseSquads@CombatCommander@UAlbertaBot@@AAEXXZ 0043a750 f   CombatCommander.obj
 0001:0003a500       ??1?$set@V?$basic_string@DU?$char_traits@D@std@@V?$allocator@D@2@@std@@U?$less@V?$basic_string@DU?$char_traits@D@std@@V?$allocator@D@2@@std@@@2@V?$allocator@V?$basic_string@DU?$char_traits@D@std@@V?$allocator@D@2@@std@@@2@@std@@QAE@XZ 0043b500 f i CombatCommander.obj
 0001:0003a520       ?updateDefenseSquadUnits@CombatCommander@UAlbertaBot@@AAEXAAVSquad@2@ABI1@Z 0043b520 f   CombatCommander.obj
 0001:0003a700       ?findClosestDefender@CombatCommander@UAlbertaBot@@AAEPAVUnitInterface@BWAPI@@ABVSquad@2@V?$Point@H$00@4@_N@Z 0043b700 f   CombatCommander.obj
 0001:0003a910       ?getMainAttackLocation@CombatCommander@UAlbertaBot@@AAE?AV?$Point@H$00@BWAPI@@XZ 0043b910 f   CombatCommander.obj
 0001:0003b370       ??0?$basic_string@DU?$char_traits@D@std@@V?$allocator@D@2@@std@@QAE@ABV01@@Z 0043c370 f i CombatCommander.obj
 0001:0003b400       ??$_Erase_tree@V?$allocator@U?$_Tree_node@V?$basic_string@DU?$char_traits@D@std@@V?$allocator@D@2@@std@@PAX@std@@@std@@@?$_Tree_val@U?$_Tree_simple_types@V?$basic_string@DU?$char_traits@D@std@@V?$allocator@D@2@@std@@@std@@@std@@QAEXAAV?$allocator@U?$_Tree_node@V?$basic_string@DU?$char_traits@D@std@@V?$allocator@D@2@@std@@PAX@std@@@1@PAU?$_Tree_node@V?$basic_string@DU?$char_traits@D@std@@V?$allocator@D@2@@std@@PAX@1@@Z 0043c400 f i CombatCommander.obj
 0001:0003b490       ??$_Erase_tree@V?$allocator@U?$_Tree_node@U?$pair@$$CBV?$basic_string@DU?$char_traits@D@std@@V?$allocator@D@2@@std@@VSquad@UAlbertaBot@@@std@@PAX@std@@@std@@@?$_Tree_val@U?$_Tree_simple_types@U?$pair@$$CBV?$basic_string@DU?$char_traits@D@std@@V?$allocator@D@2@@std@@VSquad@UAlbertaBot@@@std@@@std@@@std@@QAEXAAV?$allocator@U?$_Tree_node@U?$pair@$$CBV?$basic_string@DU?$char_traits@D@std@@V?$allocator@D@2@@std@@VSquad@UAlbertaBot@@@std@@PAX@std@@@1@PAU?$_Tree_node@U?$pair@$$CBV?$basic_string@DU?$char_traits@D@std@@V?$allocator@D@2@@std@@VSquad@UAlbertaBot@@@std@@PAX@1@@Z 0043c490 f i CombatCommander.obj
 0001:0003b4f0       ??$emplace_hint@ABQAVUnitInterface@BWAPI@@@?$_Hash@V?$_Uset_traits@PAVUnitInterface@BWAPI@@V?$_Uhash_compare@PAVUnitInterface@BWAPI@@U?$hash@PAX@std@@U?$equal_to@PAVUnitInterface@BWAPI@@@4@@std@@V?$allocator@PAVUnitInterface@BWAPI@@@4@$0A@@std@@@std@@QAE?AV?$_List_const_iterator@V?$_List_val@U?$_List_simple_types@PAVUnitInterface@BWAPI@@@std@@@std@@@1@V21@ABQAVUnitInterface@BWAPI@@@Z 0043c4f0 f i CombatCommander.obj
 0001:0003b6f0       ??1?$pair@$$CBV?$basic_string@DU?$char_traits@D@std@@V?$allocator@D@2@@std@@VSquad@UAlbertaBot@@@std@@QAE@XZ 0043c6f0 f i CombatCommander.obj
 0001:0003b750       ??1MicroManager@UAlbertaBot@@UAE@XZ 0043c750 f i CorsairManager.obj
 0001:0003b7b0       ??_ECorsairManager@UAlbertaBot@@UAEPAXI@Z 0043c7b0 f i * CIL library *:* CIL module *
 0001:0003b7b0       ??_EMeleeManager@UAlbertaBot@@UAEPAXI@Z 0043c7b0 f i * CIL library *:* CIL module *
 0001:0003b7b0       ??_EMedicManager@UAlbertaBot@@UAEPAXI@Z 0043c7b0 f i * CIL library *:* CIL module *
 0001:0003b7b0       ??_ERangedManager@UAlbertaBot@@UAEPAXI@Z 0043c7b0 f i * CIL library *:* CIL module *
 0001:0003b7b0       ??_EMicroManager@UAlbertaBot@@UAEPAXI@Z 0043c7b0 f i * CIL library *:* CIL module *
 0001:0003b7b0       ??_GCorsairManager@UAlbertaBot@@UAEPAXI@Z 0043c7b0 f i CorsairManager.obj
 0001:0003b7b0       ??_GRangedManager@UAlbertaBot@@UAEPAXI@Z 0043c7b0 f i RangedManager.obj
 0001:0003b7b0       ??_GMeleeManager@UAlbertaBot@@UAEPAXI@Z 0043c7b0 f i MeleeManager.obj
 0001:0003b7b0       ??_GMedicManager@UAlbertaBot@@UAEPAXI@Z 0043c7b0 f i MedicManager.obj
 0001:0003b7b0       ??_ETankManager@UAlbertaBot@@UAEPAXI@Z 0043c7b0 f i * CIL library *:* CIL module *
 0001:0003b7b0       ??_GTankManager@UAlbertaBot@@UAEPAXI@Z 0043c7b0 f i TankManager.obj
 0001:0003b7b0       ??_GMicroManager@UAlbertaBot@@UAEPAXI@Z 0043c7b0 f i CorsairManager.obj
 0001:0003b7e0       ??1MeleeManager@UAlbertaBot@@UAE@XZ 0043c7e0 f i MeleeManager.obj
 0001:0003b7e0       ??1TankManager@UAlbertaBot@@UAE@XZ 0043c7e0 f i Squad.obj
 0001:0003b7e0       ??1CorsairManager@UAlbertaBot@@UAE@XZ 0043c7e0 f i CorsairManager.obj
 0001:0003b7e0       ??1MedicManager@UAlbertaBot@@UAE@XZ 0043c7e0 f i MedicManager.obj
 0001:0003b7e0       ??1RangedManager@UAlbertaBot@@UAE@XZ 0043c7e0 f i RangedManager.obj
 0001:0003b7f0       ?executeMicro@CorsairManager@UAlbertaBot@@UAEXABVUnitset@BWAPI@@@Z 0043c7f0 f   CorsairManager.obj
 0001:0003b890       ??0Unitset@BWAPI@@QAE@ABV01@@Z 0043c890 f i CorsairManager.obj
 0001:0003b950       ?erase@?$_Hash@V?$_Uset_traits@PAVUnitInterface@BWAPI@@V?$_Uhash_compare@PAVUnitInterface@BWAPI@@U?$hash@PAX@std@@U?$equal_to@PAVUnitInterface@BWAPI@@@4@@std@@V?$allocator@PAVUnitInterface@BWAPI@@@4@$0A@@std@@@std@@QAEIABQAVUnitInterface@BWAPI@@@Z 0043c950 f i CorsairManager.obj
 0001:0003baa0       ??$insert@V?$_List_unchecked_const_iterator@V?$_List_val@U?$_List_simple_types@PAVUnitInterface@BWAPI@@@std@@@std@@U_Iterator_base0@2@@std@@@?$_Hash@V?$_Uset_traits@PAVUnitInterface@BWAPI@@V?$_Uhash_compare@PAVUnitInterface@BWAPI@@U?$hash@PAX@std@@U?$equal_to@PAVUnitInterface@BWAPI@@@4@@std@@V?$allocator@PAVUnitInterface@BWAPI@@@4@$0A@@std@@@std@@QAEXV?$_List_unchecked_const_iterator@V?$_List_val@U?$_List_simple_types@PAVUnitInterface@BWAPI@@@std@@@std@@U_Iterator_base0@2@@1@0@Z 0043caa0 f i CorsairManager.obj
 0001:0003bae0       ??0DetectorManager@UAlbertaBot@@QAE@XZ 0043cae0 f   DetectorManager.obj
 0001:0003bbb0       ??_GDetectorManager@UAlbertaBot@@UAEPAXI@Z 0043cbb0 f i DetectorManager.obj
 0001:0003bbb0       ??_EDetectorManager@UAlbertaBot@@UAEPAXI@Z 0043cbb0 f i * CIL library *:* CIL module *
 0001:0003bc00       ??1DetectorManager@UAlbertaBot@@UAE@XZ 0043cc00 f i DetectorManager.obj
 0001:0003bc30       ?executeMicro@DetectorManager@UAlbertaBot@@UAEXABVUnitset@BWAPI@@@Z 0043cc30 f   DetectorManager.obj
 0001:0003c010       ??A?$map@PAVUnitInterface@BWAPI@@_NU?$less@PAVUnitInterface@BWAPI@@@std@@V?$allocator@U?$pair@QAVUnitInterface@BWAPI@@_N@std@@@4@@std@@QAEAA_NABQAVUnitInterface@BWAPI@@@Z 0043d010 f i DetectorManager.obj
 0001:0003c0f0       ?getDistance@DistanceMap@UAlbertaBot@@QBEHABV?$Point@H$00@BWAPI@@@Z 0043d0f0 f   DistanceMap.obj
 0001:0003c160       ?computeDistanceMap@DistanceMap@UAlbertaBot@@QAEXABV?$Point@H$0CA@@BWAPI@@@Z 0043d160 f   DistanceMap.obj
 0001:0003c4e0       ?_Reallocate_exactly@?$vector@V?$Point@H$0CA@@BWAPI@@V?$allocator@V?$Point@H$0CA@@BWAPI@@@std@@@std@@AAEXI@Z 0043d4e0 f i DistanceMap.obj
 0001:0003c540       ??1?$Grid2D@D@@QAE@XZ      0043d540 f i Global.obj
 0001:0003c550       ?Instance@Global@UAlbertaBot@@CAAAV12@XZ 0043d550 f   Global.obj
 0001:0003c5c0       ?init@Global@UAlbertaBot@@AAEXXZ 0043d5c0 f   Global.obj
 0001:0003c8e0       ?Info@Global@UAlbertaBot@@SAAAVInformationManager@2@XZ 0043d8e0 f   Global.obj
 0001:0003c980       ?Strategy@Global@UAlbertaBot@@SAAAVStrategyManager@2@XZ 0043d980 f   Global.obj
 0001:0003ca90       ?Scout@Global@UAlbertaBot@@SAAAVScoutManager@2@XZ 0043da90 f   Global.obj
 0001:0003cb70       ??1?$vector@DV?$allocator@D@std@@@std@@QAE@XZ 0043db70 f i Global.obj
 0001:0003cbc0       ?_Tidy@?$vector@V?$vector@DV?$allocator@D@std@@@std@@V?$allocator@V?$vector@DV?$allocator@D@std@@@std@@@2@@std@@AAEXXZ 0043dbc0 f i Global.obj
 0001:0003cc40       ??$_Destroy_range@V?$allocator@V?$vector@DV?$allocator@D@std@@@std@@@std@@@std@@YAXPAV?$vector@DV?$allocator@D@std@@@0@QAV10@AAV?$allocator@V?$vector@DV?$allocator@D@std@@@std@@@0@@Z 0043dc40 f i Global.obj
 0001:0003ccb0       ??1StarDraftMap@@QAE@XZ    0043dcb0 f i Global.obj
 0001:0003ccf0       ??1?$map@U?$pair@HH@std@@VDistanceMap@UAlbertaBot@@U?$less@U?$pair@HH@std@@@2@V?$allocator@U?$pair@$$CBU?$pair@HH@std@@VDistanceMap@UAlbertaBot@@@std@@@2@@std@@QAE@XZ 0043dcf0 f i Global.obj
 0001:0003cd10       ??1?$map@PAVPlayerInterface@BWAPI@@VUnitData@UAlbertaBot@@U?$less@PAVPlayerInterface@BWAPI@@@std@@V?$allocator@U?$pair@QAVPlayerInterface@BWAPI@@VUnitData@UAlbertaBot@@@std@@@6@@std@@QAE@XZ 0043dd10 f i Global.obj
 0001:0003cd30       ??1WorkerData@UAlbertaBot@@QAE@XZ 0043dd30 f i Global.obj
 0001:0003cea0       ??1BuildingManager@UAlbertaBot@@QAE@XZ 0043dea0 f i Global.obj
 0001:0003cec0       ??1BOSSManager@UAlbertaBot@@QAE@XZ 0043dec0 f i Global.obj
 0001:0003cfa0       ??1BuildOrderQueue@UAlbertaBot@@QAE@XZ 0043dfa0 f i Global.obj
 0001:0003cfc0       ??1?$map@V?$basic_string@DU?$char_traits@D@std@@V?$allocator@D@2@@std@@UStrategy@UAlbertaBot@@U?$less@V?$basic_string@DU?$char_traits@D@std@@V?$allocator@D@2@@std@@@2@V?$allocator@U?$pair@$$CBV?$basic_string@DU?$char_traits@D@std@@V?$allocator@D@2@@std@@UStrategy@UAlbertaBot@@@std@@@2@@std@@QAE@XZ 0043dfc0 f i Global.obj
 0001:0003cfe0       ??1?$map@PAVUnitInterface@BWAPI@@VWorkerMoveData@UAlbertaBot@@U?$less@PAVUnitInterface@BWAPI@@@std@@V?$allocator@U?$pair@QAVUnitInterface@BWAPI@@VWorkerMoveData@UAlbertaBot@@@std@@@6@@std@@QAE@XZ 0043dfe0 f i Global.obj
 0001:0003d000       ??$_Erase_tree@V?$allocator@U?$_Tree_node@U?$pair@$$CBV?$basic_string@DU?$char_traits@D@std@@V?$allocator@D@2@@std@@UStrategy@UAlbertaBot@@@std@@PAX@std@@@std@@@?$_Tree_val@U?$_Tree_simple_types@U?$pair@$$CBV?$basic_string@DU?$char_traits@D@std@@V?$allocator@D@2@@std@@UStrategy@UAlbertaBot@@@std@@@std@@@std@@QAEXAAV?$allocator@U?$_Tree_node@U?$pair@$$CBV?$basic_string@DU?$char_traits@D@std@@V?$allocator@D@2@@std@@UStrategy@UAlbertaBot@@@std@@PAX@std@@@1@PAU?$_Tree_node@U?$pair@$$CBV?$basic_string@DU?$char_traits@D@std@@V?$allocator@D@2@@std@@UStrategy@UAlbertaBot@@@std@@PAX@1@@Z 0043e000 f i Global.obj
 0001:0003d050       ??$_Erase_tree@V?$allocator@U?$_Tree_node@U?$pair@QAVUnitInterface@BWAPI@@VWorkerMoveData@UAlbertaBot@@@std@@PAX@std@@@std@@@?$_Tree_val@U?$_Tree_simple_types@U?$pair@QAVUnitInterface@BWAPI@@VWorkerMoveData@UAlbertaBot@@@std@@@std@@@std@@QAEXAAV?$allocator@U?$_Tree_node@U?$pair@QAVUnitInterface@BWAPI@@VWorkerMoveData@UAlbertaBot@@@std@@PAX@std@@@1@PAU?$_Tree_node@U?$pair@QAVUnitInterface@BWAPI@@VWorkerMoveData@UAlbertaBot@@@std@@PAX@1@@Z 0043e050 f i Global.obj
 0001:0003d090       ??$_Erase_tree@V?$allocator@U?$_Tree_node@U?$pair@QAVPlayerInterface@BWAPI@@VUnitData@UAlbertaBot@@@std@@PAX@std@@@std@@@?$_Tree_val@U?$_Tree_simple_types@U?$pair@QAVPlayerInterface@BWAPI@@VUnitData@UAlbertaBot@@@std@@@std@@@std@@QAEXAAV?$allocator@U?$_Tree_node@U?$pair@QAVPlayerInterface@BWAPI@@VUnitData@UAlbertaBot@@@std@@PAX@std@@@1@PAU?$_Tree_node@U?$pair@QAVPlayerInterface@BWAPI@@VUnitData@UAlbertaBot@@@std@@PAX@1@@Z 0043e090 f i Global.obj
 0001:0003d100       ??$_Erase_tree@V?$allocator@U?$_Tree_node@U?$pair@$$CBU?$pair@HH@std@@VDistanceMap@UAlbertaBot@@@std@@PAX@std@@@std@@@?$_Tree_val@U?$_Tree_simple_types@U?$pair@$$CBU?$pair@HH@std@@VDistanceMap@UAlbertaBot@@@std@@@std@@@std@@QAEXAAV?$allocator@U?$_Tree_node@U?$pair@$$CBU?$pair@HH@std@@VDistanceMap@UAlbertaBot@@@std@@PAX@std@@@1@PAU?$_Tree_node@U?$pair@$$CBU?$pair@HH@std@@VDistanceMap@UAlbertaBot@@@std@@PAX@1@@Z 0043e100 f i Global.obj
 0001:0003d160       ??1?$pair@$$CBV?$basic_string@DU?$char_traits@D@std@@V?$allocator@D@2@@std@@UStrategy@UAlbertaBot@@@std@@QAE@XZ 0043e160 f i Global.obj
 0001:0003d1c0       ??1Strategy@UAlbertaBot@@QAE@XZ 0043e1c0 f i Global.obj
 0001:0003d220       ??1?$map@PAVUnitInterface@BWAPI@@UUnitInfo@UAlbertaBot@@U?$less@PAVUnitInterface@BWAPI@@@std@@V?$allocator@U?$pair@QAVUnitInterface@BWAPI@@UUnitInfo@UAlbertaBot@@@std@@@6@@std@@QAE@XZ 0043e220 f i Global.obj
 0001:0003d240       ??$_Erase_tree@V?$allocator@U?$_Tree_node@U?$pair@QAVUnitInterface@BWAPI@@UUnitInfo@UAlbertaBot@@@std@@PAX@std@@@std@@@?$_Tree_val@U?$_Tree_simple_types@U?$pair@QAVUnitInterface@BWAPI@@UUnitInfo@UAlbertaBot@@@std@@@std@@@std@@QAEXAAV?$allocator@U?$_Tree_node@U?$pair@QAVUnitInterface@BWAPI@@UUnitInfo@UAlbertaBot@@@std@@PAX@std@@@1@PAU?$_Tree_node@U?$pair@QAVUnitInterface@BWAPI@@UUnitInfo@UAlbertaBot@@@std@@PAX@1@@Z 0043e240 f i Global.obj
 0001:0003d280       ?UAlbertaBot_BWAPIReconnect@@YAXXZ 0043e280 f   main.obj
 0001:0003d2c0       ?UAlbertaBot_PlayGame@@YAXXZ 0043e2c0 f   main.obj
 0001:0003d710       ??1UAlbertaBotModule@UAlbertaBot@@QAE@XZ 0043e710 f i main.obj
 0001:0003d770       ??1CombatCommander@UAlbertaBot@@QAE@XZ 0043e770 f i main.obj
 0001:0003d7a0       ??1TimerManager@UAlbertaBot@@QAE@XZ 0043e7a0 f i main.obj
 0001:0003d7c0       _main                      0043e7c0 f   main.obj
 0001:0003db00       ??1?$vector@VTimer@BOSS@@V?$allocator@VTimer@BOSS@@@std@@@std@@QAE@XZ 0043eb00 f i main.obj
 0001:0003db10       ??$sleep_for@_JU?$ratio@$00$0DOI@@std@@@this_thread@std@@YAXABV?$duration@_JU?$ratio@$00$0DOI@@std@@@chrono@1@@Z 0043eb10 f i main.obj
 0001:0003dd10       ?update@GameCommander@UAlbertaBot@@QAEXXZ 0043ed10 f   GameCommander.obj
 0001:0003e000       ?drawDebugInterface@GameCommander@UAlbertaBot@@QAEXXZ 0043f000 f   GameCommander.obj
 0001:0003e130       ?drawGameInformation@GameCommander@UAlbertaBot@@QAEXHH@Z 0043f130 f   GameCommander.obj
 0001:0003e460       ?handleUnitAssignments@GameCommander@UAlbertaBot@@QAEXXZ 0043f460 f   GameCommander.obj
 0001:0003e4f0       ?setScoutUnits@GameCommander@UAlbertaBot@@QAEXXZ 0043f4f0 f   GameCommander.obj
 0001:0003e9b0       ?setCombatUnits@GameCommander@UAlbertaBot@@QAEXXZ 0043f9b0 f   GameCommander.obj
 0001:0003eb80       ?onUnitDestroy@GameCommander@UAlbertaBot@@QAEXPAVUnitInterface@BWAPI@@@Z 0043fb80 f   GameCommander.obj
 0001:0003ee20       ?assignUnit@GameCommander@UAlbertaBot@@AAEXPAVUnitInterface@BWAPI@@AAVUnitset@4@@Z 0043fe20 f   GameCommander.obj
 0001:0003eed0       ?contains@?$SetContainer@PAVUnitInterface@BWAPI@@U?$hash@PAX@std@@@BWAPI@@QBE_NABQAVUnitInterface@2@@Z 0043fed0 f i GameCommander.obj
 0001:0003ef40       ?updateUnitInfo@InformationManager@UAlbertaBot@@AAEXXZ 0043ff40 f   InformationManager.obj
 0001:0003f010       ?drawExtendedInterface@InformationManager@UAlbertaBot@@QAEXXZ 00440010 f   InformationManager.obj
 0001:0003f810       ?drawUnitInformation@InformationManager@UAlbertaBot@@QAEXHH@Z 00440810 f   InformationManager.obj
 0001:0003fbc0       ?updateUnit@InformationManager@UAlbertaBot@@AAEXPAVUnitInterface@BWAPI@@@Z 00440bc0 f   InformationManager.obj
 0001:0003fd70       ?getNearbyForce@InformationManager@UAlbertaBot@@QAEXAAV?$vector@UUnitInfo@UAlbertaBot@@V?$allocator@UUnitInfo@UAlbertaBot@@@std@@@std@@V?$Point@H$00@BWAPI@@PAVPlayerInterface@6@H@Z 00440d70 f   InformationManager.obj
 0001:0003fed0       ?enemyHasCloakedUnits@InformationManager@UAlbertaBot@@QAE_NXZ 00440ed0 f   InformationManager.obj
 0001:0003ffe0       ??A?$map@PAVPlayerInterface@BWAPI@@VUnitData@UAlbertaBot@@U?$less@PAVPlayerInterface@BWAPI@@@std@@V?$allocator@U?$pair@QAVPlayerInterface@BWAPI@@VUnitData@UAlbertaBot@@@std@@@6@@std@@QAEAAVUnitData@UAlbertaBot@@$$QAPAVPlayerInterface@BWAPI@@@Z 00440fe0 f i InformationManager.obj
 0001:000400b0       ?getDistance@?$Point@H$00@BWAPI@@QBENABV12@@Z 004410b0 f i InformationManager.obj
 0001:00040100       ??$_Emplace_reallocate@ABUUnitInfo@UAlbertaBot@@@?$vector@UUnitInfo@UAlbertaBot@@V?$allocator@UUnitInfo@UAlbertaBot@@@std@@@std@@QAEPAUUnitInfo@UAlbertaBot@@QAU23@ABU23@@Z 00441100 f i InformationManager.obj
 0001:00040300       ??1?$_Alloc_construct_ptr@V?$allocator@U?$_Tree_node@U?$pair@QAVPlayerInterface@BWAPI@@VUnitData@UAlbertaBot@@@std@@PAX@std@@@std@@@std@@QAE@XZ 00441300 f i InformationManager.obj
 0001:00040300       ??1?$_Tree_temp_node_alloc@V?$allocator@U?$_Tree_node@U?$pair@QAVPlayerInterface@BWAPI@@VUnitData@UAlbertaBot@@@std@@PAX@std@@@std@@@std@@QAE@XZ 00441300 f i InformationManager.obj
 0001:00040320       ??$?0ABUpiecewise_construct_t@std@@V?$tuple@$$QAPAVPlayerInterface@BWAPI@@@1@V?$tuple@$$V@1@@?$_Tree_temp_node@V?$allocator@U?$_Tree_node@U?$pair@QAVPlayerInterface@BWAPI@@VUnitData@UAlbertaBot@@@std@@PAX@std@@@std@@@std@@QAE@AAV?$allocator@U?$_Tree_node@U?$pair@QAVPlayerInterface@BWAPI@@VUnitData@UAlbertaBot@@@std@@PAX@std@@@1@PAU?$_Tree_node@U?$pair@QAVPlayerInterface@BWAPI@@VUnitData@UAlbertaBot@@@std@@PAX@1@ABUpiecewise_construct_t@1@$$QAV?$tuple@$$QAPAVPlayerInterface@BWAPI@@@1@$$QAV?$tuple@$$V@1@@Z 00441320 f i InformationManager.obj
 0001:000404f0       ?ReadBool@JSONTools@UAlbertaBot@@YAXPBDABV?$GenericValue@U?$UTF8@D@rapidjson@@V?$MemoryPoolAllocator@VCrtAllocator@rapidjson@@@2@@rapidjson@@AA_N@Z 004414f0 f   JSONTools.obj
 0001:000405b0       ?ReadString@JSONTools@UAlbertaBot@@YAXPBDABV?$GenericValue@U?$UTF8@D@rapidjson@@V?$MemoryPoolAllocator@VCrtAllocator@rapidjson@@@2@@rapidjson@@AAV?$basic_string@DU?$char_traits@D@std@@V?$allocator@D@2@@std@@@Z 004415b0 f   JSONTools.obj
 0001:00040680       __initialize_denormal_control 00441680 f i MSVCRT:denormal_control.obj
 0001:00040680       @_guard_check_icall_nop@4  00441680 f i MSVCRT:guard_support.obj
 0001:00040680       ??1?$GenericValue@U?$UTF8@D@rapidjson@@V?$MemoryPoolAllocator@VCrtAllocator@rapidjson@@@2@@rapidjson@@QAE@XZ 00441680 f i JSONTools.obj
 0001:00040680       __initialize_invalid_parameter_handler 00441680 f i MSVCRT:invalid_parameter_handler.obj
 0001:00040690       ??$FindMember@V?$MemoryPoolAllocator@VCrtAllocator@rapidjson@@@rapidjson@@@?$GenericValue@U?$UTF8@D@rapidjson@@V?$MemoryPoolAllocator@VCrtAllocator@rapidjson@@@2@@rapidjson@@QAE?AV?$GenericMemberIterator@$0A@U?$UTF8@D@rapidjson@@V?$MemoryPoolAllocator@VCrtAllocator@rapidjson@@@2@@1@ABV01@@Z 00441690 f i JSONTools.obj
 0001:00040790       ??$?A$$CBD@?$GenericValue@U?$UTF8@D@rapidjson@@V?$MemoryPoolAllocator@VCrtAllocator@rapidjson@@@2@@rapidjson@@QAEAAV01@PBD@Z 00441790 f i JSONTools.obj
 0001:00040870       ___local_stdio_printf_options 00441870 f i Logger.obj
 0001:00040880       __vsnprintf_s_l            00441880 f i Logger.obj
 0001:000408c0       ??0?$basic_ofstream@DU?$char_traits@D@std@@@std@@QAE@XZ 004418c0 f i Logger.obj
 0001:000409a0       ??0MapTools@UAlbertaBot@@AAE@XZ 004419a0 f   MapTools.obj
 0001:00040bc0       ?onStart@MapTools@UAlbertaBot@@QAEXXZ 00441bc0 f   MapTools.obj
 0001:000412b0       ?onFrame@MapTools@UAlbertaBot@@QAEXXZ 004422b0 f   MapTools.obj
 0001:00041350       ?computeMap@MapTools@UAlbertaBot@@AAEXXZ 00442350 f   MapTools.obj
 0001:00041bd0       ??4StarDraftMap@@QAEAAV0@$$QAV0@@Z 00442bd0 f i MapTools.obj
 0001:00041d40       ?computeConnectivity@MapTools@UAlbertaBot@@AAEXXZ 00442d40 f   MapTools.obj
 0001:00041ff0       ?getGroundDistance@MapTools@UAlbertaBot@@QBEHABV?$Point@H$00@BWAPI@@0@Z 00442ff0 f   MapTools.obj
 0001:000420b0       ?getDistanceMap@MapTools@UAlbertaBot@@QBEABVDistanceMap@2@ABV?$Point@H$0CA@@BWAPI@@@Z 004430b0 f   MapTools.obj
 0001:000421b0       ?isValidTile@MapTools@UAlbertaBot@@QBE_NABV?$Point@H$0CA@@BWAPI@@@Z 004431b0 f   MapTools.obj
 0001:000421e0       ?drawTile@MapTools@UAlbertaBot@@QBEXHHABVColor@BWAPI@@@Z 004431e0 f   MapTools.obj
 0001:00042270       ?getClosestTilesTo@MapTools@UAlbertaBot@@QBEABV?$vector@V?$Point@H$0CA@@BWAPI@@V?$allocator@V?$Point@H$0CA@@BWAPI@@@std@@@std@@ABV?$Point@H$00@BWAPI@@@Z 00443270 f   MapTools.obj
 0001:000422b0       ?getLeastRecentlySeenTileEnemy@MapTools@UAlbertaBot@@QBE?AV?$Point@H$0CA@@BWAPI@@XZ 004432b0 f   MapTools.obj
 0001:000424b0       ?sortBaseLocationsByDistance@MapTools@UAlbertaBot@@QBE?AV?$vector@PBVBaseLocation@UAlbertaBot@@V?$allocator@PBVBaseLocation@UAlbertaBot@@@std@@@std@@PBVBaseLocation@2@@Z 004434b0 f   MapTools.obj
 0001:00042580       ?getLeastRecentlySeenBaseEnemy@MapTools@UAlbertaBot@@QBE?AV?$Point@H$0CA@@BWAPI@@XZ 00443580 f   MapTools.obj
 0001:00042ad0       ?getLeastRecentlySeenStartingBase@MapTools@UAlbertaBot@@QBE?AV?$Point@H$0CA@@BWAPI@@XZ 00443ad0 f   MapTools.obj
 0001:00042f50       ?draw@MapTools@UAlbertaBot@@QBEXXZ 00443f50 f   MapTools.obj
 0001:00043370       ?getUnits@MapTools@UAlbertaBot@@QAEXAAVUnitset@BWAPI@@V?$Point@H$00@4@H_N2@Z 00444370 f   MapTools.obj
 0001:000434f0       ?findCLosestChokepointPosEnemyNew@MapTools@UAlbertaBot@@SA?AV?$Point@H$0CA@@BWAPI@@XZ 004444f0 f   MapTools.obj
 0001:00043800       ?findCLosestChokepointPosEnemy@MapTools@UAlbertaBot@@SA?AV?$Point@H$0CA@@BWAPI@@XZ 00444800 f   MapTools.obj
 0001:000439a0       ?findCLosestChokepointPos@MapTools@UAlbertaBot@@SA?AV?$Point@H$0CA@@BWAPI@@XZ 004449a0 f   MapTools.obj
 0001:00043aa0       ?findCLosestChokepoint@MapTools@UAlbertaBot@@QBEPBVChokePoint@BWEM@@XZ 00444aa0 f   MapTools.obj
 0001:00043b70       ??A?$map@U?$pair@HH@std@@VDistanceMap@UAlbertaBot@@U?$less@U?$pair@HH@std@@@2@V?$allocator@U?$pair@$$CBU?$pair@HH@std@@VDistanceMap@UAlbertaBot@@@std@@@2@@std@@QAEAAVDistanceMap@UAlbertaBot@@ABU?$pair@HH@1@@Z 00444b70 f i MapTools.obj
 0001:00043c90       ??0?$Grid2D@D@@QAE@IID@Z   00444c90 f i MapTools.obj
 0001:00043d90       ?_Reallocate_exactly@?$vector@V?$array@H$01@std@@V?$allocator@V?$array@H$01@std@@@2@@std@@AAEXI@Z 00444d90 f i MapTools.obj
 0001:00043de0       ?_Xrange@?$vector@PBVBaseLocation@UAlbertaBot@@V?$allocator@PBVBaseLocation@UAlbertaBot@@@std@@@std@@CAXXZ 00444de0 f i MapTools.obj
 0001:00043df0       ??0?$vector@V?$vector@DV?$allocator@D@std@@@std@@V?$allocator@V?$vector@DV?$allocator@D@std@@@std@@@2@@std@@QAE@IABV?$vector@DV?$allocator@D@std@@@1@ABV?$allocator@V?$vector@DV?$allocator@D@std@@@std@@@1@@Z 00444df0 f i MapTools.obj
 0001:00043f70       ??$_Emplace_reallocate@V?$array@H$01@std@@@?$vector@V?$array@H$01@std@@V?$allocator@V?$array@H$01@std@@@2@@std@@QAEPAV?$array@H$01@1@QAV21@$$QAV21@@Z 00444f70 f i MapTools.obj
 0001:00044050       ??1?$_Tidy_guard@V?$vector@V?$vector@DV?$allocator@D@std@@@std@@V?$allocator@V?$vector@DV?$allocator@D@std@@@std@@@2@@std@@@std@@QAE@XZ 00445050 f i MapTools.obj
 0001:00044060       ??1?$_Tidy_guard@V?$vector@DV?$allocator@D@std@@@std@@@std@@QAE@XZ 00445060 f i MapTools.obj
 0001:000440c0       ??1?$_Alloc_construct_ptr@V?$allocator@U?$_Tree_node@U?$pair@$$CBU?$pair@HH@std@@VDistanceMap@UAlbertaBot@@@std@@PAX@std@@@std@@@std@@QAE@XZ 004450c0 f i MapTools.obj
 0001:00044200       ??$_Find_lower_bound@U?$pair@HH@std@@@?$_Tree@V?$_Tmap_traits@U?$pair@HH@std@@VDistanceMap@UAlbertaBot@@U?$less@U?$pair@HH@std@@@2@V?$allocator@U?$pair@$$CBU?$pair@HH@std@@VDistanceMap@UAlbertaBot@@@std@@@2@$0A@@std@@@std@@IBE?AU?$_Tree_find_result@PAU?$_Tree_node@U?$pair@$$CBU?$pair@HH@std@@VDistanceMap@UAlbertaBot@@@std@@PAX@std@@@1@ABU?$pair@HH@1@@Z 00445200 f i MapTools.obj
 0001:00044260       ??1?$_Uninitialized_backout_al@V?$allocator@V?$vector@DV?$allocator@D@std@@@std@@@std@@@std@@QAE@XZ 00445260 f i MapTools.obj
 0001:000450d0       ?executeMicro@MedicManager@UAlbertaBot@@UAEXABVUnitset@BWAPI@@@Z 004460d0 f   MedicManager.obj
 0001:00045320       ?executeMicro@MeleeManager@UAlbertaBot@@UAEXABVUnitset@BWAPI@@@Z 00446320 f   MeleeManager.obj
 0001:00045330       ?assignTargetsOld@MeleeManager@UAlbertaBot@@QAEXABVUnitset@BWAPI@@@Z 00446330 f   MeleeManager.obj
 0001:000455a0       ?getTarget@MeleeManager@UAlbertaBot@@QAEPAVUnitInterface@BWAPI@@PAV34@ABVUnitset@4@@Z 004465a0 f   MeleeManager.obj
 0001:00045760       ??0UpgradeType@BWAPI@@QAE@H@Z 00446760 f i MetaType.obj
 0001:00045780       ??0TechType@BWAPI@@QAE@H@Z 00446780 f i MetaType.obj
 0001:000457a0       ??0MetaType@UAlbertaBot@@QAE@ABV?$basic_string@DU?$char_traits@D@std@@V?$allocator@D@2@@std@@@Z 004467a0 f   MetaType.obj
 0001:00045ec0       ?getName@MetaType@UAlbertaBot@@QBE?AV?$basic_string@DU?$char_traits@D@std@@V?$allocator@D@2@@std@@XZ 00446ec0 f   MetaType.obj
 0001:00045fa0       ?getName@?$Type@VTechType@BWAPI@@$0CO@@BWAPI@@QBEABV?$basic_string@DU?$char_traits@D@std@@V?$allocator@D@2@@std@@XZ 00446fa0 f i MetaType.obj
 0001:00045fc0       ?getName@?$Type@VUpgradeType@BWAPI@@$0DO@@BWAPI@@QBEABV?$basic_string@DU?$char_traits@D@std@@V?$allocator@D@2@@std@@XZ 00446fc0 f i MetaType.obj
 0001:00045fe0       ??$_Traits_compare@U?$char_traits@D@std@@@std@@YAHQBDI0I@Z 00446fe0 f i MetaType.obj
 0001:00046060       ?execute@MicroManager@UAlbertaBot@@QAEXABVSquadOrder@2@@Z 00447060 f   MicroManager.obj
 0001:00046550       ?regroup@MicroManager@UAlbertaBot@@QBEXABV?$Point@H$00@BWAPI@@@Z 00447550 f   MicroManager.obj
 0001:000466b0       ??1?$_Tree@V?$_Tset_traits@VUnitType@BWAPI@@U?$less@VUnitType@BWAPI@@@std@@V?$allocator@VUnitType@BWAPI@@@4@$0A@@std@@@std@@QAE@XZ 004476b0 f i Config.obj
 0001:000466f0       ?SmartAttackUnit@Micro@UAlbertaBot@@YAXPAVUnitInterface@BWAPI@@0@Z 004476f0 f   Micro.obj
 0001:00046840       ?SmartAttackPatrol@Micro@UAlbertaBot@@YAXPAVUnitInterface@BWAPI@@ABV?$Point@H$00@4@@Z 00447840 f   Micro.obj
 0001:00046a40       ?SmartAttackMove@Micro@UAlbertaBot@@YAXPAVUnitInterface@BWAPI@@ABV?$Point@H$00@4@@Z 00447a40 f   Micro.obj
 0001:00046bd0       ?SmartMove@Micro@UAlbertaBot@@YAXPAVUnitInterface@BWAPI@@ABV?$Point@H$00@4@@Z 00447bd0 f   Micro.obj
 0001:00046d70       ?SmartRightClick@Micro@UAlbertaBot@@YAXPAVUnitInterface@BWAPI@@0@Z 00447d70 f   Micro.obj
 0001:00046f20       ?SmartRepair@Micro@UAlbertaBot@@YAXPAVUnitInterface@BWAPI@@0@Z 00447f20 f   Micro.obj
 0001:000470b0       ?SmartKiteTarget@Micro@UAlbertaBot@@YAXPAVUnitInterface@BWAPI@@0@Z 004480b0 f   Micro.obj
 0001:00047380       ?MutaDanceTarget@Micro@UAlbertaBot@@YAXPAVUnitInterface@BWAPI@@0@Z 00448380 f   Micro.obj
 0001:00047600       ?ParseConfigFile@ParseUtils@UAlbertaBot@@YAXABV?$basic_string@DU?$char_traits@D@std@@V?$allocator@D@2@@std@@@Z 00448600 f   ParseUtils.obj
 0001:00049030       ?ParseTextCommand@ParseUtils@UAlbertaBot@@YAXABV?$basic_string@DU?$char_traits@D@std@@V?$allocator@D@2@@std@@@Z 0044a030 f   ParseUtils.obj
 0001:00049980       ?GetIntFromString@ParseUtils@UAlbertaBot@@YAHABV?$basic_string@DU?$char_traits@D@std@@V?$allocator@D@2@@std@@@Z 0044a980 f   ParseUtils.obj
 0001:00049a50       ?GetBoolFromString@ParseUtils@UAlbertaBot@@YA_NABV?$basic_string@DU?$char_traits@D@std@@V?$allocator@D@2@@std@@@Z 0044aa50 f   ParseUtils.obj
 0001:00049bf0       ??0?$basic_stringstream@DU?$char_traits@D@std@@V?$allocator@D@2@@std@@QAE@ABV?$basic_string@DU?$char_traits@D@std@@V?$allocator@D@2@@1@H@Z 0044abf0 f i ParseUtils.obj
 0001:00049cc0       ??1?$GenericDocument@U?$UTF8@D@rapidjson@@V?$MemoryPoolAllocator@VCrtAllocator@rapidjson@@@2@VCrtAllocator@2@@rapidjson@@QAE@XZ 0044acc0 f i ParseUtils.obj
 0001:00049d40       ??1?$GenericReader@U?$UTF8@D@rapidjson@@U12@VCrtAllocator@2@@rapidjson@@QAE@XZ 0044ad40 f i ParseUtils.obj
 0001:00049d40       ??1?$Stack@VCrtAllocator@rapidjson@@@internal@rapidjson@@QAE@XZ 0044ad40 f i ParseUtils.obj
 0001:00049d60       ?_Init@?$basic_stringbuf@DU?$char_traits@D@std@@V?$allocator@D@2@@std@@IAEXPBDIH@Z 0044ad60 f i ParseUtils.obj
 0001:00049e30       ??$use_facet@V?$ctype@D@std@@@std@@YAABV?$ctype@D@0@ABVlocale@0@@Z 0044ae30 f i ParseUtils.obj
 0001:00049f20       ??$ReadInt@H@JSONTools@UAlbertaBot@@YAXPBDABV?$GenericValue@U?$UTF8@D@rapidjson@@V?$MemoryPoolAllocator@VCrtAllocator@rapidjson@@@2@@rapidjson@@AAH@Z 0044af20 f i ParseUtils.obj
 0001:00049fd0       ??1sentry@?$basic_istream@DU?$char_traits@D@std@@@std@@QAE@XZ 0044afd0 f i ParseUtils.obj
 0001:0004a030       ??$?5DU?$char_traits@D@std@@V?$allocator@D@1@@std@@YAAAV?$basic_istream@DU?$char_traits@D@std@@@0@$$QAV10@AAV?$basic_string@DU?$char_traits@D@std@@V?$allocator@D@2@@0@@Z 0044b030 f i ParseUtils.obj
 0001:0004a1f0       ??$ParseStream@$0A@U?$UTF8@D@rapidjson@@U?$GenericStringStream@U?$UTF8@D@rapidjson@@@2@@?$GenericDocument@U?$UTF8@D@rapidjson@@V?$MemoryPoolAllocator@VCrtAllocator@rapidjson@@@2@VCrtAllocator@2@@rapidjson@@QAEAAV01@AAU?$GenericStringStream@U?$UTF8@D@rapidjson@@@1@@Z 0044b1f0 f i ParseUtils.obj
 0001:0004a390       ??1ClearStackOnExit@?$GenericDocument@U?$UTF8@D@rapidjson@@V?$MemoryPoolAllocator@VCrtAllocator@rapidjson@@@2@VCrtAllocator@2@@rapidjson@@QAE@XZ 0044b390 f i ParseUtils.obj
 0001:0004a3c0       ??1ClearStackOnExit@?$GenericReader@U?$UTF8@D@rapidjson@@U12@VCrtAllocator@2@@rapidjson@@QAE@XZ 0044b3c0 f i ParseUtils.obj
 0001:0004a3d0       ??$ParseValue@$0A@U?$GenericStringStream@U?$UTF8@D@rapidjson@@@rapidjson@@V?$GenericDocument@U?$UTF8@D@rapidjson@@V?$MemoryPoolAllocator@VCrtAllocator@rapidjson@@@2@VCrtAllocator@2@@2@@?$GenericReader@U?$UTF8@D@rapidjson@@U12@VCrtAllocator@2@@rapidjson@@AAEXAAU?$GenericStringStream@U?$UTF8@D@rapidjson@@@1@AAV?$GenericDocument@U?$UTF8@D@rapidjson@@V?$MemoryPoolAllocator@VCrtAllocator@rapidjson@@@2@VCrtAllocator@2@@1@@Z 0044b3d0 f i ParseUtils.obj
 0001:0004a680       ??1?$StreamLocalCopy@U?$GenericStringStream@U?$UTF8@D@rapidjson@@@rapidjson@@$00@internal@rapidjson@@QAE@XZ 0044b680 f i ParseUtils.obj
 0001:0004a690       ??$ParseObject@$0A@U?$GenericStringStream@U?$UTF8@D@rapidjson@@@rapidjson@@V?$GenericDocument@U?$UTF8@D@rapidjson@@V?$MemoryPoolAllocator@VCrtAllocator@rapidjson@@@2@VCrtAllocator@2@@2@@?$GenericReader@U?$UTF8@D@rapidjson@@U12@VCrtAllocator@2@@rapidjson@@AAEXAAU?$GenericStringStream@U?$UTF8@D@rapidjson@@@1@AAV?$GenericDocument@U?$UTF8@D@rapidjson@@V?$MemoryPoolAllocator@VCrtAllocator@rapidjson@@@2@VCrtAllocator@2@@1@@Z 0044b690 f i ParseUtils.obj
 0001:0004a9a0       ??$ParseArray@$0A@U?$GenericStringStream@U?$UTF8@D@rapidjson@@@rapidjson@@V?$GenericDocument@U?$UTF8@D@rapidjson@@V?$MemoryPoolAllocator@VCrtAllocator@rapidjson@@@2@VCrtAllocator@2@@2@@?$GenericReader@U?$UTF8@D@rapidjson@@U12@VCrtAllocator@2@@rapidjson@@AAEXAAU?$GenericStringStream@U?$UTF8@D@rapidjson@@@1@AAV?$GenericDocument@U?$UTF8@D@rapidjson@@V?$MemoryPoolAllocator@VCrtAllocator@rapidjson@@@2@VCrtAllocator@2@@1@@Z 0044b9a0 f i ParseUtils.obj
 0001:0004ab20       ??$ParseNumber@$0A@U?$GenericStringStream@U?$UTF8@D@rapidjson@@@rapidjson@@V?$GenericDocument@U?$UTF8@D@rapidjson@@V?$MemoryPoolAllocator@VCrtAllocator@rapidjson@@@2@VCrtAllocator@2@@2@@?$GenericReader@U?$UTF8@D@rapidjson@@U12@VCrtAllocator@2@@rapidjson@@AAEXAAU?$GenericStringStream@U?$UTF8@D@rapidjson@@@1@AAV?$GenericDocument@U?$UTF8@D@rapidjson@@V?$MemoryPoolAllocator@VCrtAllocator@rapidjson@@@2@VCrtAllocator@2@@1@@Z 0044bb20 f i ParseUtils.obj
 0001:0004b350       ?Malloc@?$MemoryPoolAllocator@VCrtAllocator@rapidjson@@@rapidjson@@QAEPAXI@Z 0044c350 f i ParseUtils.obj
 0001:0004b3e0       ??$ParseStringToStream@$0A@U?$UTF8@D@rapidjson@@U12@U?$GenericStringStream@U?$UTF8@D@rapidjson@@@2@V?$StackStream@D@?$GenericReader@U?$UTF8@D@rapidjson@@U12@VCrtAllocator@2@@2@@?$GenericReader@U?$UTF8@D@rapidjson@@U12@VCrtAllocator@2@@rapidjson@@AAEXAAU?$GenericStringStream@U?$UTF8@D@rapidjson@@@1@AAV?$StackStream@D@01@@Z 0044c3e0 f i ParseUtils.obj
 0001:0004b600       ??$Push@V?$GenericValue@U?$UTF8@D@rapidjson@@V?$MemoryPoolAllocator@VCrtAllocator@rapidjson@@@2@@rapidjson@@@?$Stack@VCrtAllocator@rapidjson@@@internal@rapidjson@@QAEPAV?$GenericValue@U?$UTF8@D@rapidjson@@V?$MemoryPoolAllocator@VCrtAllocator@rapidjson@@@2@@2@I@Z 0044c600 f i ParseUtils.obj
 0001:0004b690       ?Put@?$StackStream@D@?$GenericReader@U?$UTF8@D@rapidjson@@U12@VCrtAllocator@2@@rapidjson@@QAEXD@Z 0044c690 f i ParseUtils.obj
 0001:0004b730       ??$ParseHex4@U?$GenericStringStream@U?$UTF8@D@rapidjson@@@rapidjson@@@?$GenericReader@U?$UTF8@D@rapidjson@@U12@VCrtAllocator@2@@rapidjson@@AAEIAAU?$GenericStringStream@U?$UTF8@D@rapidjson@@@1@@Z 0044c730 f i ParseUtils.obj
 0001:0004b7a0       ??8BuildOrderQueue@UAlbertaBot@@QAE_NABV01@@Z 0044c7a0 f i ProductionManager.obj
 0001:0004b880       ??0ProductionManager@UAlbertaBot@@AAE@XZ 0044c880 f   ProductionManager.obj
 0001:0004bb00       ?initUnitRatings@ProductionManager@UAlbertaBot@@AAEXXZ 0044cb00 f   ProductionManager.obj
 0001:0004cb40       ?getUnitRating@@YANV?$basic_string@DU?$char_traits@D@std@@V?$allocator@D@2@@std@@@Z 0044db40 f   ProductionManager.obj
 0001:0004cc20       ?setBuildOrder@ProductionManager@UAlbertaBot@@AAEXABVBuildOrder@2@@Z 0044dc20 f   ProductionManager.obj
 0001:0004ccd0       ?performBuildOrderSearch@ProductionManager@UAlbertaBot@@QAEXXZ 0044dcd0 f   ProductionManager.obj
 0001:0004ce60       ?update@ProductionManager@UAlbertaBot@@QAEXXZ 0044de60 f   ProductionManager.obj
 0001:0004e970       ?manageBuildOrderQueue@ProductionManager@UAlbertaBot@@AAEXXZ 0044f970 f   ProductionManager.obj
 0001:0004ee50       ?getProducer@ProductionManager@UAlbertaBot@@QAEPAVUnitInterface@BWAPI@@VMetaType@2@V?$Point@H$00@4@@Z 0044fe50 f   ProductionManager.obj
 0001:0004f440       ?create@ProductionManager@UAlbertaBot@@AAEXPAVUnitInterface@BWAPI@@AAUBuildOrderItem@2@@Z 00450440 f   ProductionManager.obj
 0001:0004f660       ?detectBuildOrderDeadlock@ProductionManager@UAlbertaBot@@AAE_NXZ 00450660 f   ProductionManager.obj
 0001:0004f870       ?predictWorkerMovement@ProductionManager@UAlbertaBot@@AAEXABVBuilding@2@@Z 00450870 f   ProductionManager.obj
 0001:0004fd00       ?drawProductionInformation@ProductionManager@UAlbertaBot@@QAEXHH@Z 00450d00 f   ProductionManager.obj
 0001:0004ffb0       ??A?$map@V?$basic_string@DU?$char_traits@D@std@@V?$allocator@D@2@@std@@UUnitRatings@@U?$less@V?$basic_string@DU?$char_traits@D@std@@V?$allocator@D@2@@std@@@2@V?$allocator@U?$pair@$$CBV?$basic_string@DU?$char_traits@D@std@@V?$allocator@D@2@@std@@UUnitRatings@@@std@@@2@@std@@QAEAAUUnitRatings@@ABV?$basic_string@DU?$char_traits@D@std@@V?$allocator@D@2@@1@@Z 00450fb0 f i ProductionManager.obj
 0001:000500c0       ??A?$map@V?$basic_string@DU?$char_traits@D@std@@V?$allocator@D@2@@std@@UUnitRatings@@U?$less@V?$basic_string@DU?$char_traits@D@std@@V?$allocator@D@2@@std@@@2@V?$allocator@U?$pair@$$CBV?$basic_string@DU?$char_traits@D@std@@V?$allocator@D@2@@std@@UUnitRatings@@@std@@@2@@std@@QAEAAUUnitRatings@@$$QAV?$basic_string@DU?$char_traits@D@std@@V?$allocator@D@2@@1@@Z 004510c0 f i ProductionManager.obj
 0001:00050210       ?_Copy_assign@?$deque@UBuildOrderItem@UAlbertaBot@@V?$allocator@UBuildOrderItem@UAlbertaBot@@@std@@@std@@QAEXABV12@U?$integral_constant@_N$0A@@2@@Z 00451210 f i ProductionManager.obj
 0001:000502e0       ??$_Find_lower_bound@V?$basic_string@DU?$char_traits@D@std@@V?$allocator@D@2@@std@@@?$_Tree@V?$_Tmap_traits@V?$basic_string@DU?$char_traits@D@std@@V?$allocator@D@2@@std@@UUnitRatings@@U?$less@V?$basic_string@DU?$char_traits@D@std@@V?$allocator@D@2@@std@@@2@V?$allocator@U?$pair@$$CBV?$basic_string@DU?$char_traits@D@std@@V?$allocator@D@2@@std@@UUnitRatings@@@std@@@2@$0A@@std@@@std@@IBE?AU?$_Tree_find_result@PAU?$_Tree_node@U?$pair@$$CBV?$basic_string@DU?$char_traits@D@std@@V?$allocator@D@2@@std@@UUnitRatings@@@std@@PAX@std@@@1@ABV?$basic_string@DU?$char_traits@D@std@@V?$allocator@D@2@@1@@Z 004512e0 f i ProductionManager.obj
 0001:00050370       ??1?$_Tree_temp_node@V?$allocator@U?$_Tree_node@U?$pair@$$CBV?$basic_string@DU?$char_traits@D@std@@V?$allocator@D@2@@std@@UUnitRatings@@@std@@PAX@std@@@std@@@std@@QAE@XZ 00451370 f i ProductionManager.obj
 0001:000503e0       ??1?$_Tree_temp_node_alloc@V?$allocator@U?$_Tree_node@U?$pair@$$CBV?$basic_string@DU?$char_traits@D@std@@V?$allocator@D@2@@std@@VActionType@BOSS@@@std@@PAX@std@@@std@@@std@@QAE@XZ 004513e0 f i BOSS:ActionType.obj
 0001:000503e0       ??1?$_Alloc_construct_ptr@V?$allocator@U?$_Tree_node@U?$pair@$$CBV?$basic_string@DU?$char_traits@D@std@@V?$allocator@D@2@@std@@VActionType@BOSS@@@std@@PAX@std@@@std@@@std@@QAE@XZ 004513e0 f i BOSS:ActionType.obj
 0001:000503e0       ??1?$_Alloc_construct_ptr@V?$allocator@U?$_Tree_node@U?$pair@$$CBV?$basic_string@DU?$char_traits@D@std@@V?$allocator@D@2@@std@@UUnitRatings@@@std@@PAX@std@@@std@@@std@@QAE@XZ 004513e0 f i ProductionManager.obj
 0001:000503e0       ??1?$_Tree_temp_node_alloc@V?$allocator@U?$_Tree_node@U?$pair@$$CBV?$basic_string@DU?$char_traits@D@std@@V?$allocator@D@2@@std@@UUnitRatings@@@std@@PAX@std@@@std@@@std@@QAE@XZ 004513e0 f i ProductionManager.obj
 0001:00050400       ??$_Sort_unchecked@PAPAVUnitInterface@BWAPI@@VCompareWhenStarted@UAlbertaBot@@@std@@YAXPAPAVUnitInterface@BWAPI@@0HVCompareWhenStarted@UAlbertaBot@@@Z 00451400 f i ProductionManager.obj
 0001:00050530       ??$_Erase_tree@V?$allocator@U?$_Tree_node@U?$pair@$$CBV?$basic_string@DU?$char_traits@D@std@@V?$allocator@D@2@@std@@VActionType@BOSS@@@std@@PAX@std@@@std@@@?$_Tree_val@U?$_Tree_simple_types@U?$pair@$$CBV?$basic_string@DU?$char_traits@D@std@@V?$allocator@D@2@@std@@VActionType@BOSS@@@std@@@std@@@std@@QAEXAAV?$allocator@U?$_Tree_node@U?$pair@$$CBV?$basic_string@DU?$char_traits@D@std@@V?$allocator@D@2@@std@@VActionType@BOSS@@@std@@PAX@std@@@1@PAU?$_Tree_node@U?$pair@$$CBV?$basic_string@DU?$char_traits@D@std@@V?$allocator@D@2@@std@@VActionType@BOSS@@@std@@PAX@1@@Z 00451530 f i BOSS:ActionType.obj
 0001:00050530       ??$_Erase_tree@V?$allocator@U?$_Tree_node@U?$pair@$$CBV?$basic_string@DU?$char_traits@D@std@@V?$allocator@D@2@@std@@UUnitRatings@@@std@@PAX@std@@@std@@@?$_Tree_val@U?$_Tree_simple_types@U?$pair@$$CBV?$basic_string@DU?$char_traits@D@std@@V?$allocator@D@2@@std@@UUnitRatings@@@std@@@std@@@std@@QAEXAAV?$allocator@U?$_Tree_node@U?$pair@$$CBV?$basic_string@DU?$char_traits@D@std@@V?$allocator@D@2@@std@@UUnitRatings@@@std@@PAX@std@@@1@PAU?$_Tree_node@U?$pair@$$CBV?$basic_string@DU?$char_traits@D@std@@V?$allocator@D@2@@std@@UUnitRatings@@@std@@PAX@1@@Z 00451530 f i ProductionManager.obj
 0001:000505c0       ??$_Insertion_sort_unchecked@PAPAVUnitInterface@BWAPI@@VCompareWhenStarted@UAlbertaBot@@@std@@YAPAPAVUnitInterface@BWAPI@@QAPAV12@0VCompareWhenStarted@UAlbertaBot@@@Z 004515c0 f i ProductionManager.obj
 0001:000507d0       ??$_Partition_by_median_guess_unchecked@PAPAVUnitInterface@BWAPI@@VCompareWhenStarted@UAlbertaBot@@@std@@YA?AU?$pair@PAPAVUnitInterface@BWAPI@@PAPAV12@@0@PAPAVUnitInterface@BWAPI@@0VCompareWhenStarted@UAlbertaBot@@@Z 004517d0 f i ProductionManager.obj
 0001:00050de0       ??$_Pop_heap_hole_by_index@PAPAVUnitInterface@BWAPI@@PAV12@VCompareWhenStarted@UAlbertaBot@@@std@@YAXPAPAVUnitInterface@BWAPI@@HH$$QAPAV12@VCompareWhenStarted@UAlbertaBot@@@Z 00451de0 f i ProductionManager.obj
 0001:00050fa0       ??$_Med3_unchecked@PAPAVUnitInterface@BWAPI@@VCompareWhenStarted@UAlbertaBot@@@std@@YAXPAPAVUnitInterface@BWAPI@@00VCompareWhenStarted@UAlbertaBot@@@Z 00451fa0 f i ProductionManager.obj
 0001:00051150       ?executeMicro@RangedManager@UAlbertaBot@@UAEXABVUnitset@BWAPI@@@Z 00452150 f   RangedManager.obj
 0001:00051160       ?assignTargetsOld@RangedManager@UAlbertaBot@@QAEXABVUnitset@BWAPI@@@Z 00452160 f   RangedManager.obj
 0001:000512e0       ?getTarget@RangedManager@UAlbertaBot@@QAEPAVUnitInterface@BWAPI@@PAV34@ABVUnitset@4@@Z 004522e0 f   RangedManager.obj
 0001:000513a0       ?getAttackPriority@RangedManager@UAlbertaBot@@QAEHPAVUnitInterface@BWAPI@@0@Z 004523a0 f   RangedManager.obj
 0001:00051670       ?setWorkerScout@ScoutManager@UAlbertaBot@@QAEXPAVUnitInterface@BWAPI@@@Z 00452670 f   ScoutManager.obj
 0001:00051780       ?followPerimeter@ScoutManager@UAlbertaBot@@AAEXPBVBaseLocation@2@@Z 00452780 f   ScoutManager.obj
 0001:00051a40       ?moveScouts@ScoutManager@UAlbertaBot@@AAEXXZ 00452a40 f   ScoutManager.obj
 0001:00051f70       ?fleeScout@ScoutManager@UAlbertaBot@@AAEXXZ 00452f70 f   ScoutManager.obj
 0001:00051fe0       ?gasSteal@ScoutManager@UAlbertaBot@@AAEXXZ 00452fe0 f   ScoutManager.obj
 0001:00052220       ?closestEnemyWorker@ScoutManager@UAlbertaBot@@AAEPAVUnitInterface@BWAPI@@XZ 00453220 f   ScoutManager.obj
 0001:00052320       ?getEnemyGeyser@ScoutManager@UAlbertaBot@@AAEPAVUnitInterface@BWAPI@@XZ 00453320 f   ScoutManager.obj
 0001:000523f0       ??0Squad@UAlbertaBot@@QAE@XZ 004533f0 f   Squad.obj
 0001:000526d0       ??1TransportManager@UAlbertaBot@@UAE@XZ 004536d0 f i Squad.obj
 0001:000526f0       ??0Squad@UAlbertaBot@@QAE@ABV?$basic_string@DU?$char_traits@D@std@@V?$allocator@D@2@@std@@VSquadOrder@1@I@Z 004536f0 f   Squad.obj
 0001:000529f0       ??1Squad@UAlbertaBot@@QAE@XZ 004539f0 f   Squad.obj
 0001:00052bc0       ?update@Squad@UAlbertaBot@@QAEXXZ 00453bc0 f   Squad.obj
 0001:00052ee0       ?setNearEnemyUnits@Squad@UAlbertaBot@@AAEXXZ 00453ee0 f   Squad.obj
 0001:000530d0       ?addUnitsToMicroManagers@Squad@UAlbertaBot@@AAEXXZ 004540d0 f   Squad.obj
 0001:00053540       ?needsToRegroup@Squad@UAlbertaBot@@AAE_NXZ 00454540 f   Squad.obj
 0001:00053a20       ??1CombatSimulation@UAlbertaBot@@QAE@XZ 00454a20 f i Squad.obj
 0001:00053a90       ?clear@Squad@UAlbertaBot@@QAEXXZ 00454a90 f   Squad.obj
 0001:00053bd0       ?unitClosestToEnemy@Squad@UAlbertaBot@@AAEPAVUnitInterface@BWAPI@@XZ 00454bd0 f   Squad.obj
 0001:00053d20       ?update@SquadData@UAlbertaBot@@QAEXXZ 00454d20 f   SquadData.obj
 0001:00053f00       ?squadExists@SquadData@UAlbertaBot@@QAE_NABV?$basic_string@DU?$char_traits@D@std@@V?$allocator@D@2@@std@@@Z 00454f00 f   SquadData.obj
 0001:00053f60       ??4Squad@UAlbertaBot@@QAEAAV01@ABV01@@Z 00454f60 f i SquadData.obj
 0001:000541e0       ??4MicroManager@UAlbertaBot@@QAEAAV01@ABV01@@Z 004551e0 f i SquadData.obj
 0001:00054280       ?drawSquadInformation@SquadData@UAlbertaBot@@QAEXHH@Z 00455280 f   SquadData.obj
 0001:000544a0       ?getUnitSquad@SquadData@UAlbertaBot@@QBEPBVSquad@2@PAVUnitInterface@BWAPI@@@Z 004554a0 f   SquadData.obj
 0001:00054590       ?assignUnitToSquad@SquadData@UAlbertaBot@@QAEXPAVUnitInterface@BWAPI@@AAVSquad@2@@Z 00455590 f   SquadData.obj
 0001:000546c0       ?canAssignUnitToSquad@SquadData@UAlbertaBot@@QBE_NPAVUnitInterface@BWAPI@@ABVSquad@2@@Z 004556c0 f   SquadData.obj
 0001:000546f0       ??A?$map@V?$basic_string@DU?$char_traits@D@std@@V?$allocator@D@2@@std@@VSquad@UAlbertaBot@@U?$less@V?$basic_string@DU?$char_traits@D@std@@V?$allocator@D@2@@std@@@2@V?$allocator@U?$pair@$$CBV?$basic_string@DU?$char_traits@D@std@@V?$allocator@D@2@@std@@VSquad@UAlbertaBot@@@std@@@2@@std@@QAEAAVSquad@UAlbertaBot@@ABV?$basic_string@DU?$char_traits@D@std@@V?$allocator@D@2@@1@@Z 004556f0 f i SquadData.obj
 0001:000547f0       ??4?$map@PAVUnitInterface@BWAPI@@_NU?$less@PAVUnitInterface@BWAPI@@@std@@V?$allocator@U?$pair@QAVUnitInterface@BWAPI@@_N@std@@@4@@std@@QAEAAV01@ABV01@@Z 004557f0 f i SquadData.obj
 0001:000548a0       ??1?$_Tree_temp_node_alloc@V?$allocator@U?$_Tree_node@U?$pair@$$CBV?$basic_string@DU?$char_traits@D@std@@V?$allocator@D@2@@std@@VSquad@UAlbertaBot@@@std@@PAX@std@@@std@@@std@@QAE@XZ 004558a0 f i SquadData.obj
 0001:000548a0       ??1?$_Alloc_construct_ptr@V?$allocator@U?$_Tree_node@U?$pair@$$CBV?$basic_string@DU?$char_traits@D@std@@V?$allocator@D@2@@std@@VSquad@UAlbertaBot@@@std@@PAX@std@@@std@@@std@@QAE@XZ 004558a0 f i SquadData.obj
 0001:000548c0       ??$_Find_lower_bound@V?$basic_string@DU?$char_traits@D@std@@V?$allocator@D@2@@std@@@?$_Tree@V?$_Tmap_traits@V?$basic_string@DU?$char_traits@D@std@@V?$allocator@D@2@@std@@UStrategy@UAlbertaBot@@U?$less@V?$basic_string@DU?$char_traits@D@std@@V?$allocator@D@2@@std@@@2@V?$allocator@U?$pair@$$CBV?$basic_string@DU?$char_traits@D@std@@V?$allocator@D@2@@std@@UStrategy@UAlbertaBot@@@std@@@2@$0A@@std@@@std@@IBE?AU?$_Tree_find_result@PAU?$_Tree_node@U?$pair@$$CBV?$basic_string@DU?$char_traits@D@std@@V?$allocator@D@2@@std@@UStrategy@UAlbertaBot@@@std@@PAX@std@@@1@ABV?$basic_string@DU?$char_traits@D@std@@V?$allocator@D@2@@1@@Z 004558c0 f i StrategyManager.obj
 0001:000548c0       ??$_Find_lower_bound@V?$basic_string@DU?$char_traits@D@std@@V?$allocator@D@2@@std@@@?$_Tree@V?$_Tmap_traits@V?$basic_string@DU?$char_traits@D@std@@V?$allocator@D@2@@std@@VSquad@UAlbertaBot@@U?$less@V?$basic_string@DU?$char_traits@D@std@@V?$allocator@D@2@@std@@@2@V?$allocator@U?$pair@$$CBV?$basic_string@DU?$char_traits@D@std@@V?$allocator@D@2@@std@@VSquad@UAlbertaBot@@@std@@@2@$0A@@std@@@std@@IBE?AU?$_Tree_find_result@PAU?$_Tree_node@U?$pair@$$CBV?$basic_string@DU?$char_traits@D@std@@V?$allocator@D@2@@std@@VSquad@UAlbertaBot@@@std@@PAX@std@@@1@ABV?$basic_string@DU?$char_traits@D@std@@V?$allocator@D@2@@1@@Z 004558c0 f i SquadData.obj
 0001:00054940       ?shouldExpandNow@StrategyManager@UAlbertaBot@@ABE?B_NXZ 00455940 f   StrategyManager.obj
 0001:00054c50       ?getBuildOrderGoal@StrategyManager@UAlbertaBot@@QAE?BV?$vector@U?$pair@VMetaType@UAlbertaBot@@I@std@@V?$allocator@U?$pair@VMetaType@UAlbertaBot@@I@std@@@2@@std@@XZ 00455c50 f   StrategyManager.obj
 0001:00054cf0       ?getProtossBuildOrderGoal@StrategyManager@UAlbertaBot@@ABE?BV?$vector@U?$pair@VMetaType@UAlbertaBot@@I@std@@V?$allocator@U?$pair@VMetaType@UAlbertaBot@@I@std@@@2@@std@@XZ 00455cf0 f   StrategyManager.obj
 0001:00056420       ?getTerranBuildOrderGoal@StrategyManager@UAlbertaBot@@ABE?BV?$vector@U?$pair@VMetaType@UAlbertaBot@@I@std@@V?$allocator@U?$pair@VMetaType@UAlbertaBot@@I@std@@@2@@std@@XZ 00457420 f   StrategyManager.obj
 0001:00056960       ?getZergBuildOrderGoal@StrategyManager@UAlbertaBot@@ABE?BV?$vector@U?$pair@VMetaType@UAlbertaBot@@I@std@@V?$allocator@U?$pair@VMetaType@UAlbertaBot@@I@std@@@2@@std@@XZ 00457960 f   StrategyManager.obj
 0001:00056dd0       ?readResults@StrategyManager@UAlbertaBot@@QAEXXZ 00457dd0 f   StrategyManager.obj
 0001:00057330       ?writeResults@StrategyManager@UAlbertaBot@@AAEXXZ 00458330 f   StrategyManager.obj
 0001:00057740       ?onEnd@StrategyManager@UAlbertaBot@@QAEX_N@Z 00458740 f   StrategyManager.obj
 0001:00057790       ??A?$map@V?$basic_string@DU?$char_traits@D@std@@V?$allocator@D@2@@std@@UStrategy@UAlbertaBot@@U?$less@V?$basic_string@DU?$char_traits@D@std@@V?$allocator@D@2@@std@@@2@V?$allocator@U?$pair@$$CBV?$basic_string@DU?$char_traits@D@std@@V?$allocator@D@2@@std@@UStrategy@UAlbertaBot@@@std@@@2@@std@@QAEAAUStrategy@UAlbertaBot@@ABV?$basic_string@DU?$char_traits@D@std@@V?$allocator@D@2@@1@@Z 00458790 f i StrategyManager.obj
 0001:000578f0       ??$_Emplace_reallocate@U?$pair@VMetaType@UAlbertaBot@@I@std@@@?$vector@U?$pair@VMetaType@UAlbertaBot@@I@std@@V?$allocator@U?$pair@VMetaType@UAlbertaBot@@I@std@@@2@@std@@QAEPAU?$pair@VMetaType@UAlbertaBot@@I@1@QAU21@$$QAU21@@Z 004588f0 f i StrategyManager.obj
 0001:00057aa0       ??1?$_Alloc_construct_ptr@V?$allocator@U?$_Tree_node@U?$pair@$$CBV?$basic_string@DU?$char_traits@D@std@@V?$allocator@D@2@@std@@UStrategy@UAlbertaBot@@@std@@PAX@std@@@std@@@std@@QAE@XZ 00458aa0 f i StrategyManager.obj
 0001:00057aa0       ??1?$_Tree_temp_node_alloc@V?$allocator@U?$_Tree_node@U?$pair@$$CBV?$basic_string@DU?$char_traits@D@std@@V?$allocator@D@2@@std@@UStrategy@UAlbertaBot@@@std@@PAX@std@@@std@@@std@@QAE@XZ 00458aa0 f i StrategyManager.obj
 0001:00057ac0       ?_Clear_and_reserve_geometric@?$vector@VMetaType@UAlbertaBot@@V?$allocator@VMetaType@UAlbertaBot@@@std@@@std@@AAEXI@Z 00458ac0 f i StrategyManager.obj
 0001:00057b80       ?executeMicro@TankManager@UAlbertaBot@@UAEXABVUnitset@BWAPI@@@Z 00458b80 f   TankManager.obj
 0001:00057e10       ?getTarget@TankManager@UAlbertaBot@@QAEPAVUnitInterface@BWAPI@@PAV34@ABVUnitset@4@@Z 00458e10 f   TankManager.obj
 0001:00058030       ?getAttackPriority@TankManager@UAlbertaBot@@QAEHPAVUnitInterface@BWAPI@@0@Z 00459030 f   TankManager.obj
 0001:00058340       ??0TimerManager@UAlbertaBot@@QAE@XZ 00459340 f   TimerManager.obj
 0001:00058a30       ?displayTimers@TimerManager@UAlbertaBot@@QAEXHH@Z 00459a30 f   TimerManager.obj
 0001:00058cd0       ??$_Emplace_reallocate@V?$basic_string@DU?$char_traits@D@std@@V?$allocator@D@2@@std@@@?$vector@V?$basic_string@DU?$char_traits@D@std@@V?$allocator@D@2@@std@@V?$allocator@V?$basic_string@DU?$char_traits@D@std@@V?$allocator@D@2@@std@@@2@@std@@QAEPAV?$basic_string@DU?$char_traits@D@std@@V?$allocator@D@2@@1@QAV21@$$QAV21@@Z 00459cd0 f i TimerManager.obj
 0001:00058df0       ?_Change_array@?$vector@V?$basic_string@DU?$char_traits@D@std@@V?$allocator@D@2@@std@@V?$allocator@V?$basic_string@DU?$char_traits@D@std@@V?$allocator@D@2@@std@@@2@@std@@AAEXQAV?$basic_string@DU?$char_traits@D@std@@V?$allocator@D@2@@2@II@Z 00459df0 f i TimerManager.obj
 0001:00058e80       ??$_Uninitialized_move@PAV?$basic_string@DU?$char_traits@D@std@@V?$allocator@D@2@@std@@V?$allocator@V?$basic_string@DU?$char_traits@D@std@@V?$allocator@D@2@@std@@@2@@std@@YAPAV?$basic_string@DU?$char_traits@D@std@@V?$allocator@D@2@@0@QAV10@0PAV10@AAV?$allocator@V?$basic_string@DU?$char_traits@D@std@@V?$allocator@D@2@@std@@@0@@Z 00459e80 f i TimerManager.obj
 0001:00058ef0       ??0TransportManager@UAlbertaBot@@QAE@XZ 00459ef0 f   TransportManager.obj
 0001:00058fd0       ??_ETransportManager@UAlbertaBot@@UAEPAXI@Z 00459fd0 f i * CIL library *:* CIL module *
 0001:00058fd0       ??_GTransportManager@UAlbertaBot@@UAEPAXI@Z 00459fd0 f i TransportManager.obj
 0001:00059010       ?executeMicro@TransportManager@UAlbertaBot@@UAEXABVUnitset@BWAPI@@@Z 0045a010 f   TransportManager.obj
 0001:00059020       ?calculateMapEdgeVertices@TransportManager@UAlbertaBot@@AAEXXZ 0045a020 f   TransportManager.obj
 0001:000594b0       ?update@TransportManager@UAlbertaBot@@QAEXXZ 0045a4b0 f   TransportManager.obj
 0001:00059650       ?moveTroops@TransportManager@UAlbertaBot@@AAEXXZ 0045a650 f   TransportManager.obj
 0001:00059850       ?followPerimeter@TransportManager@UAlbertaBot@@AAEXV?$Point@H$00@BWAPI@@0@Z 0045a850 f   TransportManager.obj
 0001:00059b70       ?getClosestVertexIndex@TransportManager@UAlbertaBot@@AAEHPAVUnitInterface@BWAPI@@@Z 0045ab70 f   TransportManager.obj
 0001:00059bf0       ?getClosestVertexIndex@TransportManager@UAlbertaBot@@AAEHV?$Point@H$00@BWAPI@@@Z 0045abf0 f   TransportManager.obj
 0001:00059cb0       ?findSafePath@TransportManager@UAlbertaBot@@AAE?AU?$pair@HH@std@@V?$Point@H$00@BWAPI@@0@Z 0045acb0 f   TransportManager.obj
 0001:0005a260       ?getFleePosition@TransportManager@UAlbertaBot@@AAE?AV?$Point@H$00@BWAPI@@H@Z 0045b260 f   TransportManager.obj
 0001:0005a430       ?erase@?$_Tree@V?$_Tset_traits@V?$Point@H$00@BWAPI@@U?$less@V?$Point@H$00@BWAPI@@@std@@V?$allocator@V?$Point@H$00@BWAPI@@@4@$0A@@std@@@std@@QAEIABV?$Point@H$00@BWAPI@@@Z 0045b430 f i TransportManager.obj
 0001:0005a630       ??$insert@$0A@$0A@@?$_Tree@V?$_Tset_traits@V?$Point@H$00@BWAPI@@U?$less@V?$Point@H$00@BWAPI@@@std@@V?$allocator@V?$Point@H$00@BWAPI@@@4@$0A@@std@@@std@@QAE?AU?$pair@V?$_Tree_const_iterator@V?$_Tree_val@U?$_Tree_simple_types@V?$Point@H$00@BWAPI@@@std@@@std@@@std@@_N@1@$$QAV?$Point@H$00@BWAPI@@@Z 0045b630 f i TransportManager.obj
 0001:0005a740       ?ReportFailure@Assert@UAlbertaBot@@YAXPBD0H0ZZ 0045b740 f   UABAssert.obj
 0001:0005ac50       ?onStart@UAlbertaBotModule@UAlbertaBot@@QAEXXZ 0045bc50 f   UAlbertaBotModule.obj
 0001:0005ad50       ?onEnd@UAlbertaBotModule@UAlbertaBot@@QAEX_N@Z 0045bd50 f   UAlbertaBotModule.obj
 0001:0005b030       ?onFrame@UAlbertaBotModule@UAlbertaBot@@QAEXXZ 0045c030 f   UAlbertaBotModule.obj
 0001:0005b270       ?removeBadUnits@UnitData@UAlbertaBot@@QAEXXZ 0045c270 f   UnitData.obj
 0001:0005b3a0       ??A?$map@PAVUnitInterface@BWAPI@@UUnitInfo@UAlbertaBot@@U?$less@PAVUnitInterface@BWAPI@@@std@@V?$allocator@U?$pair@QAVUnitInterface@BWAPI@@UUnitInfo@UAlbertaBot@@@std@@@6@@std@@QAEAAUUnitInfo@UAlbertaBot@@ABQAVUnitInterface@BWAPI@@@Z 0045c3a0 f i UnitData.obj
 0001:0005b490       ?erase@?$_Tree@V?$_Tmap_traits@PAVUnitInterface@BWAPI@@UUnitInfo@UAlbertaBot@@U?$less@PAVUnitInterface@BWAPI@@@std@@V?$allocator@U?$pair@QAVUnitInterface@BWAPI@@UUnitInfo@UAlbertaBot@@@std@@@6@$0A@@std@@@std@@QAEIABQAVUnitInterface@BWAPI@@@Z 0045c490 f i UnitData.obj
 0001:0005b660       ?getID@?$Type@VUpgradeType@BWAPI@@$0DO@@BWAPI@@QBEHXZ 0045c660 f i BWAPILIB:UpgradeType.obj
 0001:0005b660       ?getID@?$Type@VUnitType@BWAPI@@$0OJ@@BWAPI@@QBEHXZ 0045c660 f i UnitData.obj
 0001:0005b660       ?getID@?$Type@VTechType@BWAPI@@$0CO@@BWAPI@@QBEHXZ 0045c660 f i BWAPILIB:TechType.obj
 0001:0005b670       ??1?$_Alloc_construct_ptr@V?$allocator@U?$_Tree_node@U?$pair@QAVUnitInterface@BWAPI@@UUnitInfo@UAlbertaBot@@@std@@PAX@std@@@std@@@std@@QAE@XZ 0045c670 f i UnitData.obj
 0001:0005b690       _sqrtf                     0045c690 f i UnitUtil.obj
 0001:0005b6c0       ?IsValidUnit@UnitUtil@UAlbertaBot@@YA_NPAVUnitInterface@BWAPI@@@Z 0045c6c0 f   UnitUtil.obj
 0001:0005b740       ?CalculateLTD@UnitUtil@UAlbertaBot@@YANPAVUnitInterface@BWAPI@@0@Z 0045c740 f   UnitUtil.obj
 0001:0005b7e0       ?GetAllUnitCount@UnitUtil@UAlbertaBot@@YAIVUnitType@BWAPI@@@Z 0045c7e0 f   UnitUtil.obj
 0001:0005b8e0       ??0WorkerData@UAlbertaBot@@QAE@XZ 0045c8e0 f   WorkerData.obj
 0001:0005bbb0       ?removeDepot@WorkerData@UAlbertaBot@@QAEXPAVUnitInterface@BWAPI@@@Z 0045cbb0 f   WorkerData.obj
 0001:0005bc40       ?addToMineralPatch@WorkerData@UAlbertaBot@@QAEXPAVUnitInterface@BWAPI@@H@Z 0045cc40 f   WorkerData.obj
 0001:0005bcc0       ?setWorkerJob@WorkerData@UAlbertaBot@@QAEXPAVUnitInterface@BWAPI@@W4WorkerJob@12@0@Z 0045ccc0 f   WorkerData.obj
 0001:0005bdd0       ?setWorkerJob@WorkerData@UAlbertaBot@@QAEXPAVUnitInterface@BWAPI@@W4WorkerJob@12@VUnitType@4@@Z 0045cdd0 f   WorkerData.obj
 0001:0005bed0       ?clearPreviousJob@WorkerData@UAlbertaBot@@AAEXPAVUnitInterface@BWAPI@@@Z 0045ced0 f   WorkerData.obj
 0001:0005bff0       ?getNumMineralWorkers@WorkerData@UAlbertaBot@@QBEHXZ 0045cff0 f   WorkerData.obj
 0001:0005c060       ?getNumGasWorkers@WorkerData@UAlbertaBot@@QBEHXZ 0045d060 f   WorkerData.obj
 0001:0005c0d0       ?depotIsFull@WorkerData@UAlbertaBot@@QAE_NPAVUnitInterface@BWAPI@@@Z 0045d0d0 f   WorkerData.obj
 0001:0005c150       ?getMineralPatchesNearDepot@WorkerData@UAlbertaBot@@QAE?AVUnitset@BWAPI@@PAVUnitInterface@4@@Z 0045d150 f   WorkerData.obj
 0001:0005c250       ?getWorkerResource@WorkerData@UAlbertaBot@@QAEPAVUnitInterface@BWAPI@@PAV34@@Z 0045d250 f   WorkerData.obj
 0001:0005c340       ?getMineralToMine@WorkerData@UAlbertaBot@@QAEPAVUnitInterface@BWAPI@@PAV34@@Z 0045d340 f   WorkerData.obj
 0001:0005c5c0       ?getNumAssignedWorkers@WorkerData@UAlbertaBot@@QAEHPAVUnitInterface@BWAPI@@@Z 0045d5c0 f   WorkerData.obj
 0001:0005c690       ?getJobCode@WorkerData@UAlbertaBot@@QAEDPAVUnitInterface@BWAPI@@@Z 0045d690 f   WorkerData.obj
 0001:0005c770       ?erase@?$_Tree@V?$_Tmap_traits@PAVUnitInterface@BWAPI@@W4WorkerJob@WorkerData@UAlbertaBot@@U?$less@PAVUnitInterface@BWAPI@@@std@@V?$allocator@U?$pair@QAVUnitInterface@BWAPI@@W4WorkerJob@WorkerData@UAlbertaBot@@@std@@@7@$0A@@std@@@std@@QAEIABQAVUnitInterface@BWAPI@@@Z 0045d770 f i WorkerData.obj
 0001:0005c770       ?erase@?$_Tree@V?$_Tmap_traits@PAVUnitInterface@BWAPI@@VUnitType@2@U?$less@PAVUnitInterface@BWAPI@@@std@@V?$allocator@U?$pair@QAVUnitInterface@BWAPI@@VUnitType@2@@std@@@5@$0A@@std@@@std@@QAEIABQAVUnitInterface@BWAPI@@@Z 0045d770 f i WorkerData.obj
 0001:0005c770       ?erase@?$_Tree@V?$_Tmap_traits@PAVUnitInterface@BWAPI@@PAV12@U?$less@PAVUnitInterface@BWAPI@@@std@@V?$allocator@U?$pair@QAVUnitInterface@BWAPI@@PAV12@@std@@@4@$0A@@std@@@std@@QAEIABQAVUnitInterface@BWAPI@@@Z 0045d770 f i WorkerData.obj
 0001:0005c770       ?erase@?$_Tree@V?$_Tmap_traits@PAVUnitInterface@BWAPI@@HU?$less@PAVUnitInterface@BWAPI@@@std@@V?$allocator@U?$pair@QAVUnitInterface@BWAPI@@H@std@@@4@$0A@@std@@@std@@QAEIABQAVUnitInterface@BWAPI@@@Z 0045d770 f i WorkerData.obj
 0001:0005c940       ?erase@?$_Tree@V?$_Tmap_traits@PAVUnitInterface@BWAPI@@VWorkerMoveData@UAlbertaBot@@U?$less@PAVUnitInterface@BWAPI@@@std@@V?$allocator@U?$pair@QAVUnitInterface@BWAPI@@VWorkerMoveData@UAlbertaBot@@@std@@@6@$0A@@std@@@std@@QAEIABQAVUnitInterface@BWAPI@@@Z 0045d940 f i WorkerData.obj
 0001:0005cb10       ??A?$map@PAVUnitInterface@BWAPI@@W4WorkerJob@WorkerData@UAlbertaBot@@U?$less@PAVUnitInterface@BWAPI@@@std@@V?$allocator@U?$pair@QAVUnitInterface@BWAPI@@W4WorkerJob@WorkerData@UAlbertaBot@@@std@@@7@@std@@QAEAAW4WorkerJob@WorkerData@UAlbertaBot@@ABQAVUnitInterface@BWAPI@@@Z 0045db10 f i WorkerData.obj
 0001:0005cb10       ??A?$map@PAVUnitInterface@BWAPI@@PAV12@U?$less@PAVUnitInterface@BWAPI@@@std@@V?$allocator@U?$pair@QAVUnitInterface@BWAPI@@PAV12@@std@@@4@@std@@QAEAAPAVUnitInterface@BWAPI@@ABQAV23@@Z 0045db10 f i WorkerData.obj
 0001:0005cbd0       ??1?$_Alloc_construct_ptr@V?$allocator@U?$_List_node@VEvent@BWAPI@@PAX@std@@@std@@@std@@QAE@XZ 0045dbd0 f i BWAPIClient:GameImpl.obj
 0001:0005cbd0       ??1?$_Alloc_construct_ptr@V?$allocator@U?$_Tree_node@U?$pair@QAVUnitInterface@BWAPI@@VWorkerMoveData@UAlbertaBot@@@std@@PAX@std@@@std@@@std@@QAE@XZ 0045dbd0 f i WorkerData.obj
 0001:0005cbf0       ?onFrame@WorkerManager@UAlbertaBot@@QAEXXZ 0045dbf0 f   WorkerManager.obj
 0001:0005cff0       ?updateWorkerStatus@WorkerManager@UAlbertaBot@@QAEXXZ 0045dff0 f   WorkerManager.obj
 0001:0005d610       ?handleGasWorkers@WorkerManager@UAlbertaBot@@AAEXXZ 0045e610 f   WorkerManager.obj
 0001:0005d930       ?handleRepairWorkers@WorkerManager@UAlbertaBot@@AAEXXZ 0045e930 f   WorkerManager.obj
 0001:0005db70       ?handleCombatWorkers@WorkerManager@UAlbertaBot@@AAEXXZ 0045eb70 f   WorkerManager.obj
 0001:0005dd00       ?getClosestDepot@WorkerManager@UAlbertaBot@@QAEPAVUnitInterface@BWAPI@@PAV34@@Z 0045ed00 f   WorkerManager.obj
 0001:0005de20       ?finishedWithWorker@WorkerManager@UAlbertaBot@@QAEXPAVUnitInterface@BWAPI@@@Z 0045ee20 f   WorkerManager.obj
 0001:0005dea0       ?getBuilder@WorkerManager@UAlbertaBot@@QAEPAVUnitInterface@BWAPI@@AAVBuilding@2@_N@Z 0045eea0 f   WorkerManager.obj
 0001:0005e0b0       ?setMoveWorker@WorkerManager@UAlbertaBot@@QAEXHHV?$Point@H$00@BWAPI@@@Z 0045f0b0 f   WorkerManager.obj
 0001:0005e2f0       ?onUnitMorph@WorkerManager@UAlbertaBot@@QAEXPAVUnitInterface@BWAPI@@@Z 0045f2f0 f   WorkerManager.obj
 0001:0005e410       ?onUnitShow@WorkerManager@UAlbertaBot@@QAEXPAVUnitInterface@BWAPI@@@Z 0045f410 f   WorkerManager.obj
 0001:0005e520       ?onUnitDestroy@WorkerManager@UAlbertaBot@@QAEXPAVUnitInterface@BWAPI@@@Z 0045f520 f   WorkerManager.obj
 0001:0005e6e0       ?drawResourceDebugInfo@WorkerManager@UAlbertaBot@@QAEXXZ 0045f6e0 f   WorkerManager.obj
 0001:0005e880       ?isFree@WorkerManager@UAlbertaBot@@QAE_NPAVUnitInterface@BWAPI@@@Z 0045f880 f   WorkerManager.obj
 0001:0005e920       ??0?$SetContainer@VTechType@BWAPI@@U?$hash@H@std@@@BWAPI@@QAE@V?$initializer_list@VTechType@BWAPI@@@std@@@Z 0045f920 f i BWAPILIB:UnitType.obj
 0001:0005e920       ??0?$SetContainer@VUpgradeType@BWAPI@@U?$hash@H@std@@@BWAPI@@QAE@V?$initializer_list@VUpgradeType@BWAPI@@@std@@@Z 0045f920 f i BWAPILIB:UnitType.obj
 0001:0005e920       ??0?$SetContainer@VUnitType@BWAPI@@U?$hash@H@std@@@BWAPI@@QAE@V?$initializer_list@VUnitType@BWAPI@@@std@@@Z 0045f920 f i BWAPILIB:UnitType.obj
 0001:0005e990       ??0?$SetContainer@VUnitType@BWAPI@@U?$hash@H@std@@@BWAPI@@QAE@XZ 0045f990 f i BWAPILIB:UnitType.obj
 0001:0005e990       ??0?$SetContainer@VTechType@BWAPI@@U?$hash@H@std@@@BWAPI@@QAE@XZ 0045f990 f i BWAPILIB:UnitType.obj
 0001:0005e990       ??0?$SetContainer@VUpgradeType@BWAPI@@U?$hash@H@std@@@BWAPI@@QAE@XZ 0045f990 f i BWAPILIB:UnitType.obj
 0001:0005e9b0       ?reqUnitsInit@BWAPI@@YA?AV?$vector@V?$map@VUnitType@BWAPI@@HU?$less@VUnitType@BWAPI@@@std@@V?$allocator@U?$pair@$$CBVUnitType@BWAPI@@H@std@@@4@@std@@V?$allocator@V?$map@VUnitType@BWAPI@@HU?$less@VUnitType@BWAPI@@@std@@V?$allocator@U?$pair@$$CBVUnitType@BWAPI@@H@std@@@4@@std@@@2@@std@@XZ 0045f9b0 f   BWAPILIB:UnitType.obj
 0001:0005f220       ?cloakingTech@UnitType@BWAPI@@QBE?AVTechType@2@XZ 00460220 f   BWAPILIB:UnitType.obj
 0001:0005f2e0       ?canAttack@UnitType@BWAPI@@QBE_NXZ 004602e0 f   BWAPILIB:UnitType.obj
 0001:0005f3e0       ?maxUnitWidth@UnitTypes@BWAPI@@YAHXZ 004603e0 f   BWAPILIB:UnitType.obj
 0001:0005f480       ?maxUnitHeight@UnitTypes@BWAPI@@YAHXZ 00460480 f   BWAPILIB:UnitType.obj
 0001:0005f520       ??A?$map@VUnitType@BWAPI@@HU?$less@VUnitType@BWAPI@@@std@@V?$allocator@U?$pair@$$CBVUnitType@BWAPI@@H@std@@@4@@std@@QAEAAHABVUnitType@BWAPI@@@Z 00460520 f i BWAPILIB:UnitType.obj
 0001:0005f5d0       ??1?$vector@V?$map@VUnitType@BWAPI@@HU?$less@VUnitType@BWAPI@@@std@@V?$allocator@U?$pair@$$CBVUnitType@BWAPI@@H@std@@@4@@std@@V?$allocator@V?$map@VUnitType@BWAPI@@HU?$less@VUnitType@BWAPI@@@std@@V?$allocator@U?$pair@$$CBVUnitType@BWAPI@@H@std@@@4@@std@@@2@@std@@QAE@XZ 004605d0 f i BWAPILIB:UnitType.obj
 0001:0005f650       ??0?$_Hash@V?$_Uset_traits@VTechType@BWAPI@@V?$_Uhash_compare@VTechType@BWAPI@@U?$hash@H@std@@U?$equal_to@VTechType@BWAPI@@@4@@std@@V?$allocator@VTechType@BWAPI@@@4@$0A@@std@@@std@@IAE@ABV?$_Uhash_compare@VTechType@BWAPI@@U?$hash@H@std@@U?$equal_to@VTechType@BWAPI@@@4@@1@ABV?$allocator@VTechType@BWAPI@@@1@@Z 00460650 f i BWAPILIB:UnitType.obj
 0001:0005f650       ??0?$_Hash@V?$_Uset_traits@VUnitType@BWAPI@@V?$_Uhash_compare@VUnitType@BWAPI@@U?$hash@H@std@@U?$equal_to@VUnitType@BWAPI@@@4@@std@@V?$allocator@VUnitType@BWAPI@@@4@$0A@@std@@@std@@IAE@ABV?$_Uhash_compare@VUnitType@BWAPI@@U?$hash@H@std@@U?$equal_to@VUnitType@BWAPI@@@4@@1@ABV?$allocator@VUnitType@BWAPI@@@1@@Z 00460650 f i BWAPILIB:UnitType.obj
 0001:0005f650       ??0?$_Hash@V?$_Uset_traits@VUpgradeType@BWAPI@@V?$_Uhash_compare@VUpgradeType@BWAPI@@U?$hash@H@std@@U?$equal_to@VUpgradeType@BWAPI@@@4@@std@@V?$allocator@VUpgradeType@BWAPI@@@4@$0A@@std@@@std@@IAE@ABV?$_Uhash_compare@VUpgradeType@BWAPI@@U?$hash@H@std@@U?$equal_to@VUpgradeType@BWAPI@@@4@@1@ABV?$allocator@VUpgradeType@BWAPI@@@1@@Z 00460650 f i BWAPILIB:UnitType.obj
 0001:0005f6f0       ?_Destroy@?$vector@V?$map@VUnitType@BWAPI@@HU?$less@VUnitType@BWAPI@@@std@@V?$allocator@U?$pair@$$CBVUnitType@BWAPI@@H@std@@@4@@std@@V?$allocator@V?$map@VUnitType@BWAPI@@HU?$less@VUnitType@BWAPI@@@std@@V?$allocator@U?$pair@$$CBVUnitType@BWAPI@@H@std@@@4@@std@@@2@@std@@AAEXPAV?$map@VUnitType@BWAPI@@HU?$less@VUnitType@BWAPI@@@std@@V?$allocator@U?$pair@$$CBVUnitType@BWAPI@@H@std@@@4@@2@0@Z 004606f0 f i BWAPILIB:UnitType.obj
 0001:0005f730       ?deallocate@?$allocator@V?$map@VUnitType@BWAPI@@HU?$less@VUnitType@BWAPI@@@std@@V?$allocator@U?$pair@$$CBVUnitType@BWAPI@@H@std@@@4@@std@@@std@@QAEXQAV?$map@VUnitType@BWAPI@@HU?$less@VUnitType@BWAPI@@@std@@V?$allocator@U?$pair@$$CBVUnitType@BWAPI@@H@std@@@4@@2@I@Z 00460730 f i BWAPILIB:UnitType.obj
 0001:0005f770       ?_Assign_grow@?$_Hash_vec@V?$allocator@V?$_List_unchecked_const_iterator@V?$_List_val@U?$_List_simple_types@VUpgradeType@BWAPI@@@std@@@std@@U_Iterator_base0@2@@std@@@std@@@std@@QAEXIV?$_List_unchecked_const_iterator@V?$_List_val@U?$_List_simple_types@VUpgradeType@BWAPI@@@std@@@std@@U_Iterator_base0@2@@2@@Z 00460770 f i BWAPILIB:UnitType.obj
 0001:0005f770       ?_Assign_grow@?$_Hash_vec@V?$allocator@V?$_List_unchecked_const_iterator@V?$_List_val@U?$_List_simple_types@PAVPlayerInterface@BWAPI@@@std@@@std@@U_Iterator_base0@2@@std@@@std@@@std@@QAEXIV?$_List_unchecked_const_iterator@V?$_List_val@U?$_List_simple_types@PAVPlayerInterface@BWAPI@@@std@@@std@@U_Iterator_base0@2@@2@@Z 00460770 f i BWAPIClient:GameImpl.obj
 0001:0005f770       ?_Assign_grow@?$_Hash_vec@V?$allocator@V?$_List_unchecked_const_iterator@V?$_List_val@U?$_List_simple_types@PAVForceInterface@BWAPI@@@std@@@std@@U_Iterator_base0@2@@std@@@std@@@std@@QAEXIV?$_List_unchecked_const_iterator@V?$_List_val@U?$_List_simple_types@PAVForceInterface@BWAPI@@@std@@@std@@U_Iterator_base0@2@@2@@Z 00460770 f i BWAPIClient:GameImpl.obj
 0001:0005f770       ?_Assign_grow@?$_Hash_vec@V?$allocator@V?$_List_unchecked_iterator@V?$_List_val@U?$_List_simple_types@U?$pair@$$CBII@std@@@std@@@std@@@std@@@std@@@std@@QAEXIV?$_List_unchecked_iterator@V?$_List_val@U?$_List_simple_types@U?$pair@$$CBII@std@@@std@@@std@@@2@@Z 00460770 f i BWAPIClient:GameImpl.obj
 0001:0005f770       ?_Assign_grow@?$_Hash_vec@V?$allocator@V?$_List_unchecked_const_iterator@V?$_List_val@U?$_List_simple_types@VRace@BWAPI@@@std@@@std@@U_Iterator_base0@2@@std@@@std@@@std@@QAEXIV?$_List_unchecked_const_iterator@V?$_List_val@U?$_List_simple_types@VRace@BWAPI@@@std@@@std@@U_Iterator_base0@2@@2@@Z 00460770 f i BWAPILIB:Race.obj
 0001:0005f770       ?_Assign_grow@?$_Hash_vec@V?$allocator@V?$_List_unchecked_const_iterator@V?$_List_val@U?$_List_simple_types@PAVBulletInterface@BWAPI@@@std@@@std@@U_Iterator_base0@2@@std@@@std@@@std@@QAEXIV?$_List_unchecked_const_iterator@V?$_List_val@U?$_List_simple_types@PAVBulletInterface@BWAPI@@@std@@@std@@U_Iterator_base0@2@@2@@Z 00460770 f i BWAPIClient:GameImpl.obj
 0001:0005f770       ?_Assign_grow@?$_Hash_vec@V?$allocator@V?$_List_unchecked_const_iterator@V?$_List_val@U?$_List_simple_types@VTechType@BWAPI@@@std@@@std@@U_Iterator_base0@2@@std@@@std@@@std@@QAEXIV?$_List_unchecked_const_iterator@V?$_List_val@U?$_List_simple_types@VTechType@BWAPI@@@std@@@std@@U_Iterator_base0@2@@2@@Z 00460770 f i BWAPILIB:UnitType.obj
 0001:0005f770       ?_Assign_grow@?$_Hash_vec@V?$allocator@V?$_List_unchecked_const_iterator@V?$_List_val@U?$_List_simple_types@VWeaponType@BWAPI@@@std@@@std@@U_Iterator_base0@2@@std@@@std@@@std@@QAEXIV?$_List_unchecked_const_iterator@V?$_List_val@U?$_List_simple_types@VWeaponType@BWAPI@@@std@@@std@@U_Iterator_base0@2@@2@@Z 00460770 f i BWAPILIB:WeaponType.obj
 0001:0005f770       ?_Assign_grow@?$_Hash_vec@V?$allocator@V?$_List_unchecked_const_iterator@V?$_List_val@U?$_List_simple_types@PAVRegionInterface@BWAPI@@@std@@@std@@U_Iterator_base0@2@@std@@@std@@@std@@QAEXIV?$_List_unchecked_const_iterator@V?$_List_val@U?$_List_simple_types@PAVRegionInterface@BWAPI@@@std@@@std@@U_Iterator_base0@2@@2@@Z 00460770 f i BWAPIClient:GameImpl.obj
 0001:0005f770       ?_Assign_grow@?$_Hash_vec@V?$allocator@V?$_List_unchecked_const_iterator@V?$_List_val@U?$_List_simple_types@VUnitType@BWAPI@@@std@@@std@@U_Iterator_base0@2@@std@@@std@@@std@@QAEXIV?$_List_unchecked_const_iterator@V?$_List_val@U?$_List_simple_types@VUnitType@BWAPI@@@std@@@std@@U_Iterator_base0@2@@2@@Z 00460770 f i BWAPILIB:UnitType.obj
 0001:0005f860       ??$?0PBH@?$SetContainer@VUpgradeType@BWAPI@@U?$hash@H@std@@@BWAPI@@QAE@PBH0@Z 00460860 f i BWAPILIB:UnitType.obj
 0001:0005f8c0       ??$?0PBH@?$SetContainer@VTechType@BWAPI@@U?$hash@H@std@@@BWAPI@@QAE@PBH0@Z 004608c0 f i BWAPILIB:UnitType.obj
 0001:0005f920       ??$fill@PAV?$_List_unchecked_const_iterator@V?$_List_val@U?$_List_simple_types@VWeaponType@BWAPI@@@std@@@std@@U_Iterator_base0@2@@std@@V12@@std@@YAXQAV?$_List_unchecked_const_iterator@V?$_List_val@U?$_List_simple_types@VWeaponType@BWAPI@@@std@@@std@@U_Iterator_base0@2@@0@0ABV10@@Z 00460920 f i BWAPILIB:WeaponType.obj
 0001:0005f920       ??$fill@PAV?$_List_unchecked_const_iterator@V?$_List_val@U?$_List_simple_types@PAVBulletInterface@BWAPI@@@std@@@std@@U_Iterator_base0@2@@std@@V12@@std@@YAXQAV?$_List_unchecked_const_iterator@V?$_List_val@U?$_List_simple_types@PAVBulletInterface@BWAPI@@@std@@@std@@U_Iterator_base0@2@@0@0ABV10@@Z 00460920 f i BWAPIClient:GameImpl.obj
 0001:0005f920       ??$fill@PAV?$_List_unchecked_iterator@V?$_List_val@U?$_List_simple_types@U?$pair@$$CBII@std@@@std@@@std@@@std@@V12@@std@@YAXQAV?$_List_unchecked_iterator@V?$_List_val@U?$_List_simple_types@U?$pair@$$CBII@std@@@std@@@std@@@0@0ABV10@@Z 00460920 f i BWAPIClient:GameImpl.obj
 0001:0005f920       ??$fill@PAV?$_List_unchecked_const_iterator@V?$_List_val@U?$_List_simple_types@VUnitType@BWAPI@@@std@@@std@@U_Iterator_base0@2@@std@@V12@@std@@YAXQAV?$_List_unchecked_const_iterator@V?$_List_val@U?$_List_simple_types@VUnitType@BWAPI@@@std@@@std@@U_Iterator_base0@2@@0@0ABV10@@Z 00460920 f i BWAPILIB:UnitType.obj
 0001:0005f920       ??$fill@PAV?$_List_unchecked_const_iterator@V?$_List_val@U?$_List_simple_types@PAVRegionInterface@BWAPI@@@std@@@std@@U_Iterator_base0@2@@std@@V12@@std@@YAXQAV?$_List_unchecked_const_iterator@V?$_List_val@U?$_List_simple_types@PAVRegionInterface@BWAPI@@@std@@@std@@U_Iterator_base0@2@@0@0ABV10@@Z 00460920 f i BWAPIClient:GameImpl.obj
 0001:0005f920       ??$fill@PAV?$_List_unchecked_const_iterator@V?$_List_val@U?$_List_simple_types@PAVForceInterface@BWAPI@@@std@@@std@@U_Iterator_base0@2@@std@@V12@@std@@YAXQAV?$_List_unchecked_const_iterator@V?$_List_val@U?$_List_simple_types@PAVForceInterface@BWAPI@@@std@@@std@@U_Iterator_base0@2@@0@0ABV10@@Z 00460920 f i BWAPIClient:GameImpl.obj
 0001:0005f920       ??$fill@PAV?$_List_unchecked_const_iterator@V?$_List_val@U?$_List_simple_types@VRace@BWAPI@@@std@@@std@@U_Iterator_base0@2@@std@@V12@@std@@YAXQAV?$_List_unchecked_const_iterator@V?$_List_val@U?$_List_simple_types@VRace@BWAPI@@@std@@@std@@U_Iterator_base0@2@@0@0ABV10@@Z 00460920 f i BWAPILIB:Race.obj
 0001:0005f920       ??$fill@PAV?$_List_unchecked_const_iterator@V?$_List_val@U?$_List_simple_types@VUpgradeType@BWAPI@@@std@@@std@@U_Iterator_base0@2@@std@@V12@@std@@YAXQAV?$_List_unchecked_const_iterator@V?$_List_val@U?$_List_simple_types@VUpgradeType@BWAPI@@@std@@@std@@U_Iterator_base0@2@@0@0ABV10@@Z 00460920 f i BWAPILIB:UnitType.obj
 0001:0005f920       ??$fill@PAV?$_List_unchecked_const_iterator@V?$_List_val@U?$_List_simple_types@PAVPlayerInterface@BWAPI@@@std@@@std@@U_Iterator_base0@2@@std@@V12@@std@@YAXQAV?$_List_unchecked_const_iterator@V?$_List_val@U?$_List_simple_types@PAVPlayerInterface@BWAPI@@@std@@@std@@U_Iterator_base0@2@@0@0ABV10@@Z 00460920 f i BWAPIClient:GameImpl.obj
 0001:0005f920       ??$fill@PAV?$_List_unchecked_const_iterator@V?$_List_val@U?$_List_simple_types@VTechType@BWAPI@@@std@@@std@@U_Iterator_base0@2@@std@@V12@@std@@YAXQAV?$_List_unchecked_const_iterator@V?$_List_val@U?$_List_simple_types@VTechType@BWAPI@@@std@@@std@@U_Iterator_base0@2@@0@0ABV10@@Z 00460920 f i BWAPILIB:UnitType.obj
 0001:0005f980       ?_Insert_node@?$_Tree_val@U?$_Tree_simple_types@U?$pair@$$CBVUnitType@BWAPI@@I@std@@@std@@@std@@QAEPAU?$_Tree_node@U?$pair@$$CBVUnitType@BWAPI@@I@std@@PAX@2@U?$_Tree_id@PAU?$_Tree_node@U?$pair@$$CBVUnitType@BWAPI@@I@std@@PAX@std@@@2@QAU32@@Z 00460980 f i SparCraft:GameState.obj
 0001:0005f980       ?_Insert_node@?$_Tree_val@U?$_Tree_simple_types@U?$pair@$$CBVUnitType@BWAPI@@H@std@@@std@@@std@@QAEPAU?$_Tree_node@U?$pair@$$CBVUnitType@BWAPI@@H@std@@PAX@2@U?$_Tree_id@PAU?$_Tree_node@U?$pair@$$CBVUnitType@BWAPI@@H@std@@PAX@std@@@2@QAU32@@Z 00460980 f i BWAPILIB:UnitType.obj
 0001:0005f980       ?_Insert_node@?$_Tree_val@U?$_Tree_simple_types@U?$pair@$$CBV?$basic_string@DU?$char_traits@D@std@@V?$allocator@D@2@@std@@H@std@@@std@@@std@@QAEPAU?$_Tree_node@U?$pair@$$CBV?$basic_string@DU?$char_traits@D@std@@V?$allocator@D@2@@std@@H@std@@PAX@2@U?$_Tree_id@PAU?$_Tree_node@U?$pair@$$CBV?$basic_string@DU?$char_traits@D@std@@V?$allocator@D@2@@std@@H@std@@PAX@std@@@2@QAU32@@Z 00460980 f i SparCraft:EnumData.obj
 0001:0005f980       ?_Insert_node@?$_Tree_val@U?$_Tree_simple_types@I@std@@@std@@QAEPAU?$_Tree_node@IPAX@2@U?$_Tree_id@PAU?$_Tree_node@IPAX@std@@@2@QAU32@@Z 00460980 f i SparCraft:GameState.obj
 0001:0005fb90       ?_Ufill@?$vector@V?$map@VUnitType@BWAPI@@HU?$less@VUnitType@BWAPI@@@std@@V?$allocator@U?$pair@$$CBVUnitType@BWAPI@@H@std@@@4@@std@@V?$allocator@V?$map@VUnitType@BWAPI@@HU?$less@VUnitType@BWAPI@@@std@@V?$allocator@U?$pair@$$CBVUnitType@BWAPI@@H@std@@@4@@std@@@2@@std@@AAEPAV?$map@VUnitType@BWAPI@@HU?$less@VUnitType@BWAPI@@@std@@V?$allocator@U?$pair@$$CBVUnitType@BWAPI@@H@std@@@4@@2@PAV32@IU_Value_init_tag@2@@Z 00460b90 f i BWAPILIB:UnitType.obj
 0001:0005fc20       ??$emplace@AAU?$pair@VUnitType@BWAPI@@H@std@@@?$_Tree@V?$_Tmap_traits@VUnitType@BWAPI@@HU?$less@VUnitType@BWAPI@@@std@@V?$allocator@U?$pair@$$CBVUnitType@BWAPI@@H@std@@@4@$0A@@std@@@std@@QAE?AU?$pair@V?$_Tree_iterator@V?$_Tree_val@U?$_Tree_simple_types@U?$pair@$$CBVUnitType@BWAPI@@H@std@@@std@@@std@@@std@@_N@1@AAU?$pair@VUnitType@BWAPI@@H@1@@Z 00460c20 f i BWAPILIB:UnitType.obj
 0001:0005fce0       ??$_Find_lower_bound@VUnitType@BWAPI@@@?$_Tree@V?$_Tmap_traits@VUnitType@BWAPI@@HU?$less@VUnitType@BWAPI@@@std@@V?$allocator@U?$pair@$$CBVUnitType@BWAPI@@H@std@@@4@$0A@@std@@@std@@IBE?AU?$_Tree_find_result@PAU?$_Tree_node@U?$pair@$$CBVUnitType@BWAPI@@H@std@@PAX@std@@@1@ABVUnitType@BWAPI@@@Z 00460ce0 f i BWAPILIB:UnitType.obj
 0001:0005fd30       ??$_Resize_reallocate@U_Value_init_tag@std@@@?$vector@V?$map@VUnitType@BWAPI@@HU?$less@VUnitType@BWAPI@@@std@@V?$allocator@U?$pair@$$CBVUnitType@BWAPI@@H@std@@@4@@std@@V?$allocator@V?$map@VUnitType@BWAPI@@HU?$less@VUnitType@BWAPI@@@std@@V?$allocator@U?$pair@$$CBVUnitType@BWAPI@@H@std@@@4@@std@@@2@@std@@AAEXIABU_Value_init_tag@1@@Z 00460d30 f i BWAPILIB:UnitType.obj
 0001:0005ff50       ??$emplace@ABVTechType@BWAPI@@@?$_Hash@V?$_Uset_traits@VTechType@BWAPI@@V?$_Uhash_compare@VTechType@BWAPI@@U?$hash@H@std@@U?$equal_to@VTechType@BWAPI@@@4@@std@@V?$allocator@VTechType@BWAPI@@@4@$0A@@std@@@std@@QAE?AU?$pair@V?$_List_const_iterator@V?$_List_val@U?$_List_simple_types@VTechType@BWAPI@@@std@@@std@@@std@@_N@1@ABVTechType@BWAPI@@@Z 00460f50 f i BWAPILIB:UnitType.obj
 0001:0005ff50       ??$emplace@ABVUnitType@BWAPI@@@?$_Hash@V?$_Uset_traits@VUnitType@BWAPI@@V?$_Uhash_compare@VUnitType@BWAPI@@U?$hash@H@std@@U?$equal_to@VUnitType@BWAPI@@@4@@std@@V?$allocator@VUnitType@BWAPI@@@4@$0A@@std@@@std@@QAE?AU?$pair@V?$_List_const_iterator@V?$_List_val@U?$_List_simple_types@VUnitType@BWAPI@@@std@@@std@@@std@@_N@1@ABVUnitType@BWAPI@@@Z 00460f50 f i BWAPILIB:UnitType.obj
 0001:0005ff50       ??$emplace@ABVWeaponType@BWAPI@@@?$_Hash@V?$_Uset_traits@VWeaponType@BWAPI@@V?$_Uhash_compare@VWeaponType@BWAPI@@U?$hash@H@std@@U?$equal_to@VWeaponType@BWAPI@@@4@@std@@V?$allocator@VWeaponType@BWAPI@@@4@$0A@@std@@@std@@QAE?AU?$pair@V?$_List_const_iterator@V?$_List_val@U?$_List_simple_types@VWeaponType@BWAPI@@@std@@@std@@@std@@_N@1@ABVWeaponType@BWAPI@@@Z 00460f50 f i BWAPILIB:WeaponType.obj
 0001:0005ff50       ??$emplace@ABVUpgradeType@BWAPI@@@?$_Hash@V?$_Uset_traits@VUpgradeType@BWAPI@@V?$_Uhash_compare@VUpgradeType@BWAPI@@U?$hash@H@std@@U?$equal_to@VUpgradeType@BWAPI@@@4@@std@@V?$allocator@VUpgradeType@BWAPI@@@4@$0A@@std@@@std@@QAE?AU?$pair@V?$_List_const_iterator@V?$_List_val@U?$_List_simple_types@VUpgradeType@BWAPI@@@std@@@std@@@std@@_N@1@ABVUpgradeType@BWAPI@@@Z 00460f50 f i BWAPILIB:UnitType.obj
 0001:00060190       ??1?$map@VUnitType@BWAPI@@HU?$less@VUnitType@BWAPI@@@std@@V?$allocator@U?$pair@$$CBVUnitType@BWAPI@@H@std@@@4@@std@@QAE@XZ 00461190 f i BWAPILIB:UnitType.obj
 0001:00060190       ??1?$map@HPAXU?$less@H@std@@V?$allocator@U?$pair@$$CBHPAX@std@@@2@@std@@QAE@XZ 00461190 f i BWAPIClient:GameImpl.obj
 0001:000601b0       ??1?$_Uninitialized_backout_al@V?$allocator@V?$map@VUnitType@BWAPI@@HU?$less@VUnitType@BWAPI@@@std@@V?$allocator@U?$pair@$$CBVUnitType@BWAPI@@H@std@@@4@@std@@@std@@@std@@QAE@XZ 004611b0 f i BWAPILIB:UnitType.obj
 0001:000601f0       ?_Forced_rehash@?$_Hash@V?$_Uset_traits@VTechType@BWAPI@@V?$_Uhash_compare@VTechType@BWAPI@@U?$hash@H@std@@U?$equal_to@VTechType@BWAPI@@@4@@std@@V?$allocator@VTechType@BWAPI@@@4@$0A@@std@@@std@@IAEXI@Z 004611f0 f i BWAPILIB:UnitType.obj
 0001:000601f0       ?_Forced_rehash@?$_Hash@V?$_Uset_traits@VWeaponType@BWAPI@@V?$_Uhash_compare@VWeaponType@BWAPI@@U?$hash@H@std@@U?$equal_to@VWeaponType@BWAPI@@@4@@std@@V?$allocator@VWeaponType@BWAPI@@@4@$0A@@std@@@std@@IAEXI@Z 004611f0 f i BWAPILIB:WeaponType.obj
 0001:000601f0       ?_Forced_rehash@?$_Hash@V?$_Uset_traits@VUnitType@BWAPI@@V?$_Uhash_compare@VUnitType@BWAPI@@U?$hash@H@std@@U?$equal_to@VUnitType@BWAPI@@@4@@std@@V?$allocator@VUnitType@BWAPI@@@4@$0A@@std@@@std@@IAEXI@Z 004611f0 f i BWAPILIB:UnitType.obj
 0001:000601f0       ?_Forced_rehash@?$_Hash@V?$_Uset_traits@VUpgradeType@BWAPI@@V?$_Uhash_compare@VUpgradeType@BWAPI@@U?$hash@H@std@@U?$equal_to@VUpgradeType@BWAPI@@@4@@std@@V?$allocator@VUpgradeType@BWAPI@@@4@$0A@@std@@@std@@IAEXI@Z 004611f0 f i BWAPILIB:UnitType.obj
 0001:00060360       ??$insert@PBH@?$_Hash@V?$_Uset_traits@VUpgradeType@BWAPI@@V?$_Uhash_compare@VUpgradeType@BWAPI@@U?$hash@H@std@@U?$equal_to@VUpgradeType@BWAPI@@@4@@std@@V?$allocator@VUpgradeType@BWAPI@@@4@$0A@@std@@@std@@QAEXPBH0@Z 00461360 f i BWAPILIB:UnitType.obj
 0001:000603a0       ??$insert@PBH@?$_Hash@V?$_Uset_traits@VTechType@BWAPI@@V?$_Uhash_compare@VTechType@BWAPI@@U?$hash@H@std@@U?$equal_to@VTechType@BWAPI@@@4@@std@@V?$allocator@VTechType@BWAPI@@@4@$0A@@std@@@std@@QAEXPBH0@Z 004613a0 f i BWAPILIB:UnitType.obj
 0001:000603e0       ??$emplace@ABH@?$_Hash@V?$_Uset_traits@VUpgradeType@BWAPI@@V?$_Uhash_compare@VUpgradeType@BWAPI@@U?$hash@H@std@@U?$equal_to@VUpgradeType@BWAPI@@@4@@std@@V?$allocator@VUpgradeType@BWAPI@@@4@$0A@@std@@@std@@QAE?AU?$pair@V?$_List_const_iterator@V?$_List_val@U?$_List_simple_types@VUpgradeType@BWAPI@@@std@@@std@@@std@@_N@1@ABH@Z 004613e0 f i BWAPILIB:UnitType.obj
 0001:00060660       ??$emplace@ABH@?$_Hash@V?$_Uset_traits@VTechType@BWAPI@@V?$_Uhash_compare@VTechType@BWAPI@@U?$hash@H@std@@U?$equal_to@VTechType@BWAPI@@@4@@std@@V?$allocator@VTechType@BWAPI@@@4@$0A@@std@@@std@@QAE?AU?$pair@V?$_List_const_iterator@V?$_List_val@U?$_List_simple_types@VTechType@BWAPI@@@std@@@std@@@std@@_N@1@ABH@Z 00461660 f i BWAPILIB:UnitType.obj
 0001:000608e0       ??$_Erase_tree@V?$allocator@U?$_Tree_node@U?$pair@$$CBHPAX@std@@PAX@std@@@std@@@?$_Tree_val@U?$_Tree_simple_types@U?$pair@$$CBHPAX@std@@@std@@@std@@QAEXAAV?$allocator@U?$_Tree_node@U?$pair@$$CBHPAX@std@@PAX@std@@@1@PAU?$_Tree_node@U?$pair@$$CBHPAX@std@@PAX@1@@Z 004618e0 f i BWAPIClient:GameImpl.obj
 0001:000608e0       ??$_Erase_tree@V?$allocator@U?$_Tree_node@U?$pair@$$CBVUnitType@BWAPI@@H@std@@PAX@std@@@std@@@?$_Tree_val@U?$_Tree_simple_types@U?$pair@$$CBVUnitType@BWAPI@@H@std@@@std@@@std@@QAEXAAV?$allocator@U?$_Tree_node@U?$pair@$$CBVUnitType@BWAPI@@H@std@@PAX@std@@@1@PAU?$_Tree_node@U?$pair@$$CBVUnitType@BWAPI@@H@std@@PAX@1@@Z 004618e0 f i BWAPILIB:UnitType.obj
 0001:000608e0       ??$_Erase_tree@V?$allocator@U?$_Tree_node@U?$pair@$$CBVUnitType@BWAPI@@I@std@@PAX@std@@@std@@@?$_Tree_val@U?$_Tree_simple_types@U?$pair@$$CBVUnitType@BWAPI@@I@std@@@std@@@std@@QAEXAAV?$allocator@U?$_Tree_node@U?$pair@$$CBVUnitType@BWAPI@@I@std@@PAX@std@@@1@PAU?$_Tree_node@U?$pair@$$CBVUnitType@BWAPI@@I@std@@PAX@1@@Z 004618e0 f i SparCraft:GameState.obj
 0001:000608e0       ??$_Erase_tree_and_orphan@V?$allocator@U?$_Tree_node@U?$pair@$$CBVUnitType@BWAPI@@H@std@@PAX@std@@@std@@@?$_Tree_val@U?$_Tree_simple_types@U?$pair@$$CBVUnitType@BWAPI@@H@std@@@std@@@std@@QAEXAAV?$allocator@U?$_Tree_node@U?$pair@$$CBVUnitType@BWAPI@@H@std@@PAX@std@@@1@PAU?$_Tree_node@U?$pair@$$CBVUnitType@BWAPI@@H@std@@PAX@1@@Z 004618e0 f i BWAPILIB:UnitType.obj
 0001:000608e0       ??$_Erase_tree_and_orphan@V?$allocator@U?$_Tree_node@U?$pair@$$CBHPAX@std@@PAX@std@@@std@@@?$_Tree_val@U?$_Tree_simple_types@U?$pair@$$CBHPAX@std@@@std@@@std@@QAEXAAV?$allocator@U?$_Tree_node@U?$pair@$$CBHPAX@std@@PAX@std@@@1@PAU?$_Tree_node@U?$pair@$$CBHPAX@std@@PAX@1@@Z 004618e0 f i BWAPIClient:GameImpl.obj
 0001:00060920       ??0?$map@VUnitType@BWAPI@@HU?$less@VUnitType@BWAPI@@@std@@V?$allocator@U?$pair@$$CBVUnitType@BWAPI@@H@std@@@4@@std@@QAE@ABV01@@Z 00461920 f i BWAPILIB:UnitType.obj
 0001:00060a00       ??1?$_Tree_head_scoped_ptr@V?$allocator@U?$_Tree_node@U?$pair@$$CBVUnitType@BWAPI@@H@std@@PAX@std@@@std@@V?$_Tree_val@U?$_Tree_simple_types@U?$pair@$$CBVUnitType@BWAPI@@H@std@@@std@@@2@@std@@QAE@XZ 00461a00 f i BWAPILIB:UnitType.obj
 0001:00060a00       ??1?$_Tree_head_scoped_ptr@V?$allocator@U?$_Tree_node@U?$pair@$$CBHPAX@std@@PAX@std@@@std@@V?$_Tree_val@U?$_Tree_simple_types@U?$pair@$$CBHPAX@std@@@std@@@2@@std@@QAE@XZ 00461a00 f i BWAPIClient:GameImpl.obj
 0001:00060a30       ??$_Copy_nodes@U_Copy_tag@?$_Tree@V?$_Tmap_traits@VUnitType@BWAPI@@HU?$less@VUnitType@BWAPI@@@std@@V?$allocator@U?$pair@$$CBVUnitType@BWAPI@@H@std@@@4@$0A@@std@@@std@@@?$_Tree@V?$_Tmap_traits@VUnitType@BWAPI@@HU?$less@VUnitType@BWAPI@@@std@@V?$allocator@U?$pair@$$CBVUnitType@BWAPI@@H@std@@@4@$0A@@std@@@std@@IAEPAU?$_Tree_node@U?$pair@$$CBVUnitType@BWAPI@@H@std@@PAX@1@PAU21@0U_Copy_tag@01@@Z 00461a30 f i BWAPILIB:UnitType.obj
 0001:00060b10       ?printf@Game@BWAPI@@QAAXPBDZZ 00461b10 f   BWAPILIB:Game.obj
 0001:00060b30       ?hasPower@Game@BWAPI@@QBE_NV?$Point@H$0CA@@2@VUnitType@2@@Z 00461b30 f   BWAPILIB:Game.obj
 0001:00060bb0       ?hasPath@Game@BWAPI@@QBE_NV?$Point@H$00@2@0@Z 00461bb0 f   BWAPILIB:Game.obj
 0001:00060c50       ?drawTextMap@Game@BWAPI@@QAAXV?$Point@H$00@2@PBDZZ 00461c50 f   BWAPILIB:Game.obj
 0001:00060c50       ?drawTextMap@Game@BWAPI@@QAAXHHPBDZZ 00461c50 f   BWAPILIB:Game.obj
 0001:00060c70       ?drawTextScreen@Game@BWAPI@@QAAXHHPBDZZ 00461c70 f   BWAPILIB:Game.obj
 0001:00060c70       ?drawTextScreen@Game@BWAPI@@QAAXV?$Point@H$00@2@PBDZZ 00461c70 f   BWAPILIB:Game.obj
 0001:00060c90       ??_G?$basic_ostringstream@DU?$char_traits@D@std@@V?$allocator@D@2@@std@@UAEPAXI@Z 00461c90 f i BWAPILIB:Game.obj
 0001:00060c90       ??_E?$basic_ostringstream@DU?$char_traits@D@std@@V?$allocator@D@2@@std@@UAEPAXI@Z 00461c90 f i * CIL library *:* CIL module *
 0001:00060d00       ??$?VV?$UnaryFilter@PAVUnitInterface@BWAPI@@V?$function@$$A6A_NPAVUnitInterface@BWAPI@@@Z@std@@@BWAPI@@@?$UnaryFilter@PAVUnitInterface@BWAPI@@V?$function@$$A6A_NPAVUnitInterface@BWAPI@@@Z@std@@@BWAPI@@QBE?AV01@ABV01@@Z 00461d00 f i BWAPILIB:Game.obj
 0001:00060e20       ??1<lambda_cfd6fce307c286eb3135c7782fdef1bb>@@QAE@XZ 00461e20 f i BWAPILIB:Game.obj
 0001:00060e50       ?_Delete_this@?$_Func_impl_no_alloc@V<lambda_a2cf48cc0ad720342f05725db62c6909>@@_NPAVUnitInterface@BWAPI@@@std@@EAEX_N@Z 00461e50 f i BWAPILIB:Game.obj
 0001:00060e70       ?capacity@?$Vec@VBuildingStatus@BOSS@@$0EG@@BOSS@@QBEABIXZ 00461e70 f i BOSS:BuildingData.obj
 0001:00060e70       ?capacity@?$Vec@VHatchery@BOSS@@$09@BOSS@@QBEABIXZ 00461e70 f i BOSS:HatcheryData.obj
 0001:00060e70       ?_Get@?$_Func_impl_no_alloc@V<lambda_ba21b10bb59a1d52d976b39184b53b78>@@_NPAVUnitInterface@BWAPI@@@std@@EBEPBXXZ 00461e70 f i BWAPIClient:GameShared.obj
 0001:00060e70       ?capacity@?$Vec@VActionInProgress@BOSS@@$0DC@@BOSS@@QBEABIXZ 00461e70 f i BOSS:ActionInProgress.obj
 0001:00060e70       ?capacity@?$Vec@VActionType@BOSS@@$0GE@@BOSS@@QBEABIXZ 00461e70 f i BOSS:ActionSet.obj
 0001:00060e70       ?capacity@?$Vec@VActionCountPair@BOSS@@$0GE@@BOSS@@QBEABIXZ 00461e70 f i BOSS:PrerequisiteSet.obj
 0001:00060e70       ?_Get@?$_Func_impl_no_alloc@V<lambda_a2cf48cc0ad720342f05725db62c6909>@@_NPAVUnitInterface@BWAPI@@@std@@EBEPBXXZ 00461e70 f i BWAPILIB:Game.obj
 0001:00060e70       ?_Get@?$_Func_impl_no_alloc@V<lambda_1feb1c45d8d8f4db5ffac22a9dbce3a7>@@_NPAVUnitInterface@BWAPI@@@std@@EBEPBXXZ 00461e70 f i BWAPIClient:GameShared.obj
 0001:00060e80       ?_Target_type@?$_Func_impl_no_alloc@V<lambda_a2cf48cc0ad720342f05725db62c6909>@@_NPAVUnitInterface@BWAPI@@@std@@EBEABVtype_info@@XZ 00461e80 f i BWAPILIB:Game.obj
 0001:00060e90       ?_Do_call@?$_Func_impl_no_alloc@V<lambda_a2cf48cc0ad720342f05725db62c6909>@@_NPAVUnitInterface@BWAPI@@@std@@EAE_N$$QAPAVUnitInterface@BWAPI@@@Z 00461e90 f i BWAPILIB:Game.obj
 0001:00060eb0       ?_Copy@?$_Func_impl_no_alloc@V<lambda_a2cf48cc0ad720342f05725db62c6909>@@_NPAVUnitInterface@BWAPI@@@std@@EBEPAV?$_Func_base@_NPAVUnitInterface@BWAPI@@@2@PAX@Z 00461eb0 f i BWAPILIB:Game.obj
 0001:00060eb0       ?_Move@?$_Func_impl_no_alloc@V<lambda_a2cf48cc0ad720342f05725db62c6909>@@_NPAVUnitInterface@BWAPI@@@std@@EAEPAV?$_Func_base@_NPAVUnitInterface@BWAPI@@@2@PAX@Z 00461eb0 f i BWAPILIB:Game.obj
 0001:00060ed0       ?_Delete_this@?$_Func_impl_no_alloc@V<lambda_cfd6fce307c286eb3135c7782fdef1bb>@@_NPAVUnitInterface@BWAPI@@@std@@EAEX_N@Z 00461ed0 f i BWAPILIB:Game.obj
 0001:00060f10       ?_Get@?$_Func_impl_no_alloc@V<lambda_cfd6fce307c286eb3135c7782fdef1bb>@@_NPAVUnitInterface@BWAPI@@@std@@EBEPBXXZ 00461f10 f i BWAPILIB:Game.obj
 0001:00060f20       ?_Target_type@?$_Func_impl_no_alloc@V<lambda_cfd6fce307c286eb3135c7782fdef1bb>@@_NPAVUnitInterface@BWAPI@@@std@@EBEABVtype_info@@XZ 00461f20 f i BWAPILIB:Game.obj
 0001:00060f30       ?_Do_call@?$_Func_impl_no_alloc@V<lambda_cfd6fce307c286eb3135c7782fdef1bb>@@_NPAVUnitInterface@BWAPI@@@std@@EAE_N$$QAPAVUnitInterface@BWAPI@@@Z 00461f30 f i BWAPILIB:Game.obj
 0001:00060f90       ?_Copy@?$_Func_impl_no_alloc@V<lambda_cfd6fce307c286eb3135c7782fdef1bb>@@_NPAVUnitInterface@BWAPI@@@std@@EBEPAV?$_Func_base@_NPAVUnitInterface@BWAPI@@@2@PAX@Z 00461f90 f i BWAPILIB:Game.obj
 0001:00061010       ??1_Guard_type@?1???$_Global_new@V?$_Func_impl_no_alloc@V<lambda_cfd6fce307c286eb3135c7782fdef1bb>@@_NPAVUnitInterface@BWAPI@@@std@@ABV<lambda_cfd6fce307c286eb3135c7782fdef1bb>@@@std@@YAPAV?$_Func_impl_no_alloc@V<lambda_cfd6fce307c286eb3135c7782fdef1bb>@@_NPAVUnitInterface@BWAPI@@@1@ABV<lambda_cfd6fce307c286eb3135c7782fdef1bb>@@@Z@QAE@XZ 00462010 f i BWAPILIB:Game.obj
 0001:00061010       ??1_Guard_type@?1???$_Global_new@V?$_Func_impl_no_alloc@V<lambda_cfd6fce307c286eb3135c7782fdef1bb>@@_NPAVUnitInterface@BWAPI@@@std@@V<lambda_cfd6fce307c286eb3135c7782fdef1bb>@@@std@@YAPAV?$_Func_impl_no_alloc@V<lambda_cfd6fce307c286eb3135c7782fdef1bb>@@_NPAVUnitInterface@BWAPI@@@1@$$QAV<lambda_cfd6fce307c286eb3135c7782fdef1bb>@@@Z@QAE@XZ 00462010 f i BWAPILIB:Game.obj
 0001:00061022       ??_E?$basic_ostringstream@DU?$char_traits@D@std@@V?$allocator@D@2@@std@@$4PPPPPPPM@A@AEPAXI@Z 00462022 f i BWAPILIB:Game.obj
 0001:00061030       ??0Color@BWAPI@@QAE@HHH@Z  00462030 f   BWAPILIB:Color.obj
 0001:000611a0       ?getTilePosition@UnitInterface@BWAPI@@QBE?AV?$Point@H$0CA@@2@XZ 004621a0 f   BWAPILIB:Unit.obj
 0001:00061240       ?getDistance@UnitInterface@BWAPI@@QBEHV?$Point@H$00@2@@Z 00462240 f   BWAPILIB:Unit.obj
 0001:000613a0       ?getDistance@UnitInterface@BWAPI@@QBEHPAV12@@Z 004623a0 f   BWAPILIB:Unit.obj
 0001:000615d0       ?hasPath@UnitInterface@BWAPI@@QBE_NV?$Point@H$00@2@@Z 004625d0 f   BWAPILIB:Unit.obj
 0001:00061860       ?isInWeaponRange@UnitInterface@BWAPI@@QBE_NPAV12@@Z 00462860 f   BWAPILIB:Unit.obj
 0001:00061950       ?attack@UnitInterface@BWAPI@@QAE_NPAV12@_N@Z 00462950 f   BWAPILIB:Unit.obj
 0001:000619b0       ?buildAddon@UnitInterface@BWAPI@@QAE_NVUnitType@2@@Z 004629b0 f   BWAPILIB:Unit.obj
 0001:00061a10       ?train@UnitInterface@BWAPI@@QAE_NVUnitType@2@@Z 00462a10 f   BWAPILIB:Unit.obj
 0001:00061ad0       ?isValid@?$Point@H$00@BWAPI@@QBE_NXZ 00462ad0 f i BWAPILIB:Position.obj
 0001:00061b30       ?makeValid@?$Point@H$00@BWAPI@@QAEAAV12@XZ 00462b30 f i BWAPILIB:Position.obj
 0001:00061bc0       ?isValid@?$Point@H$07@BWAPI@@QBE_NXZ 00462bc0 f i BWAPILIB:Position.obj
 0001:00061c30       ?isValid@?$Point@H$0CA@@BWAPI@@QBE_NXZ 00462c30 f i BWAPILIB:Position.obj
 0001:00061ca0       ??$emplace@ABVRace@BWAPI@@@?$_Hash@V?$_Uset_traits@VRace@BWAPI@@V?$_Uhash_compare@VRace@BWAPI@@U?$hash@H@std@@U?$equal_to@VRace@BWAPI@@@4@@std@@V?$allocator@VRace@BWAPI@@@4@$0A@@std@@@std@@QAE?AU?$pair@V?$_List_const_iterator@V?$_List_val@U?$_List_simple_types@VRace@BWAPI@@@std@@@std@@@std@@_N@1@ABVRace@BWAPI@@@Z 00462ca0 f i BWAPILIB:Race.obj
 0001:00061e80       ?_Forced_rehash@?$_Hash@V?$_Uset_traits@VRace@BWAPI@@V?$_Uhash_compare@VRace@BWAPI@@U?$hash@H@std@@U?$equal_to@VRace@BWAPI@@@4@@std@@V?$allocator@VRace@BWAPI@@@4@$0A@@std@@@std@@IAEXI@Z 00462e80 f i BWAPILIB:Race.obj
 0001:00061fe0       ??$_Find_last@VRace@BWAPI@@@?$_Hash@V?$_Uset_traits@VRace@BWAPI@@V?$_Uhash_compare@VRace@BWAPI@@U?$hash@H@std@@U?$equal_to@VRace@BWAPI@@@4@@std@@V?$allocator@VRace@BWAPI@@@4@$0A@@std@@@std@@IBE?AU?$_Hash_find_last_result@PAU?$_List_node@VRace@BWAPI@@PAX@std@@@1@ABVRace@BWAPI@@I@Z 00462fe0 f i BWAPILIB:Race.obj
 0001:00062050       ??1Event@BWAPI@@QAE@XZ     00463050 f   BWAPILIB:Event.obj
 0001:000620c0       ?setText@Event@BWAPI@@QAEAAV12@PBD@Z 004630c0 f   BWAPILIB:Event.obj
 0001:000621d0       ?maxEnergy@PlayerInterface@BWAPI@@QBEHVUnitType@2@@Z 004631d0 f   BWAPILIB:Player.obj
 0001:00062370       ?weaponMaxRange@PlayerInterface@BWAPI@@QBEHVWeaponType@2@@Z 00463370 f   BWAPILIB:Player.obj
 0001:00062400       ?getTextColor@PlayerInterface@BWAPI@@QBEDXZ 00463400 f   BWAPILIB:Player.obj
 0001:00062580       ?hasUnitTypeRequirement@PlayerInterface@BWAPI@@QBE_NVUnitType@2@H@Z 00463580 f   BWAPILIB:Player.obj
 0001:00062650       ??0?$SetContainer@VWeaponType@BWAPI@@U?$hash@H@std@@@BWAPI@@QAE@V?$initializer_list@VWeaponType@BWAPI@@@std@@@Z 00463650 f i BWAPILIB:WeaponType.obj
 0001:00062720       ?initWeaponTypeSet@WeaponTypesSet@BWAPI@@YA?BV?$SetContainer@VWeaponType@BWAPI@@U?$hash@H@std@@@2@XZ 00463720 f   BWAPILIB:WeaponType.obj
 0001:000627b0       ??$insert@V?$_List_const_iterator@V?$_List_val@U?$_List_simple_types@VWeaponType@BWAPI@@@std@@@std@@@std@@@?$_Hash@V?$_Uset_traits@VWeaponType@BWAPI@@V?$_Uhash_compare@VWeaponType@BWAPI@@U?$hash@H@std@@U?$equal_to@VWeaponType@BWAPI@@@4@@std@@V?$allocator@VWeaponType@BWAPI@@@4@$0A@@std@@@std@@QAEXV?$_List_const_iterator@V?$_List_val@U?$_List_simple_types@VWeaponType@BWAPI@@@std@@@std@@@1@0@Z 004637b0 f i BWAPILIB:WeaponType.obj
 0001:000627f0       ??$insert@PBH@?$_Hash@V?$_Uset_traits@VUnitType@BWAPI@@V?$_Uhash_compare@VUnitType@BWAPI@@U?$hash@H@std@@U?$equal_to@VUnitType@BWAPI@@@4@@std@@V?$allocator@VUnitType@BWAPI@@@4@$0A@@std@@@std@@QAEXPBH0@Z 004637f0 f i BWAPILIB:UpgradeType.obj
 0001:00062830       ??$emplace@ABH@?$_Hash@V?$_Uset_traits@VUnitType@BWAPI@@V?$_Uhash_compare@VUnitType@BWAPI@@U?$hash@H@std@@U?$equal_to@VUnitType@BWAPI@@@4@@std@@V?$allocator@VUnitType@BWAPI@@@4@$0A@@std@@@std@@QAE?AU?$pair@V?$_List_const_iterator@V?$_List_val@U?$_List_simple_types@VUnitType@BWAPI@@@std@@@std@@@std@@_N@1@ABH@Z 00463830 f i BWAPILIB:UpgradeType.obj
 0001:00062ab0       ?useTech@UnitCommand@BWAPI@@SA?AV12@PAVUnitInterface@2@VTechType@2@@Z 00463ab0 f   BWAPILIB:UnitCommand.obj
 0001:00062b70       ??$assignTarget@H$0CA@@UnitCommand@BWAPI@@QAEXV?$Point@H$0CA@@1@@Z 00463b70 f i BWAPILIB:UnitCommand.obj
 0001:00062c10       ?IsTransportImpl@Filter@BWAPI@@YA_NPAVUnitInterface@2@@Z 00463c10 f   BWAPILIB:Filters.obj
 0001:00062c50       ?CanProduceImpl@Filter@BWAPI@@YA_NPAVUnitInterface@2@@Z 00463c50 f   BWAPILIB:Filters.obj
 0001:00062c70       ?CanAttackImpl@Filter@BWAPI@@YA_NPAVUnitInterface@2@@Z 00463c70 f   BWAPILIB:Filters.obj
 0001:00062c90       ?CanMoveImpl@Filter@BWAPI@@YA_NPAVUnitInterface@2@@Z 00463c90 f   BWAPILIB:Filters.obj
 0001:00062cb0       ?IsFlyerImpl@Filter@BWAPI@@YA_NPAVUnitInterface@2@@Z 00463cb0 f   BWAPILIB:Filters.obj
 0001:00062cd0       ?IsFlyingImpl@Filter@BWAPI@@YA_NPAVUnitInterface@2@@Z 00463cd0 f   BWAPILIB:Filters.obj
 0001:00062d10       ?RegeneratesHPImpl@Filter@BWAPI@@YA_NPAVUnitInterface@2@@Z 00463d10 f   BWAPILIB:Filters.obj
 0001:00062d30       ?IsSpellcasterImpl@Filter@BWAPI@@YA_NPAVUnitInterface@2@@Z 00463d30 f   BWAPILIB:Filters.obj
 0001:00062d50       ?HasPermanentCloakImpl@Filter@BWAPI@@YA_NPAVUnitInterface@2@@Z 00463d50 f   BWAPILIB:Filters.obj
 0001:00062d70       ?IsOrganicImpl@Filter@BWAPI@@YA_NPAVUnitInterface@2@@Z 00463d70 f   BWAPILIB:Filters.obj
 0001:00062d90       ?IsMechanicalImpl@Filter@BWAPI@@YA_NPAVUnitInterface@2@@Z 00463d90 f   BWAPILIB:Filters.obj
 0001:00062db0       ?IsRoboticImpl@Filter@BWAPI@@YA_NPAVUnitInterface@2@@Z 00463db0 f   BWAPILIB:Filters.obj
 0001:00062dd0       ?IsDetectorImpl@Filter@BWAPI@@YA_NPAVUnitInterface@2@@Z 00463dd0 f   BWAPILIB:Filters.obj
 0001:00062df0       ?IsResourceContainerImpl@Filter@BWAPI@@YA_NPAVUnitInterface@2@@Z 00463df0 f   BWAPILIB:Filters.obj
 0001:00062e10       ?IsResourceDepotImpl@Filter@BWAPI@@YA_NPAVUnitInterface@2@@Z 00463e10 f   BWAPILIB:Filters.obj
 0001:00062e30       ?IsRefineryImpl@Filter@BWAPI@@YA_NPAVUnitInterface@2@@Z 00463e30 f   BWAPILIB:Filters.obj
 0001:00062e60       ?IsWorkerImpl@Filter@BWAPI@@YA_NPAVUnitInterface@2@@Z 00463e60 f   BWAPILIB:Filters.obj
 0001:00062e80       ?RequiresPsiImpl@Filter@BWAPI@@YA_NPAVUnitInterface@2@@Z 00463e80 f   BWAPILIB:Filters.obj
 0001:00062ea0       ?RequiresCreepImpl@Filter@BWAPI@@YA_NPAVUnitInterface@2@@Z 00463ea0 f   BWAPILIB:Filters.obj
 0001:00062ec0       ?IsBurrowableImpl@Filter@BWAPI@@YA_NPAVUnitInterface@2@@Z 00463ec0 f   BWAPILIB:Filters.obj
 0001:00062ee0       ?IsCloakableImpl@Filter@BWAPI@@YA_NPAVUnitInterface@2@@Z 00463ee0 f   BWAPILIB:Filters.obj
 0001:00062f00       ?IsBuildingImpl@Filter@BWAPI@@YA_NPAVUnitInterface@2@@Z 00463f00 f   BWAPILIB:Filters.obj
 0001:00062f20       ?IsAddonImpl@Filter@BWAPI@@YA_NPAVUnitInterface@2@@Z 00463f20 f   BWAPILIB:Filters.obj
 0001:00062f40       ?IsFlyingBuildingImpl@Filter@BWAPI@@YA_NPAVUnitInterface@2@@Z 00463f40 f   BWAPILIB:Filters.obj
 0001:00062f60       ?IsNeutralImpl@Filter@BWAPI@@YA_NPAVUnitInterface@2@@Z 00463f60 f   BWAPILIB:Filters.obj
 0001:00062fd0       ?IsHeroImpl@Filter@BWAPI@@YA_NPAVUnitInterface@2@@Z 00463fd0 f   BWAPILIB:Filters.obj
 0001:00063000       ?IsPowerupImpl@Filter@BWAPI@@YA_NPAVUnitInterface@2@@Z 00464000 f   BWAPILIB:Filters.obj
 0001:00063040       ?IsBeaconImpl@Filter@BWAPI@@YA_NPAVUnitInterface@2@@Z 00464040 f   BWAPILIB:Filters.obj
 0001:00063070       ?IsFlagBeaconImpl@Filter@BWAPI@@YA_NPAVUnitInterface@2@@Z 00464070 f   BWAPILIB:Filters.obj
 0001:000630a0       ?IsSpecialBuildingImpl@Filter@BWAPI@@YA_NPAVUnitInterface@2@@Z 004640a0 f   BWAPILIB:Filters.obj
 0001:000630e0       ?IsSpellImpl@Filter@BWAPI@@YA_NPAVUnitInterface@2@@Z 004640e0 f   BWAPILIB:Filters.obj
 0001:00063110       ?ProducesLarvaImpl@Filter@BWAPI@@YA_NPAVUnitInterface@2@@Z 00464110 f   BWAPILIB:Filters.obj
 0001:00063140       ?IsMineralFieldImpl@Filter@BWAPI@@YA_NPAVUnitInterface@2@@Z 00464140 f   BWAPILIB:Filters.obj
 0001:00063170       ?IsCritterImpl@Filter@BWAPI@@YA_NPAVUnitInterface@2@@Z 00464170 f   BWAPILIB:Filters.obj
 0001:000631b0       ?CanBuildAddonImpl@Filter@BWAPI@@YA_NPAVUnitInterface@2@@Z 004641b0 f   BWAPILIB:Filters.obj
 0001:000631e0       ?HPImpl@Filter@BWAPI@@YAHPAVUnitInterface@2@@Z 004641e0 f   BWAPILIB:Filters.obj
 0001:000631f0       ?MaxHPImpl@Filter@BWAPI@@YAHPAVUnitInterface@2@@Z 004641f0 f   BWAPILIB:Filters.obj
 0001:00063210       ?HP_PercentImpl@Filter@BWAPI@@YAHPAVUnitInterface@2@@Z 00464210 f   BWAPILIB:Filters.obj
 0001:00063260       ?ShieldsImpl@Filter@BWAPI@@YAHPAVUnitInterface@2@@Z 00464260 f   BWAPILIB:Filters.obj
 0001:00063270       ?MaxShieldsImpl@Filter@BWAPI@@YAHPAVUnitInterface@2@@Z 00464270 f   BWAPILIB:Filters.obj
 0001:00063290       ?Shields_PercentImpl@Filter@BWAPI@@YAHPAVUnitInterface@2@@Z 00464290 f   BWAPILIB:Filters.obj
 0001:000632e0       ?EnergyImpl@Filter@BWAPI@@YAHPAVUnitInterface@2@@Z 004642e0 f   BWAPILIB:Filters.obj
 0001:000632f0       ?MaxEnergyImpl@Filter@BWAPI@@YAHPAVUnitInterface@2@@Z 004642f0 f   BWAPILIB:Filters.obj
 0001:00063320       ?Energy_PercentImpl@Filter@BWAPI@@YAHPAVUnitInterface@2@@Z 00464320 f   BWAPILIB:Filters.obj
 0001:00063380       ?ArmorImpl@Filter@BWAPI@@YAHPAVUnitInterface@2@@Z 00464380 f   BWAPILIB:Filters.obj
 0001:000633e0       ?ArmorUpgradeImpl@Filter@BWAPI@@YA?AVUpgradeType@2@PAVUnitInterface@2@@Z 004643e0 f   BWAPILIB:Filters.obj
 0001:00063400       ?MineralPriceImpl@Filter@BWAPI@@YAHPAVUnitInterface@2@@Z 00464400 f   BWAPILIB:Filters.obj
 0001:00063420       ?GasPriceImpl@Filter@BWAPI@@YAHPAVUnitInterface@2@@Z 00464420 f   BWAPILIB:Filters.obj
 0001:00063440       ?BuildTimeImpl@Filter@BWAPI@@YAHPAVUnitInterface@2@@Z 00464440 f   BWAPILIB:Filters.obj
 0001:00063460       ?SupplyRequiredImpl@Filter@BWAPI@@YAHPAVUnitInterface@2@@Z 00464460 f   BWAPILIB:Filters.obj
 0001:00063480       ?SupplyProvidedImpl@Filter@BWAPI@@YAHPAVUnitInterface@2@@Z 00464480 f   BWAPILIB:Filters.obj
 0001:000634a0       ?SpaceRequiredImpl@Filter@BWAPI@@YAHPAVUnitInterface@2@@Z 004644a0 f   BWAPILIB:Filters.obj
 0001:000634c0       ?SpaceRemainingImpl@Filter@BWAPI@@YAHPAVUnitInterface@2@@Z 004644c0 f   BWAPILIB:Filters.obj
 0001:00063550       ?SpaceProvidedImpl@Filter@BWAPI@@YAHPAVUnitInterface@2@@Z 00464550 f   BWAPILIB:Filters.obj
 0001:00063570       ?BuildScoreImpl@Filter@BWAPI@@YAHPAVUnitInterface@2@@Z 00464570 f   BWAPILIB:Filters.obj
 0001:00063590       ?DestroyScoreImpl@Filter@BWAPI@@YAHPAVUnitInterface@2@@Z 00464590 f   BWAPILIB:Filters.obj
 0001:000635b0       ?TopSpeedImpl@Filter@BWAPI@@YANPAVUnitInterface@2@@Z 004645b0 f   BWAPILIB:Filters.obj
 0001:00063740       ?SightRangeImpl@Filter@BWAPI@@YAHPAVUnitInterface@2@@Z 00464740 f   BWAPILIB:Filters.obj
 0001:000637d0       ?MaxWeaponCooldownImpl@Filter@BWAPI@@YAHPAVUnitInterface@2@@Z 004647d0 f   BWAPILIB:Filters.obj
 0001:00063840       ?SizeTypeImpl@Filter@BWAPI@@YA?AVUnitSizeType@2@PAVUnitInterface@2@@Z 00464840 f   BWAPILIB:Filters.obj
 0001:00063860       ?GroundWeaponImpl@Filter@BWAPI@@YA?AVWeaponType@2@PAVUnitInterface@2@@Z 00464860 f   BWAPILIB:Filters.obj
 0001:00063880       ?AirWeaponImpl@Filter@BWAPI@@YA?AVWeaponType@2@PAVUnitInterface@2@@Z 00464880 f   BWAPILIB:Filters.obj
 0001:000638a0       ?GetTypeImpl@Filter@BWAPI@@YA?AVUnitType@2@PAVUnitInterface@2@@Z 004648a0 f   BWAPILIB:Filters.obj
 0001:000638c0       ?GetRaceImpl@Filter@BWAPI@@YA?AVRace@2@PAVUnitInterface@2@@Z 004648c0 f   BWAPILIB:Filters.obj
 0001:000638e0       ?GetPlayerImpl@Filter@BWAPI@@YAPAVPlayerInterface@2@PAVUnitInterface@2@@Z 004648e0 f   BWAPILIB:Filters.obj
 0001:000638f0       ?ResourcesImpl@Filter@BWAPI@@YAHPAVUnitInterface@2@@Z 004648f0 f   BWAPILIB:Filters.obj
 0001:00063900       ?ResourceGroupImpl@Filter@BWAPI@@YAHPAVUnitInterface@2@@Z 00464900 f   BWAPILIB:Filters.obj
 0001:00063910       ?AcidSporeCountImpl@Filter@BWAPI@@YAHPAVUnitInterface@2@@Z 00464910 f   BWAPILIB:Filters.obj
 0001:00063920       ?InterceptorCountImpl@Filter@BWAPI@@YAHPAVUnitInterface@2@@Z 00464920 f   BWAPILIB:Filters.obj
 0001:00063930       ?ScarabCountImpl@Filter@BWAPI@@YAHPAVUnitInterface@2@@Z 00464930 f   BWAPILIB:Filters.obj
 0001:00063940       ?SpiderMineCountImpl@Filter@BWAPI@@YAHPAVUnitInterface@2@@Z 00464940 f   BWAPILIB:Filters.obj
 0001:00063950       ?WeaponCooldownImpl@Filter@BWAPI@@YAHPAVUnitInterface@2@@Z 00464950 f   BWAPILIB:Filters.obj
 0001:00063960       ?SpellCooldownImpl@Filter@BWAPI@@YAHPAVUnitInterface@2@@Z 00464960 f   BWAPILIB:Filters.obj
 0001:00063970       ?DefenseMatrixPointsImpl@Filter@BWAPI@@YAHPAVUnitInterface@2@@Z 00464970 f   BWAPILIB:Filters.obj
 0001:00063980       ?DefenseMatrixTimeImpl@Filter@BWAPI@@YAHPAVUnitInterface@2@@Z 00464980 f   BWAPILIB:Filters.obj
 0001:00063990       ?EnsnareTimeImpl@Filter@BWAPI@@YAHPAVUnitInterface@2@@Z 00464990 f   BWAPILIB:Filters.obj
 0001:000639a0       ?IrradiateTimeImpl@Filter@BWAPI@@YAHPAVUnitInterface@2@@Z 004649a0 f   BWAPILIB:Filters.obj
 0001:000639b0       ?LockdownTimeImpl@Filter@BWAPI@@YAHPAVUnitInterface@2@@Z 004649b0 f   BWAPILIB:Filters.obj
 0001:000639c0       ?MaelstromTimeImpl@Filter@BWAPI@@YAHPAVUnitInterface@2@@Z 004649c0 f   BWAPILIB:Filters.obj
 0001:000639d0       ?OrderTimeImpl@Filter@BWAPI@@YAHPAVUnitInterface@2@@Z 004649d0 f   BWAPILIB:Filters.obj
 0001:000639e0       ?PlagueTimerImpl@Filter@BWAPI@@YAHPAVUnitInterface@2@@Z 004649e0 f   BWAPILIB:Filters.obj
 0001:000639f0       ?RemoveTimeImpl@Filter@BWAPI@@YAHPAVUnitInterface@2@@Z 004649f0 f   BWAPILIB:Filters.obj
 0001:00063a00       ?StasisTimeImpl@Filter@BWAPI@@YAHPAVUnitInterface@2@@Z 00464a00 f   BWAPILIB:Filters.obj
 0001:00063a10       ?StimTimeImpl@Filter@BWAPI@@YAHPAVUnitInterface@2@@Z 00464a10 f   BWAPILIB:Filters.obj
 0001:00063a20       ?BuildTypeImpl@Filter@BWAPI@@YA?AVUnitType@2@PAVUnitInterface@2@@Z 00464a20 f   BWAPILIB:Filters.obj
 0001:00063a40       ?RemainingBuildTimeImpl@Filter@BWAPI@@YAHPAVUnitInterface@2@@Z 00464a40 f   BWAPILIB:Filters.obj
 0001:00063a50       ?RemainingTrainTimeImpl@Filter@BWAPI@@YAHPAVUnitInterface@2@@Z 00464a50 f   BWAPILIB:Filters.obj
 0001:00063a60       ?TargetImpl@Filter@BWAPI@@YAPAVUnitInterface@2@PAV32@@Z 00464a60 f   BWAPILIB:Filters.obj
 0001:00063a70       ?CurrentOrderImpl@Filter@BWAPI@@YA?AVOrder@2@PAVUnitInterface@2@@Z 00464a70 f   BWAPILIB:Filters.obj
 0001:00063a90       ?SecondaryOrderImpl@Filter@BWAPI@@YA?AVOrder@2@PAVUnitInterface@2@@Z 00464a90 f   BWAPILIB:Filters.obj
 0001:00063ab0       ?OrderTargetImpl@Filter@BWAPI@@YAPAVUnitInterface@2@PAV32@@Z 00464ab0 f   BWAPILIB:Filters.obj
 0001:00063ac0       ?GetLeftImpl@Filter@BWAPI@@YAHPAVUnitInterface@2@@Z 00464ac0 f   BWAPILIB:Filters.obj
 0001:00063b00       ?GetTopImpl@Filter@BWAPI@@YAHPAVUnitInterface@2@@Z 00464b00 f   BWAPILIB:Filters.obj
 0001:00063b40       ?GetRightImpl@Filter@BWAPI@@YAHPAVUnitInterface@2@@Z 00464b40 f   BWAPILIB:Filters.obj
 0001:00063b80       ?GetBottomImpl@Filter@BWAPI@@YAHPAVUnitInterface@2@@Z 00464b80 f   BWAPILIB:Filters.obj
 0001:00063bc0       ?ExistsImpl@Filter@BWAPI@@YA_NPAVUnitInterface@2@@Z 00464bc0 f   BWAPILIB:Filters.obj
 0001:00063bd0       ?IsAttackingImpl@Filter@BWAPI@@YA_NPAVUnitInterface@2@@Z 00464bd0 f   BWAPILIB:Filters.obj
 0001:00063be0       ?IsBeingConstructedImpl@Filter@BWAPI@@YA_NPAVUnitInterface@2@@Z 00464be0 f   BWAPILIB:Filters.obj
 0001:00063c40       ?IsBeingGatheredImpl@Filter@BWAPI@@YA_NPAVUnitInterface@2@@Z 00464c40 f   BWAPILIB:Filters.obj
 0001:00063c50       ?IsBeingHealedImpl@Filter@BWAPI@@YA_NPAVUnitInterface@2@@Z 00464c50 f   BWAPILIB:Filters.obj
 0001:00063c60       ?IsBlindImpl@Filter@BWAPI@@YA_NPAVUnitInterface@2@@Z 00464c60 f   BWAPILIB:Filters.obj
 0001:00063c70       ?IsBrakingImpl@Filter@BWAPI@@YA_NPAVUnitInterface@2@@Z 00464c70 f   BWAPILIB:Filters.obj
 0001:00063c80       ?IsBurrowedImpl@Filter@BWAPI@@YA_NPAVUnitInterface@2@@Z 00464c80 f   BWAPILIB:Filters.obj
 0001:00063c90       ?IsCarryingGasImpl@Filter@BWAPI@@YA_NPAVUnitInterface@2@@Z 00464c90 f   BWAPILIB:Filters.obj
 0001:00063ca0       ?IsCarryingMineralsImpl@Filter@BWAPI@@YA_NPAVUnitInterface@2@@Z 00464ca0 f   BWAPILIB:Filters.obj
 0001:00063cb0       ?IsCarryingSomethingImpl@Filter@BWAPI@@YA_NPAVUnitInterface@2@@Z 00464cb0 f   BWAPILIB:Filters.obj
 0001:00063ce0       ?IsCloakedImpl@Filter@BWAPI@@YA_NPAVUnitInterface@2@@Z 00464ce0 f   BWAPILIB:Filters.obj
 0001:00063cf0       ?IsCompletedImpl@Filter@BWAPI@@YA_NPAVUnitInterface@2@@Z 00464cf0 f   BWAPILIB:Filters.obj
 0001:00063d00       ?IsConstructingImpl@Filter@BWAPI@@YA_NPAVUnitInterface@2@@Z 00464d00 f   BWAPILIB:Filters.obj
 0001:00063d10       ?IsDefenseMatrixedImpl@Filter@BWAPI@@YA_NPAVUnitInterface@2@@Z 00464d10 f   BWAPILIB:Filters.obj
 0001:00063d30       ?IsDetectedImpl@Filter@BWAPI@@YA_NPAVUnitInterface@2@@Z 00464d30 f   BWAPILIB:Filters.obj
 0001:00063d40       ?IsEnsnaredImpl@Filter@BWAPI@@YA_NPAVUnitInterface@2@@Z 00464d40 f   BWAPILIB:Filters.obj
 0001:00063d60       ?IsFollowingImpl@Filter@BWAPI@@YA_NPAVUnitInterface@2@@Z 00464d60 f   BWAPILIB:Filters.obj
 0001:00063d80       ?IsGatheringGasImpl@Filter@BWAPI@@YA_NPAVUnitInterface@2@@Z 00464d80 f   BWAPILIB:Filters.obj
 0001:00063d90       ?IsGatheringMineralsImpl@Filter@BWAPI@@YA_NPAVUnitInterface@2@@Z 00464d90 f   BWAPILIB:Filters.obj
 0001:00063da0       ?IsHallucinationImpl@Filter@BWAPI@@YA_NPAVUnitInterface@2@@Z 00464da0 f   BWAPILIB:Filters.obj
 0001:00063db0       ?IsHoldingPositionImpl@Filter@BWAPI@@YA_NPAVUnitInterface@2@@Z 00464db0 f   BWAPILIB:Filters.obj
 0001:00063dd0       ?IsIdleImpl@Filter@BWAPI@@YA_NPAVUnitInterface@2@@Z 00464dd0 f   BWAPILIB:Filters.obj
 0001:00063de0       ?IsInterruptibleImpl@Filter@BWAPI@@YA_NPAVUnitInterface@2@@Z 00464de0 f   BWAPILIB:Filters.obj
 0001:00063df0       ?IsInvincibleImpl@Filter@BWAPI@@YA_NPAVUnitInterface@2@@Z 00464df0 f   BWAPILIB:Filters.obj
 0001:00063e00       ?IsIrradiatedImpl@Filter@BWAPI@@YA_NPAVUnitInterface@2@@Z 00464e00 f   BWAPILIB:Filters.obj
 0001:00063e20       ?IsLiftedImpl@Filter@BWAPI@@YA_NPAVUnitInterface@2@@Z 00464e20 f   BWAPILIB:Filters.obj
 0001:00063e30       ?IsLoadedImpl@Filter@BWAPI@@YA_NPAVUnitInterface@2@@Z 00464e30 f   BWAPILIB:Filters.obj
 0001:00063e50       ?IsLockedDownImpl@Filter@BWAPI@@YA_NPAVUnitInterface@2@@Z 00464e50 f   BWAPILIB:Filters.obj
 0001:00063e70       ?IsMaelstrommedImpl@Filter@BWAPI@@YA_NPAVUnitInterface@2@@Z 00464e70 f   BWAPILIB:Filters.obj
 0001:00063e90       ?IsMorphingImpl@Filter@BWAPI@@YA_NPAVUnitInterface@2@@Z 00464e90 f   BWAPILIB:Filters.obj
 0001:00063ea0       ?IsMovingImpl@Filter@BWAPI@@YA_NPAVUnitInterface@2@@Z 00464ea0 f   BWAPILIB:Filters.obj
 0001:00063eb0       ?IsParasitedImpl@Filter@BWAPI@@YA_NPAVUnitInterface@2@@Z 00464eb0 f   BWAPILIB:Filters.obj
 0001:00063ec0       ?IsPatrollingImpl@Filter@BWAPI@@YA_NPAVUnitInterface@2@@Z 00464ec0 f   BWAPILIB:Filters.obj
 0001:00063ee0       ?IsPlaguedImpl@Filter@BWAPI@@YA_NPAVUnitInterface@2@@Z 00464ee0 f   BWAPILIB:Filters.obj
 0001:00063f00       ?IsRepairingImpl@Filter@BWAPI@@YA_NPAVUnitInterface@2@@Z 00464f00 f   BWAPILIB:Filters.obj
 0001:00063f20       ?IsResearchingImpl@Filter@BWAPI@@YA_NPAVUnitInterface@2@@Z 00464f20 f   BWAPILIB:Filters.obj
 0001:00063f40       ?IsSiegedImpl@Filter@BWAPI@@YA_NPAVUnitInterface@2@@Z 00464f40 f   BWAPILIB:Filters.obj
 0001:00063f70       ?IsStartingAttackImpl@Filter@BWAPI@@YA_NPAVUnitInterface@2@@Z 00464f70 f   BWAPILIB:Filters.obj
 0001:00063f80       ?IsStasisedImpl@Filter@BWAPI@@YA_NPAVUnitInterface@2@@Z 00464f80 f   BWAPILIB:Filters.obj
 0001:00063fa0       ?IsStimmedImpl@Filter@BWAPI@@YA_NPAVUnitInterface@2@@Z 00464fa0 f   BWAPILIB:Filters.obj
 0001:00063fc0       ?IsStuckImpl@Filter@BWAPI@@YA_NPAVUnitInterface@2@@Z 00464fc0 f   BWAPILIB:Filters.obj
 0001:00063fd0       ?IsTrainingImpl@Filter@BWAPI@@YA_NPAVUnitInterface@2@@Z 00464fd0 f   BWAPILIB:Filters.obj
 0001:00063fe0       ?IsUnderAttackImpl@Filter@BWAPI@@YA_NPAVUnitInterface@2@@Z 00464fe0 f   BWAPILIB:Filters.obj
 0001:00063ff0       ?IsUnderDarkSwarmImpl@Filter@BWAPI@@YA_NPAVUnitInterface@2@@Z 00464ff0 f   BWAPILIB:Filters.obj
 0001:00064000       ?IsUnderDisruptionWebImpl@Filter@BWAPI@@YA_NPAVUnitInterface@2@@Z 00465000 f   BWAPILIB:Filters.obj
 0001:00064010       ?IsUnderStormImpl@Filter@BWAPI@@YA_NPAVUnitInterface@2@@Z 00465010 f   BWAPILIB:Filters.obj
 0001:00064020       ?IsPoweredImpl@Filter@BWAPI@@YA_NPAVUnitInterface@2@@Z 00465020 f   BWAPILIB:Filters.obj
 0001:00064030       ?IsVisibleImpl@Filter@BWAPI@@YA_NPAVUnitInterface@2@@Z 00465030 f   BWAPILIB:Filters.obj
 0001:00064050       ?IsEnemyImpl@Filter@BWAPI@@YA_NPAVUnitInterface@2@@Z 00465050 f   BWAPILIB:Filters.obj
 0001:00064090       ?IsAllyImpl@Filter@BWAPI@@YA_NPAVUnitInterface@2@@Z 00465090 f   BWAPILIB:Filters.obj
 0001:000640d0       ?IsOwnedImpl@Filter@BWAPI@@YA_NPAVUnitInterface@2@@Z 004650d0 f   BWAPILIB:Filters.obj
 0001:00064100       ?connect@Client@BWAPI@@QAE_NXZ 00465100 f   BWAPIClient:Client.obj
 0001:000647f0       ?disconnect@Client@BWAPI@@QAEXXZ 004657f0 f   BWAPIClient:Client.obj
 0001:00064880       ?update@Client@BWAPI@@QAEXXZ 00465880 f   BWAPIClient:Client.obj
 0001:00064990       ??1UnitInterface@BWAPI@@MAE@XZ 00465990 f i BWAPIClient:GameImpl.obj
 0001:000649d0       ??1Game@BWAPI@@MAE@XZ      004659d0 f i BWAPIClient:GameImpl.obj
 0001:00064a00       ??1PlayerInterface@BWAPI@@MAE@XZ 00465a00 f i BWAPIClient:GameImpl.obj
 0001:00064a30       ??0GameImpl@BWAPI@@QAE@PAUGameData@1@@Z 00465a30 f   BWAPIClient:GameImpl.obj
 0001:00065540       ??_GGameImpl@BWAPI@@UAEPAXI@Z 00466540 f i BWAPIClient:GameImpl.obj
 0001:00065540       ??_EGameImpl@BWAPI@@UAEPAXI@Z 00466540 f i * CIL library *:* CIL module *
 0001:000656c0       ??1ForceImpl@BWAPI@@UAE@XZ 004666c0 f i BWAPIClient:GameImpl.obj
 0001:000656f0       ??1PlayerImpl@BWAPI@@UAE@XZ 004666f0 f i BWAPIClient:GameImpl.obj
 0001:00065730       ??1UnitImpl@BWAPI@@UAE@XZ  00466730 f i BWAPIClient:GameImpl.obj
 0001:00065780       ??1BulletImpl@BWAPI@@UAE@XZ 00466780 f i BWAPIClient:GameImpl.obj
 0001:000657c0       ??_G?$Interface@VGame@BWAPI@@@BWAPI@@MAEPAXI@Z 004667c0 f i BWAPIClient:GameImpl.obj
 0001:000657c0       ??_E?$Interface@VGame@BWAPI@@@BWAPI@@MAEPAXI@Z 004667c0 f i * CIL library *:* CIL module *
 0001:00065810       ?clearAll@GameImpl@BWAPI@@AAEXXZ 00466810 f   BWAPIClient:GameImpl.obj
 0001:000659f0       ?processInterfaceEvents@GameImpl@BWAPI@@AAEXXZ 004669f0 f   BWAPIClient:GameImpl.obj
 0001:00066040       ?onMatchStart@GameImpl@BWAPI@@QAEXXZ 00467040 f   BWAPIClient:GameImpl.obj
 0001:00066750       ?onMatchFrame@GameImpl@BWAPI@@QAEXXZ 00467750 f   BWAPIClient:GameImpl.obj
 0001:00067070       ?getForce@GameImpl@BWAPI@@UBEPAVForceInterface@2@H@Z 00468070 f   BWAPIClient:GameImpl.obj
 0001:000670b0       ?getRegion@GameImpl@BWAPI@@UBEPAVRegionInterface@2@H@Z 004680b0 f   BWAPIClient:GameImpl.obj
 0001:000670d0       ?getPlayer@GameImpl@BWAPI@@UBEPAVPlayerInterface@2@H@Z 004680d0 f   BWAPIClient:GameImpl.obj
 0001:00067110       ?getUnit@GameImpl@BWAPI@@UBEPAVUnitInterface@2@H@Z 00468110 f   BWAPIClient:GameImpl.obj
 0001:00067150       ?indexToUnit@GameImpl@BWAPI@@UBEPAVUnitInterface@2@H@Z 00468150 f   BWAPIClient:GameImpl.obj
 0001:00067180       ?getGameType@GameImpl@BWAPI@@UBE?AVGameType@2@XZ 00468180 f   BWAPIClient:GameImpl.obj
 0001:000671a0       ?getLatency@GameImpl@BWAPI@@UBEHXZ 004681a0 f   BWAPIClient:GameImpl.obj
 0001:000671b0       ?getFrameCount@GameImpl@BWAPI@@UBEHXZ 004681b0 f   BWAPIClient:GameImpl.obj
 0001:000671c0       ?getReplayFrameCount@GameImpl@BWAPI@@UBEHXZ 004681c0 f   BWAPIClient:GameImpl.obj
 0001:000671d0       ?getFPS@GameImpl@BWAPI@@UBEHXZ 004681d0 f   BWAPIClient:GameImpl.obj
 0001:000671e0       ?getAverageFPS@GameImpl@BWAPI@@UBENXZ 004681e0 f   BWAPIClient:GameImpl.obj
 0001:000671f0       ?getMousePosition@GameImpl@BWAPI@@UBE?AV?$Point@H$00@2@XZ 004681f0 f   BWAPIClient:GameImpl.obj
 0001:00067210       ?getMouseState@GameImpl@BWAPI@@UBE_NW4MouseButton@2@@Z 00468210 f   BWAPIClient:GameImpl.obj
 0001:00067230       ?getKeyState@GameImpl@BWAPI@@UBE_NW4Key@2@@Z 00468230 f   BWAPIClient:GameImpl.obj
 0001:00067250       ?getScreenPosition@GameImpl@BWAPI@@UBE?AV?$Point@H$00@2@XZ 00468250 f   BWAPIClient:GameImpl.obj
 0001:00067270       ?setScreenPosition@GameImpl@BWAPI@@UAEXHH@Z 00468270 f   BWAPIClient:GameImpl.obj
 0001:000672c0       ?pingMinimap@GameImpl@BWAPI@@UAEXHH@Z 004682c0 f   BWAPIClient:GameImpl.obj
 0001:00067310       ?isFlagEnabled@GameImpl@BWAPI@@UBE_NH@Z 00468310 f   BWAPIClient:GameImpl.obj
 0001:00067330       ?enableFlag@GameImpl@BWAPI@@UAEXH@Z 00468330 f   BWAPIClient:GameImpl.obj
 0001:00067390       ?getUnitsInRectangle@GameImpl@BWAPI@@UBE?AVUnitset@2@HHHHABV?$UnaryFilter@PAVUnitInterface@BWAPI@@V?$function@$$A6A_NPAVUnitInterface@BWAPI@@@Z@std@@@2@@Z 00468390 f   BWAPIClient:GameImpl.obj
 0001:00067480       ?getClosestUnitInRectangle@GameImpl@BWAPI@@UBEPAVUnitInterface@2@V?$Point@H$00@2@ABV?$UnaryFilter@PAVUnitInterface@BWAPI@@V?$function@$$A6A_NPAVUnitInterface@BWAPI@@@Z@std@@@2@HHHH@Z 00468480 f   BWAPIClient:GameImpl.obj
 0001:000674f0       ?getBestUnit@GameImpl@BWAPI@@UBEPAVUnitInterface@2@ABV?$BestFilter@PAVUnitInterface@BWAPI@@@2@ABV?$UnaryFilter@PAVUnitInterface@BWAPI@@V?$function@$$A6A_NPAVUnitInterface@BWAPI@@@Z@std@@@2@V?$Point@H$00@2@H@Z 004684f0 f   BWAPIClient:GameImpl.obj
 0001:000675a0       ?mapWidth@GameImpl@BWAPI@@UBEHXZ 004685a0 f   BWAPIClient:GameImpl.obj
 0001:000675b0       ?mapHeight@GameImpl@BWAPI@@UBEHXZ 004685b0 f   BWAPIClient:GameImpl.obj
 0001:000675c0       ?mapFileName@GameImpl@BWAPI@@UBE?AV?$basic_string@DU?$char_traits@D@std@@V?$allocator@D@2@@std@@XZ 004685c0 f   BWAPIClient:GameImpl.obj
 0001:00067610       ?mapPathName@GameImpl@BWAPI@@UBE?AV?$basic_string@DU?$char_traits@D@std@@V?$allocator@D@2@@std@@XZ 00468610 f   BWAPIClient:GameImpl.obj
 0001:00067660       ?mapName@GameImpl@BWAPI@@UBE?AV?$basic_string@DU?$char_traits@D@std@@V?$allocator@D@2@@std@@XZ 00468660 f   BWAPIClient:GameImpl.obj
 0001:000676b0       ?mapHash@GameImpl@BWAPI@@UBE?AV?$basic_string@DU?$char_traits@D@std@@V?$allocator@D@2@@std@@XZ 004686b0 f   BWAPIClient:GameImpl.obj
 0001:00067700       ?isWalkable@GameImpl@BWAPI@@UBE_NHH@Z 00468700 f   BWAPIClient:GameImpl.obj
 0001:00067750       ?getGroundHeight@GameImpl@BWAPI@@UBEHHH@Z 00468750 f   BWAPIClient:GameImpl.obj
 0001:000677a0       ?isBuildable@GameImpl@BWAPI@@UBE_NHH_N@Z 004687a0 f   BWAPIClient:GameImpl.obj
 0001:00067800       ?isVisible@GameImpl@BWAPI@@UBE_NHH@Z 00468800 f   BWAPIClient:GameImpl.obj
 0001:00067850       ?isExplored@GameImpl@BWAPI@@UBE_NHH@Z 00468850 f   BWAPIClient:GameImpl.obj
 0001:000678a0       ?hasCreep@GameImpl@BWAPI@@UBE_NHH@Z 004688a0 f   BWAPIClient:GameImpl.obj
 0001:000678f0       ?hasPowerPrecise@GameImpl@BWAPI@@UBE_NHHVUnitType@2@@Z 004688f0 f   BWAPIClient:GameImpl.obj
 0001:000679f0       ?vPrintf@GameImpl@BWAPI@@UAEXPBDPAD@Z 004689f0 f   BWAPIClient:GameImpl.obj
 0001:00067ad0       ?vSendTextEx@GameImpl@BWAPI@@UAEX_NPBDPAD@Z 00468ad0 f   BWAPIClient:GameImpl.obj
 0001:00067bb0       ?isInGame@GameImpl@BWAPI@@UBE_NXZ 00468bb0 f   BWAPIClient:GameImpl.obj
 0001:00067bc0       ?isMultiplayer@GameImpl@BWAPI@@UBE_NXZ 00468bc0 f   BWAPIClient:GameImpl.obj
 0001:00067bd0       ?isBattleNet@GameImpl@BWAPI@@UBE_NXZ 00468bd0 f   BWAPIClient:GameImpl.obj
 0001:00067be0       ?isPaused@GameImpl@BWAPI@@UBE_NXZ 00468be0 f   BWAPIClient:GameImpl.obj
 0001:00067bf0       ?isReplay@GameImpl@BWAPI@@UBE_NXZ 00468bf0 f   BWAPIClient:GameImpl.obj
 0001:00067c00       ?pauseGame@GameImpl@BWAPI@@UAEXXZ 00468c00 f   BWAPIClient:GameImpl.obj
 0001:00067c50       ?resumeGame@GameImpl@BWAPI@@UAEXXZ 00468c50 f   BWAPIClient:GameImpl.obj
 0001:00067ca0       ?leaveGame@GameImpl@BWAPI@@UAEXXZ 00468ca0 f   BWAPIClient:GameImpl.obj
 0001:00067cf0       ?restartGame@GameImpl@BWAPI@@UAEXXZ 00468cf0 f   BWAPIClient:GameImpl.obj
 0001:00067d40       ?setAlliance@GameImpl@BWAPI@@UAE_NPAVPlayerInterface@2@_N1@Z 00468d40 f   BWAPIClient:GameImpl.obj
 0001:00067e00       ?setVision@GameImpl@BWAPI@@UAE_NPAVPlayerInterface@2@_N@Z 00468e00 f   BWAPIClient:GameImpl.obj
 0001:00067ed0       ?setLocalSpeed@GameImpl@BWAPI@@UAEXH@Z 00468ed0 f   BWAPIClient:GameImpl.obj
 0001:00067f20       ?setFrameSkip@GameImpl@BWAPI@@UAEXH@Z 00468f20 f   BWAPIClient:GameImpl.obj
 0001:00067f90       ?issueCommand@GameImpl@BWAPI@@UAE_NABVUnitset@2@VUnitCommand@2@@Z 00468f90 f   BWAPIClient:GameImpl.obj
 0001:00067fe0       ?getSelectedUnits@GameImpl@BWAPI@@UBEABVUnitset@2@XZ 00468fe0 f   BWAPIClient:GameImpl.obj
 0001:00068000       ?self@GameImpl@BWAPI@@UBEPAVPlayerInterface@2@XZ 00469000 f   BWAPIClient:GameImpl.obj
 0001:00068010       ?enemy@GameImpl@BWAPI@@UBEPAVPlayerInterface@2@XZ 00469010 f   BWAPIClient:GameImpl.obj
 0001:00068020       ?neutral@GameImpl@BWAPI@@UBEPAVPlayerInterface@2@XZ 00469020 f   BWAPIClient:GameImpl.obj
 0001:00068030       ?allies@GameImpl@BWAPI@@UAEAAVPlayerset@2@XZ 00469030 f   BWAPIClient:GameImpl.obj
 0001:00068040       ?enemies@GameImpl@BWAPI@@UAEAAVPlayerset@2@XZ 00469040 f   BWAPIClient:GameImpl.obj
 0001:00068050       ?observers@GameImpl@BWAPI@@UAEAAVPlayerset@2@XZ 00469050 f   BWAPIClient:GameImpl.obj
 0001:00068060       ?setTextSize@GameImpl@BWAPI@@UAEXW4Enum@Size@Text@2@@Z 00469060 f   BWAPIClient:GameImpl.obj
 0001:00068080       ?vDrawText@GameImpl@BWAPI@@UAEXW4Enum@CoordinateType@2@HHPBDPAD@Z 00469080 f   BWAPIClient:GameImpl.obj
 0001:000681c0       ?drawBox@GameImpl@BWAPI@@UAEXW4Enum@CoordinateType@2@HHHHVColor@2@_N@Z 004691c0 f   BWAPIClient:GameImpl.obj
 0001:00068270       ?drawTriangle@GameImpl@BWAPI@@UAEXW4Enum@CoordinateType@2@HHHHHHVColor@2@_N@Z 00469270 f   BWAPIClient:GameImpl.obj
 0001:00068320       ?drawCircle@GameImpl@BWAPI@@UAEXW4Enum@CoordinateType@2@HHHVColor@2@_N@Z 00469320 f   BWAPIClient:GameImpl.obj
 0001:000683d0       ?drawEllipse@GameImpl@BWAPI@@UAEXW4Enum@CoordinateType@2@HHHHVColor@2@_N@Z 004693d0 f   BWAPIClient:GameImpl.obj
 0001:00068480       ?drawDot@GameImpl@BWAPI@@UAEXW4Enum@CoordinateType@2@HHVColor@2@@Z 00469480 f   BWAPIClient:GameImpl.obj
 0001:00068500       ?drawLine@GameImpl@BWAPI@@UAEXW4Enum@CoordinateType@2@HHHHVColor@2@@Z 00469500 f   BWAPIClient:GameImpl.obj
 0001:000685a0       ?getLatencyFrames@GameImpl@BWAPI@@UBEHXZ 004695a0 f   BWAPIClient:GameImpl.obj
 0001:000685b0       ?getLatencyTime@GameImpl@BWAPI@@UBEHXZ 004695b0 f   BWAPIClient:GameImpl.obj
 0001:000685c0       ?getRemainingLatencyFrames@GameImpl@BWAPI@@UBEHXZ 004695c0 f   BWAPIClient:GameImpl.obj
 0001:000685d0       ?getRemainingLatencyTime@GameImpl@BWAPI@@UBEHXZ 004695d0 f   BWAPIClient:GameImpl.obj
 0001:000685e0       ?getRegionGroupID@RegionImpl@BWAPI@@UBEHXZ 004695e0 f   BWAPIClient:RegionShared.obj
 0001:000685e0       ?getRevision@GameImpl@BWAPI@@UBEHXZ 004695e0 f   BWAPIClient:GameImpl.obj
 0001:000685f0       ?getClientVersion@GameImpl@BWAPI@@UBEHXZ 004695f0 f   BWAPIClient:GameImpl.obj
 0001:000685f0       ?getID@RegionImpl@BWAPI@@UBEHXZ 004695f0 f   BWAPIClient:RegionShared.obj
 0001:000685f0       ?getID@BulletImpl@BWAPI@@UBEHXZ 004695f0 f   BWAPIClient:BulletShared.obj
 0001:00068600       ?isDebug@GameImpl@BWAPI@@UBE_NXZ 00469600 f   BWAPIClient:GameImpl.obj
 0001:00068610       ?isLatComEnabled@GameImpl@BWAPI@@UBE_NXZ 00469610 f   BWAPIClient:GameImpl.obj
 0001:00068620       ?setLatCom@GameImpl@BWAPI@@UAEX_N@Z 00469620 f   BWAPIClient:GameImpl.obj
 0001:00068680       ?isGUIEnabled@GameImpl@BWAPI@@UBE_NXZ 00469680 f   BWAPIClient:GameImpl.obj
 0001:00068690       ?setGUI@GameImpl@BWAPI@@UAEX_N@Z 00469690 f   BWAPIClient:GameImpl.obj
 0001:000686f0       ?getInstanceNumber@GameImpl@BWAPI@@UBEHXZ 004696f0 f   BWAPIClient:GameImpl.obj
 0001:00068700       ?getAPM@GameImpl@BWAPI@@UBEH_N@Z 00469700 f   BWAPIClient:GameImpl.obj
 0001:00068720       ?setMap@GameImpl@BWAPI@@UAE_NPBD@Z 00469720 f   BWAPIClient:GameImpl.obj
 0001:00068820       ??_D?$basic_ifstream@DU?$char_traits@D@std@@@std@@QAEXXZ 00469820 f i BWAPIClient:GameImpl.obj
 0001:000688e0       ?elapsedTime@GameImpl@BWAPI@@UBEHXZ 004698e0 f   BWAPIClient:GameImpl.obj
 0001:000688f0       ?setCommandOptimizationLevel@GameImpl@BWAPI@@UAEXH@Z 004698f0 f   BWAPIClient:GameImpl.obj
 0001:00068940       ?countdownTimer@GameImpl@BWAPI@@UBEHXZ 00469940 f   BWAPIClient:GameImpl.obj
 0001:00068950       ?getRegionAt@GameImpl@BWAPI@@UBEPAVRegionInterface@2@HH@Z 00469950 f   BWAPIClient:GameImpl.obj
 0001:00068a50       ?setRevealAll@GameImpl@BWAPI@@UAE_N_N@Z 00469a50 f   BWAPIClient:GameImpl.obj
 0001:00068ad0       ?getRandomSeed@GameImpl@BWAPI@@UBEIXZ 00469ad0 f   BWAPIClient:GameImpl.obj
 0001:00068ae0       ??0?$basic_ifstream@DU?$char_traits@D@std@@@std@@QAE@PBDHH@Z 00469ae0 f i BWAPIClient:GameImpl.obj
 0001:00068be0       ??1?$list@VEvent@BWAPI@@V?$allocator@VEvent@BWAPI@@@std@@@std@@QAE@XZ 00469be0 f i BWAPIClient:GameImpl.obj
 0001:00068c30       ??1?$vector@VBulletImpl@BWAPI@@V?$allocator@VBulletImpl@BWAPI@@@std@@@std@@QAE@XZ 00469c30 f i BWAPIClient:GameImpl.obj
 0001:00068c30       ??1?$vector@VForceImpl@BWAPI@@V?$allocator@VForceImpl@BWAPI@@@std@@@std@@QAE@XZ 00469c30 f i BWAPIClient:GameImpl.obj
 0001:00068cc0       ??1?$vector@VUnitImpl@BWAPI@@V?$allocator@VUnitImpl@BWAPI@@@std@@@std@@QAE@XZ 00469cc0 f i BWAPIClient:GameImpl.obj
 0001:00068d50       ??1?$vector@VPlayerImpl@BWAPI@@V?$allocator@VPlayerImpl@BWAPI@@@std@@@std@@QAE@XZ 00469d50 f i BWAPIClient:GameImpl.obj
 0001:00068de0       ?clear@?$_Hash@V?$_Uset_traits@PAVBulletInterface@BWAPI@@V?$_Uhash_compare@PAVBulletInterface@BWAPI@@U?$hash@PAX@std@@U?$equal_to@PAVBulletInterface@BWAPI@@@4@@std@@V?$allocator@PAVBulletInterface@BWAPI@@@4@$0A@@std@@@std@@QAEXXZ 00469de0 f i BWAPIClient:GameImpl.obj
 0001:00068de0       ?clear@?$_Hash@V?$_Uset_traits@PAVForceInterface@BWAPI@@V?$_Uhash_compare@PAVForceInterface@BWAPI@@U?$hash@PAX@std@@U?$equal_to@PAVForceInterface@BWAPI@@@4@@std@@V?$allocator@PAVForceInterface@BWAPI@@@4@$0A@@std@@@std@@QAEXXZ 00469de0 f i BWAPIClient:GameImpl.obj
 0001:00068de0       ?clear@?$_Hash@V?$_Uset_traits@PAVRegionInterface@BWAPI@@V?$_Uhash_compare@PAVRegionInterface@BWAPI@@U?$hash@PAX@std@@U?$equal_to@PAVRegionInterface@BWAPI@@@4@@std@@V?$allocator@PAVRegionInterface@BWAPI@@@4@$0A@@std@@@std@@QAEXXZ 00469de0 f i BWAPIClient:GameImpl.obj
 0001:00068de0       ?clear@?$_Hash@V?$_Uset_traits@PAVPlayerInterface@BWAPI@@V?$_Uhash_compare@PAVPlayerInterface@BWAPI@@U?$hash@PAX@std@@U?$equal_to@PAVPlayerInterface@BWAPI@@@4@@std@@V?$allocator@PAVPlayerInterface@BWAPI@@@4@$0A@@std@@@std@@QAEXXZ 00469de0 f i BWAPIClient:GameImpl.obj
 0001:00068e60       ??1?$list@V?$InterfaceEvent@VForceInterface@BWAPI@@@BWAPI@@V?$allocator@V?$InterfaceEvent@VForceInterface@BWAPI@@@BWAPI@@@std@@@std@@QAE@XZ 00469e60 f i BWAPIClient:GameImpl.obj
 0001:00068e60       ??1?$list@V?$InterfaceEvent@VPlayerInterface@BWAPI@@@BWAPI@@V?$allocator@V?$InterfaceEvent@VPlayerInterface@BWAPI@@@BWAPI@@@std@@@std@@QAE@XZ 00469e60 f i BWAPIClient:GameImpl.obj
 0001:00068e60       ??1?$list@V?$InterfaceEvent@VRegionInterface@BWAPI@@@BWAPI@@V?$allocator@V?$InterfaceEvent@VRegionInterface@BWAPI@@@BWAPI@@@std@@@std@@QAE@XZ 00469e60 f i BWAPIClient:RegionImpl.obj
 0001:00068e60       ??1?$list@V?$InterfaceEvent@VGame@BWAPI@@@BWAPI@@V?$allocator@V?$InterfaceEvent@VGame@BWAPI@@@BWAPI@@@std@@@std@@QAE@XZ 00469e60 f i BWAPIClient:GameImpl.obj
 0001:00068ef0       ??_G?$basic_ifstream@DU?$char_traits@D@std@@@std@@UAEPAXI@Z 00469ef0 f i BWAPIClient:GameImpl.obj
 0001:00068ef0       ??_E?$basic_ifstream@DU?$char_traits@D@std@@@std@@UAEPAXI@Z 00469ef0 f i * CIL library *:* CIL module *
 0001:00068f20       ??_G?$Interface@VPlayerInterface@BWAPI@@@BWAPI@@MAEPAXI@Z 00469f20 f i BWAPIClient:GameImpl.obj
 0001:00068f20       ??_E?$Interface@VPlayerInterface@BWAPI@@@BWAPI@@MAEPAXI@Z 00469f20 f i * CIL library *:* CIL module *
 0001:00068f70       ??_G?$Interface@VForceInterface@BWAPI@@@BWAPI@@MAEPAXI@Z 00469f70 f i BWAPIClient:GameImpl.obj
 0001:00068f70       ??_E?$Interface@VForceInterface@BWAPI@@@BWAPI@@MAEPAXI@Z 00469f70 f i * CIL library *:* CIL module *
 0001:00068fc0       ??_G?$Interface@VBulletInterface@BWAPI@@@BWAPI@@MAEPAXI@Z 00469fc0 f i BWAPIClient:GameImpl.obj
 0001:00068fc0       ??_E?$Interface@VBulletInterface@BWAPI@@@BWAPI@@MAEPAXI@Z 00469fc0 f i * CIL library *:* CIL module *
 0001:00069020       ??_G?$Interface@VUnitInterface@BWAPI@@@BWAPI@@MAEPAXI@Z 0046a020 f i BWAPIClient:GameImpl.obj
 0001:00069020       ??_E?$Interface@VUnitInterface@BWAPI@@@BWAPI@@MAEPAXI@Z 0046a020 f i * CIL library *:* CIL module *
 0001:00069080       ?_Unchecked_erase@?$_Hash@V?$_Uset_traits@PAVBulletInterface@BWAPI@@V?$_Uhash_compare@PAVBulletInterface@BWAPI@@U?$hash@PAX@std@@U?$equal_to@PAVBulletInterface@BWAPI@@@4@@std@@V?$allocator@PAVBulletInterface@BWAPI@@@4@$0A@@std@@@std@@AAEPAU?$_List_node@PAVBulletInterface@BWAPI@@PAX@2@PAU32@QAU32@@Z 0046a080 f i BWAPIClient:GameImpl.obj
 0001:00069080       ?_Unchecked_erase@?$_Hash@V?$_Uset_traits@PAVPlayerInterface@BWAPI@@V?$_Uhash_compare@PAVPlayerInterface@BWAPI@@U?$hash@PAX@std@@U?$equal_to@PAVPlayerInterface@BWAPI@@@4@@std@@V?$allocator@PAVPlayerInterface@BWAPI@@@4@$0A@@std@@@std@@AAEPAU?$_List_node@PAVPlayerInterface@BWAPI@@PAX@2@PAU32@QAU32@@Z 0046a080 f i BWAPIClient:GameImpl.obj
 0001:00069080       ?_Unchecked_erase@?$_Hash@V?$_Uset_traits@PAVRegionInterface@BWAPI@@V?$_Uhash_compare@PAVRegionInterface@BWAPI@@U?$hash@PAX@std@@U?$equal_to@PAVRegionInterface@BWAPI@@@4@@std@@V?$allocator@PAVRegionInterface@BWAPI@@@4@$0A@@std@@@std@@AAEPAU?$_List_node@PAVRegionInterface@BWAPI@@PAX@2@PAU32@QAU32@@Z 0046a080 f i BWAPIClient:GameImpl.obj
 0001:00069080       ?_Unchecked_erase@?$_Hash@V?$_Uset_traits@PAVForceInterface@BWAPI@@V?$_Uhash_compare@PAVForceInterface@BWAPI@@U?$hash@PAX@std@@U?$equal_to@PAVForceInterface@BWAPI@@@4@@std@@V?$allocator@PAVForceInterface@BWAPI@@@4@$0A@@std@@@std@@AAEPAU?$_List_node@PAVForceInterface@BWAPI@@PAX@2@PAU32@QAU32@@Z 0046a080 f i BWAPIClient:GameImpl.obj
 0001:00069230       ?_Destroy@?$vector@VBulletImpl@BWAPI@@V?$allocator@VBulletImpl@BWAPI@@@std@@@std@@AAEXPAVBulletImpl@BWAPI@@0@Z 0046a230 f i BWAPIClient:GameImpl.obj
 0001:00069230       ?_Destroy@?$vector@VForceImpl@BWAPI@@V?$allocator@VForceImpl@BWAPI@@@std@@@std@@AAEXPAVForceImpl@BWAPI@@0@Z 0046a230 f i BWAPIClient:GameImpl.obj
 0001:00069260       ?deallocate@?$allocator@VForceImpl@BWAPI@@@std@@QAEXQAVForceImpl@BWAPI@@I@Z 0046a260 f i BWAPIClient:GameImpl.obj
 0001:00069260       ?deallocate@?$allocator@VBulletImpl@BWAPI@@@std@@QAEXQAVBulletImpl@BWAPI@@I@Z 0046a260 f i BWAPIClient:GameImpl.obj
 0001:000692b0       ?_Destroy@?$vector@VUnitImpl@BWAPI@@V?$allocator@VUnitImpl@BWAPI@@@std@@@std@@AAEXPAVUnitImpl@BWAPI@@0@Z 0046a2b0 f i BWAPIClient:GameImpl.obj
 0001:000692e0       ?deallocate@?$allocator@VUnitImpl@BWAPI@@@std@@QAEXQAVUnitImpl@BWAPI@@I@Z 0046a2e0 f i BWAPIClient:GameImpl.obj
 0001:00069320       ?_Destroy@?$vector@VPlayerImpl@BWAPI@@V?$allocator@VPlayerImpl@BWAPI@@@std@@@std@@AAEXPAVPlayerImpl@BWAPI@@0@Z 0046a320 f i BWAPIClient:GameImpl.obj
 0001:00069350       ?deallocate@?$allocator@VPlayerImpl@BWAPI@@@std@@QAEXQAVPlayerImpl@BWAPI@@I@Z 0046a350 f i BWAPIClient:GameImpl.obj
 0001:00069e60       ??$_Emplace_reallocate@VBulletImpl@BWAPI@@@?$vector@VBulletImpl@BWAPI@@V?$allocator@VBulletImpl@BWAPI@@@std@@@std@@QAEPAVBulletImpl@BWAPI@@QAV23@$$QAV23@@Z 0046ae60 f i BWAPIClient:GameImpl.obj
 0001:0006a150       ??$construct@VUnitImpl@BWAPI@@V12@@?$_Default_allocator_traits@V?$allocator@VUnitImpl@BWAPI@@@std@@@std@@SAXAAV?$allocator@VUnitImpl@BWAPI@@@1@QAVUnitImpl@BWAPI@@$$QAV34@@Z 0046b150 f i BWAPIClient:GameImpl.obj
 0001:0006a240       ??$_Emplace_reallocate@VUnitImpl@BWAPI@@@?$vector@VUnitImpl@BWAPI@@V?$allocator@VUnitImpl@BWAPI@@@std@@@std@@QAEPAVUnitImpl@BWAPI@@QAV23@$$QAV23@@Z 0046b240 f i BWAPIClient:GameImpl.obj
 0001:0006a5e0       ??$_Emplace_reallocate@VPlayerImpl@BWAPI@@@?$vector@VPlayerImpl@BWAPI@@V?$allocator@VPlayerImpl@BWAPI@@@std@@@std@@QAEPAVPlayerImpl@BWAPI@@QAV23@$$QAV23@@Z 0046b5e0 f i BWAPIClient:GameImpl.obj
 0001:0006a8e0       ??$_Emplace_reallocate@VForceImpl@BWAPI@@@?$vector@VForceImpl@BWAPI@@V?$allocator@VForceImpl@BWAPI@@@std@@@std@@QAEPAVForceImpl@BWAPI@@QAV23@$$QAV23@@Z 0046b8e0 f i BWAPIClient:GameImpl.obj
 0001:0006abd0       ??$emplace@PAVPlayerInterface@BWAPI@@@?$_Hash@V?$_Uset_traits@PAVPlayerInterface@BWAPI@@V?$_Uhash_compare@PAVPlayerInterface@BWAPI@@U?$hash@PAX@std@@U?$equal_to@PAVPlayerInterface@BWAPI@@@4@@std@@V?$allocator@PAVPlayerInterface@BWAPI@@@4@$0A@@std@@@std@@QAE?AU?$pair@V?$_List_const_iterator@V?$_List_val@U?$_List_simple_types@PAVPlayerInterface@BWAPI@@@std@@@std@@@std@@_N@1@$$QAPAVPlayerInterface@BWAPI@@@Z 0046bbd0 f i BWAPIClient:GameImpl.obj
 0001:0006abd0       ??$emplace@PAVBulletInterface@BWAPI@@@?$_Hash@V?$_Uset_traits@PAVBulletInterface@BWAPI@@V?$_Uhash_compare@PAVBulletInterface@BWAPI@@U?$hash@PAX@std@@U?$equal_to@PAVBulletInterface@BWAPI@@@4@@std@@V?$allocator@PAVBulletInterface@BWAPI@@@4@$0A@@std@@@std@@QAE?AU?$pair@V?$_List_const_iterator@V?$_List_val@U?$_List_simple_types@PAVBulletInterface@BWAPI@@@std@@@std@@@std@@_N@1@$$QAPAVBulletInterface@BWAPI@@@Z 0046bbd0 f i BWAPIClient:GameImpl.obj
 0001:0006abd0       ??$emplace@ABQAVPlayerInterface@BWAPI@@@?$_Hash@V?$_Uset_traits@PAVPlayerInterface@BWAPI@@V?$_Uhash_compare@PAVPlayerInterface@BWAPI@@U?$hash@PAX@std@@U?$equal_to@PAVPlayerInterface@BWAPI@@@4@@std@@V?$allocator@PAVPlayerInterface@BWAPI@@@4@$0A@@std@@@std@@QAE?AU?$pair@V?$_List_const_iterator@V?$_List_val@U?$_List_simple_types@PAVPlayerInterface@BWAPI@@@std@@@std@@@std@@_N@1@ABQAVPlayerInterface@BWAPI@@@Z 0046bbd0 f i BWAPIClient:GameImpl.obj
 0001:0006abd0       ??$emplace@PAVForceInterface@BWAPI@@@?$_Hash@V?$_Uset_traits@PAVForceInterface@BWAPI@@V?$_Uhash_compare@PAVForceInterface@BWAPI@@U?$hash@PAX@std@@U?$equal_to@PAVForceInterface@BWAPI@@@4@@std@@V?$allocator@PAVForceInterface@BWAPI@@@4@$0A@@std@@@std@@QAE?AU?$pair@V?$_List_const_iterator@V?$_List_val@U?$_List_simple_types@PAVForceInterface@BWAPI@@@std@@@std@@@std@@_N@1@$$QAPAVForceInterface@BWAPI@@@Z 0046bbd0 f i BWAPIClient:GameImpl.obj
 0001:0006abd0       ??$emplace@PAVRegionInterface@BWAPI@@@?$_Hash@V?$_Uset_traits@PAVRegionInterface@BWAPI@@V?$_Uhash_compare@PAVRegionInterface@BWAPI@@U?$hash@PAX@std@@U?$equal_to@PAVRegionInterface@BWAPI@@@4@@std@@V?$allocator@PAVRegionInterface@BWAPI@@@4@$0A@@std@@@std@@QAE?AU?$pair@V?$_List_const_iterator@V?$_List_val@U?$_List_simple_types@PAVRegionInterface@BWAPI@@@std@@@std@@@std@@_N@1@$$QAPAVRegionInterface@BWAPI@@@Z 0046bbd0 f i BWAPIClient:GameImpl.obj
 0001:0006abd0       ??$emplace@ABQAVRegionInterface@BWAPI@@@?$_Hash@V?$_Uset_traits@PAVRegionInterface@BWAPI@@V?$_Uhash_compare@PAVRegionInterface@BWAPI@@U?$hash@PAX@std@@U?$equal_to@PAVRegionInterface@BWAPI@@@4@@std@@V?$allocator@PAVRegionInterface@BWAPI@@@4@$0A@@std@@@std@@QAE?AU?$pair@V?$_List_const_iterator@V?$_List_val@U?$_List_simple_types@PAVRegionInterface@BWAPI@@@std@@@std@@@std@@_N@1@ABQAVRegionInterface@BWAPI@@@Z 0046bbd0 f i BWAPIClient:RegionImpl.obj
 0001:0006ae20       ??$_Free_non_head@V?$allocator@U?$_List_node@V?$InterfaceEvent@VUnitInterface@BWAPI@@@BWAPI@@PAX@std@@@std@@@?$_List_node@V?$InterfaceEvent@VUnitInterface@BWAPI@@@BWAPI@@PAX@std@@SAXAAV?$allocator@U?$_List_node@V?$InterfaceEvent@VUnitInterface@BWAPI@@@BWAPI@@PAX@std@@@1@PAU01@@Z 0046be20 f i BWAPIClient:GameImpl.obj
 0001:0006ae20       ??$_Free_non_head@V?$allocator@U?$_List_node@V?$InterfaceEvent@VBulletInterface@BWAPI@@@BWAPI@@PAX@std@@@std@@@?$_List_node@V?$InterfaceEvent@VBulletInterface@BWAPI@@@BWAPI@@PAX@std@@SAXAAV?$allocator@U?$_List_node@V?$InterfaceEvent@VBulletInterface@BWAPI@@@BWAPI@@PAX@std@@@1@PAU01@@Z 0046be20 f i BWAPIClient:GameImpl.obj
 0001:0006ae90       ??1?$unordered_map@IIU?$hash@I@std@@U?$equal_to@I@2@V?$allocator@U?$pair@$$CBII@std@@@2@@std@@QAE@XZ 0046be90 f i BWAPIClient:GameImpl.obj
 0001:0006aea0       ??1?$_Hash@V?$_Umap_traits@IIV?$_Uhash_compare@IU?$hash@I@std@@U?$equal_to@I@2@@std@@V?$allocator@U?$pair@$$CBII@std@@@2@$0A@@std@@@std@@QAE@XZ 0046bea0 f i BWAPIClient:GameImpl.obj
 0001:0006af30       ??_EBulletImpl@BWAPI@@UAEPAXI@Z 0046bf30 f i * CIL library *:* CIL module *
 0001:0006af30       ??_GBulletImpl@BWAPI@@UAEPAXI@Z 0046bf30 f i BWAPIClient:GameImpl.obj
 0001:0006af90       ??_EUnitImpl@BWAPI@@UAEPAXI@Z 0046bf90 f i * CIL library *:* CIL module *
 0001:0006af90       ??_GUnitImpl@BWAPI@@UAEPAXI@Z 0046bf90 f i BWAPIClient:GameImpl.obj
 0001:0006b000       ??_EPlayerImpl@BWAPI@@UAEPAXI@Z 0046c000 f i * CIL library *:* CIL module *
 0001:0006b000       ??_GPlayerImpl@BWAPI@@UAEPAXI@Z 0046c000 f i BWAPIClient:GameImpl.obj
 0001:0006b050       ??_EForceImpl@BWAPI@@UAEPAXI@Z 0046c050 f i * CIL library *:* CIL module *
 0001:0006b050       ??_GForceImpl@BWAPI@@UAEPAXI@Z 0046c050 f i BWAPIClient:GameImpl.obj
 0001:0006b0a0       ??A?$unordered_map@IIU?$hash@I@std@@U?$equal_to@I@2@V?$allocator@U?$pair@$$CBII@std@@@2@@std@@QAEAAI$$QAI@Z 0046c0a0 f i BWAPIClient:GameImpl.obj
 0001:0006b0c0       ??0?$unordered_map@IIU?$hash@I@std@@U?$equal_to@I@2@V?$allocator@U?$pair@$$CBII@std@@@2@@std@@QAE@XZ 0046c0c0 f i BWAPIClient:GameImpl.obj
 0001:0006b170       ??1?$list@U?$pair@$$CBII@std@@V?$allocator@U?$pair@$$CBII@std@@@2@@std@@QAE@XZ 0046c170 f i BWAPIClient:GameImpl.obj
 0001:0006b1b0       ?_Growmap@?$deque@V?$Point@H$00@BWAPI@@V?$allocator@V?$Point@H$00@BWAPI@@@std@@@std@@AAEXI@Z 0046c1b0 f i BWAPIClient:GameImpl.obj
 0001:0006b350       ?_Umove@?$vector@VBulletImpl@BWAPI@@V?$allocator@VBulletImpl@BWAPI@@@std@@@std@@AAEPAVBulletImpl@BWAPI@@PAV34@00@Z 0046c350 f i BWAPIClient:GameImpl.obj
 0001:0006b400       ?_Umove@?$vector@VPlayerImpl@BWAPI@@V?$allocator@VPlayerImpl@BWAPI@@@std@@@std@@AAEPAVPlayerImpl@BWAPI@@PAV34@00@Z 0046c400 f i BWAPIClient:GameImpl.obj
 0001:0006b4c0       ?_Umove@?$vector@VForceImpl@BWAPI@@V?$allocator@VForceImpl@BWAPI@@@std@@@std@@AAEPAVForceImpl@BWAPI@@PAV34@00@Z 0046c4c0 f i BWAPIClient:GameImpl.obj
 0001:0006b570       ??0?$list@V?$InterfaceEvent@VUnitInterface@BWAPI@@@BWAPI@@V?$allocator@V?$InterfaceEvent@VUnitInterface@BWAPI@@@BWAPI@@@std@@@std@@QAE@ABV01@@Z 0046c570 f i BWAPIClient:GameImpl.obj
 0001:0006b570       ??0?$list@V?$InterfaceEvent@VBulletInterface@BWAPI@@@BWAPI@@V?$allocator@V?$InterfaceEvent@VBulletInterface@BWAPI@@@BWAPI@@@std@@@std@@QAE@ABV01@@Z 0046c570 f i BWAPIClient:GameImpl.obj
 0001:0006b570       ??0?$list@V?$InterfaceEvent@VForceInterface@BWAPI@@@BWAPI@@V?$allocator@V?$InterfaceEvent@VForceInterface@BWAPI@@@BWAPI@@@std@@@std@@QAE@ABV01@@Z 0046c570 f i BWAPIClient:GameImpl.obj
 0001:0006b570       ??0?$list@V?$InterfaceEvent@VPlayerInterface@BWAPI@@@BWAPI@@V?$allocator@V?$InterfaceEvent@VPlayerInterface@BWAPI@@@BWAPI@@@std@@@std@@QAE@ABV01@@Z 0046c570 f i BWAPIClient:GameImpl.obj
 0001:0006b710       ??0?$map@HPAXU?$less@H@std@@V?$allocator@U?$pair@$$CBHPAX@std@@@2@@std@@QAE@ABV01@@Z 0046c710 f i BWAPIClient:GameImpl.obj
 0001:0006b7f0       ?_Forced_rehash@?$_Hash@V?$_Uset_traits@PAVForceInterface@BWAPI@@V?$_Uhash_compare@PAVForceInterface@BWAPI@@U?$hash@PAX@std@@U?$equal_to@PAVForceInterface@BWAPI@@@4@@std@@V?$allocator@PAVForceInterface@BWAPI@@@4@$0A@@std@@@std@@IAEXI@Z 0046c7f0 f i BWAPIClient:GameImpl.obj
 0001:0006b7f0       ?_Forced_rehash@?$_Hash@V?$_Uset_traits@PAVBulletInterface@BWAPI@@V?$_Uhash_compare@PAVBulletInterface@BWAPI@@U?$hash@PAX@std@@U?$equal_to@PAVBulletInterface@BWAPI@@@4@@std@@V?$allocator@PAVBulletInterface@BWAPI@@@4@$0A@@std@@@std@@IAEXI@Z 0046c7f0 f i BWAPIClient:GameImpl.obj
 0001:0006b7f0       ?_Forced_rehash@?$_Hash@V?$_Uset_traits@PAVRegionInterface@BWAPI@@V?$_Uhash_compare@PAVRegionInterface@BWAPI@@U?$hash@PAX@std@@U?$equal_to@PAVRegionInterface@BWAPI@@@4@@std@@V?$allocator@PAVRegionInterface@BWAPI@@@4@$0A@@std@@@std@@IAEXI@Z 0046c7f0 f i BWAPIClient:GameImpl.obj
 0001:0006b7f0       ?_Forced_rehash@?$_Hash@V?$_Uset_traits@PAVPlayerInterface@BWAPI@@V?$_Uhash_compare@PAVPlayerInterface@BWAPI@@U?$hash@PAX@std@@U?$equal_to@PAVPlayerInterface@BWAPI@@@4@@std@@V?$allocator@PAVPlayerInterface@BWAPI@@@4@$0A@@std@@@std@@IAEXI@Z 0046c7f0 f i BWAPIClient:GameImpl.obj
 0001:0006b960       ??$_Try_emplace@I$$V@?$_Hash@V?$_Umap_traits@IIV?$_Uhash_compare@IU?$hash@I@std@@U?$equal_to@I@2@@std@@V?$allocator@U?$pair@$$CBII@std@@@2@$0A@@std@@@std@@IAE?AU?$pair@PAU?$_List_node@U?$pair@$$CBII@std@@PAX@std@@_N@1@$$QAI@Z 0046c960 f i BWAPIClient:GameImpl.obj
 0001:0006bbb0       ??1?$_List_node_insert_op2@V?$allocator@U?$_List_node@V?$InterfaceEvent@VForceInterface@BWAPI@@@BWAPI@@PAX@std@@@std@@@std@@QAE@XZ 0046cbb0 f i BWAPIClient:GameImpl.obj
 0001:0006bbb0       ??1?$_List_node_insert_op2@V?$allocator@U?$_List_node@V?$InterfaceEvent@VBulletInterface@BWAPI@@@BWAPI@@PAX@std@@@std@@@std@@QAE@XZ 0046cbb0 f i BWAPIClient:GameImpl.obj
 0001:0006bbb0       ??1?$_List_node_insert_op2@V?$allocator@U?$_List_node@V?$InterfaceEvent@VPlayerInterface@BWAPI@@@BWAPI@@PAX@std@@@std@@@std@@QAE@XZ 0046cbb0 f i BWAPIClient:GameImpl.obj
 0001:0006bbb0       ??1?$_List_node_insert_op2@V?$allocator@U?$_List_node@V?$InterfaceEvent@VUnitInterface@BWAPI@@@BWAPI@@PAX@std@@@std@@@std@@QAE@XZ 0046cbb0 f i BWAPIClient:GameImpl.obj
 0001:0006bc30       ??1?$_Uninitialized_backout_al@V?$allocator@VForceImpl@BWAPI@@@std@@@std@@QAE@XZ 0046cc30 f i BWAPIClient:GameImpl.obj
 0001:0006bc30       ??1?$_Uninitialized_backout_al@V?$allocator@VBulletImpl@BWAPI@@@std@@@std@@QAE@XZ 0046cc30 f i BWAPIClient:GameImpl.obj
 0001:0006bc60       ??1?$_Uninitialized_backout_al@V?$allocator@VPlayerImpl@BWAPI@@@std@@@std@@QAE@XZ 0046cc60 f i BWAPIClient:GameImpl.obj
 0001:0006bc90       ??1?$_Uninitialized_backout_al@V?$allocator@VUnitImpl@BWAPI@@@std@@@std@@QAE@XZ 0046cc90 f i BWAPIClient:GameImpl.obj
 0001:0006bcc0       ??1?$_List_node_emplace_op2@V?$allocator@U?$_List_node@U?$pair@$$CBII@std@@PAX@std@@@std@@@std@@QAE@XZ 0046ccc0 f i BWAPIClient:GameImpl.obj
 0001:0006bcc0       ??1?$_Alloc_construct_ptr@V?$allocator@U?$_List_node@U?$pair@$$CBII@std@@PAX@std@@@std@@@std@@QAE@XZ 0046ccc0 f i BWAPIClient:GameImpl.obj
 0001:0006bce0       ?_Forced_rehash@?$_Hash@V?$_Umap_traits@IIV?$_Uhash_compare@IU?$hash@I@std@@U?$equal_to@I@2@@std@@V?$allocator@U?$pair@$$CBII@std@@@2@$0A@@std@@@std@@IAEXI@Z 0046cce0 f i BWAPIClient:GameImpl.obj
 0001:0006be50       ??1?$_Alloc_construct_ptr@V?$allocator@U?$_List_node@V?$InterfaceEvent@VBulletInterface@BWAPI@@@BWAPI@@PAX@std@@@std@@@std@@QAE@XZ 0046ce50 f i BWAPIClient:GameImpl.obj
 0001:0006be50       ??1?$_Alloc_construct_ptr@V?$allocator@U?$_List_node@V?$InterfaceEvent@VUnitInterface@BWAPI@@@BWAPI@@PAX@std@@@std@@@std@@QAE@XZ 0046ce50 f i BWAPIClient:GameImpl.obj
 0001:0006be50       ??1?$_Alloc_construct_ptr@V?$allocator@U?$_List_node@V?$InterfaceEvent@VForceInterface@BWAPI@@@BWAPI@@PAX@std@@@std@@@std@@QAE@XZ 0046ce50 f i BWAPIClient:GameImpl.obj
 0001:0006be50       ??1?$_Alloc_construct_ptr@V?$allocator@U?$_List_node@V?$InterfaceEvent@VPlayerInterface@BWAPI@@@BWAPI@@PAX@std@@@std@@@std@@QAE@XZ 0046ce50 f i BWAPIClient:GameImpl.obj
 0001:0006be70       ??$construct@V?$InterfaceEvent@VForceInterface@BWAPI@@@BWAPI@@ABV12@@?$_Default_allocator_traits@V?$allocator@U?$_List_node@V?$InterfaceEvent@VForceInterface@BWAPI@@@BWAPI@@PAX@std@@@std@@@std@@SAXAAV?$allocator@U?$_List_node@V?$InterfaceEvent@VForceInterface@BWAPI@@@BWAPI@@PAX@std@@@1@QAV?$InterfaceEvent@VForceInterface@BWAPI@@@BWAPI@@ABV34@@Z 0046ce70 f i BWAPIClient:GameImpl.obj
 0001:0006be70       ??$construct@V?$InterfaceEvent@VPlayerInterface@BWAPI@@@BWAPI@@ABV12@@?$_Default_allocator_traits@V?$allocator@U?$_List_node@V?$InterfaceEvent@VPlayerInterface@BWAPI@@@BWAPI@@PAX@std@@@std@@@std@@SAXAAV?$allocator@U?$_List_node@V?$InterfaceEvent@VPlayerInterface@BWAPI@@@BWAPI@@PAX@std@@@1@QAV?$InterfaceEvent@VPlayerInterface@BWAPI@@@BWAPI@@ABV34@@Z 0046ce70 f i BWAPIClient:GameImpl.obj
 0001:0006be70       ??$construct@V?$InterfaceEvent@VUnitInterface@BWAPI@@@BWAPI@@ABV12@@?$_Default_allocator_traits@V?$allocator@U?$_List_node@V?$InterfaceEvent@VUnitInterface@BWAPI@@@BWAPI@@PAX@std@@@std@@@std@@SAXAAV?$allocator@U?$_List_node@V?$InterfaceEvent@VUnitInterface@BWAPI@@@BWAPI@@PAX@std@@@1@QAV?$InterfaceEvent@VUnitInterface@BWAPI@@@BWAPI@@ABV34@@Z 0046ce70 f i BWAPIClient:GameImpl.obj
 0001:0006be70       ??$construct@V?$InterfaceEvent@VBulletInterface@BWAPI@@@BWAPI@@ABV12@@?$_Default_allocator_traits@V?$allocator@U?$_List_node@V?$InterfaceEvent@VBulletInterface@BWAPI@@@BWAPI@@PAX@std@@@std@@@std@@SAXAAV?$allocator@U?$_List_node@V?$InterfaceEvent@VBulletInterface@BWAPI@@@BWAPI@@PAX@std@@@1@QAV?$InterfaceEvent@VBulletInterface@BWAPI@@@BWAPI@@ABV34@@Z 0046ce70 f i BWAPIClient:GameImpl.obj
 0001:0006bf10       ??$_Copy_nodes@U_Copy_tag@?$_Tree@V?$_Tmap_traits@HPAXU?$less@H@std@@V?$allocator@U?$pair@$$CBHPAX@std@@@2@$0A@@std@@@std@@@?$_Tree@V?$_Tmap_traits@HPAXU?$less@H@std@@V?$allocator@U?$pair@$$CBHPAX@std@@@2@$0A@@std@@@std@@IAEPAU?$_Tree_node@U?$pair@$$CBHPAX@std@@PAX@1@PAU21@0U_Copy_tag@01@@Z 0046cf10 f i BWAPIClient:GameImpl.obj
 0001:0006bff7       ??_E?$basic_ifstream@DU?$char_traits@D@std@@@std@@$4PPPPPPPM@A@AEPAXI@Z 0046cff7 f i BWAPIClient:GameImpl.obj
 0001:0006d450       ?getForces@GameImpl@BWAPI@@UBEABVForceset@2@XZ 0046e450 f   BWAPIClient:GameShared.obj
 0001:0006d460       ?getPlayers@GameImpl@BWAPI@@UBEABVPlayerset@2@XZ 0046e460 f   BWAPIClient:GameShared.obj
 0001:0006d470       ?getAllUnits@GameImpl@BWAPI@@UBEABVUnitset@2@XZ 0046e470 f   BWAPIClient:GameShared.obj
 0001:0006d480       ?getMinerals@GameImpl@BWAPI@@UBEABVUnitset@2@XZ 0046e480 f   BWAPIClient:GameShared.obj
 0001:0006d490       ?getGeysers@GameImpl@BWAPI@@UBEABVUnitset@2@XZ 0046e490 f   BWAPIClient:GameShared.obj
 0001:0006d4a0       ?getNeutralUnits@GameImpl@BWAPI@@UBEABVUnitset@2@XZ 0046e4a0 f   BWAPIClient:GameShared.obj
 0001:0006d4b0       ?getStaticMinerals@GameImpl@BWAPI@@UBEABVUnitset@2@XZ 0046e4b0 f   BWAPIClient:GameShared.obj
 0001:0006d4c0       ?getStaticGeysers@GameImpl@BWAPI@@UBEABVUnitset@2@XZ 0046e4c0 f   BWAPIClient:GameShared.obj
 0001:0006d4d0       ?getStaticNeutralUnits@GameImpl@BWAPI@@UBEABVUnitset@2@XZ 0046e4d0 f   BWAPIClient:GameShared.obj
 0001:0006d4e0       ?getBullets@GameImpl@BWAPI@@UBEABVBulletset@2@XZ 0046e4e0 f   BWAPIClient:GameShared.obj
 0001:0006d4f0       ?getNukeDots@GameImpl@BWAPI@@UBEABV?$deque@V?$Point@H$00@BWAPI@@V?$allocator@V?$Point@H$00@BWAPI@@@std@@@std@@XZ 0046e4f0 f   BWAPIClient:GameShared.obj
 0001:0006d500       ?getEvents@GameImpl@BWAPI@@UBEABV?$list@VEvent@BWAPI@@V?$allocator@VEvent@BWAPI@@@std@@@std@@XZ 0046e500 f   BWAPIClient:GameShared.obj
 0001:0006d510       ?getLastError@GameImpl@BWAPI@@UBE?AVError@2@XZ 0046e510 f   BWAPIClient:GameShared.obj
 0001:0006d520       ?setLastError@GameImpl@BWAPI@@UBE_NVError@2@@Z 0046e520 f   BWAPIClient:GameShared.obj
 0001:0006d540       ?canBuildHere@GameImpl@BWAPI@@UAE_NV?$Point@H$0CA@@2@VUnitType@2@PAVUnitInterface@2@_N@Z 0046e540 f   BWAPIClient:GameShared.obj
 0001:0006d570       ?canMake@GameImpl@BWAPI@@UBE_NVUnitType@2@PAVUnitInterface@2@@Z 0046e570 f   BWAPIClient:GameShared.obj
 0001:0006d590       ?canResearch@GameImpl@BWAPI@@UAE_NVTechType@2@PAVUnitInterface@2@_N@Z 0046e590 f   BWAPIClient:GameShared.obj
 0001:0006d5b0       ?canUpgrade@GameImpl@BWAPI@@UAE_NVUpgradeType@2@PAVUnitInterface@2@_N@Z 0046e5b0 f   BWAPIClient:GameShared.obj
 0001:0006d5d0       ?getStartLocations@GameImpl@BWAPI@@UBEABV?$deque@V?$Point@H$0CA@@BWAPI@@V?$allocator@V?$Point@H$0CA@@BWAPI@@@std@@@std@@XZ 0046e5d0 f   BWAPIClient:GameShared.obj
 0001:0006d5e0       ?getAllRegions@GameImpl@BWAPI@@UBEABVRegionset@2@XZ 0046e5e0 f   BWAPIClient:GameShared.obj
 0001:0006d5f0       ?_Delete_this@?$_Func_impl_no_alloc@V<lambda_ba21b10bb59a1d52d976b39184b53b78>@@_NPAVUnitInterface@BWAPI@@@std@@EAEX_N@Z 0046e5f0 f i BWAPIClient:GameShared.obj
 0001:0006d5f0       ?_Delete_this@?$_Func_impl_no_alloc@V<lambda_1feb1c45d8d8f4db5ffac22a9dbce3a7>@@_NPAVUnitInterface@BWAPI@@@std@@EAEX_N@Z 0046e5f0 f i BWAPIClient:GameShared.obj
 0001:0006d610       ?_Target_type@?$_Func_impl_no_alloc@V<lambda_1feb1c45d8d8f4db5ffac22a9dbce3a7>@@_NPAVUnitInterface@BWAPI@@@std@@EBEABVtype_info@@XZ 0046e610 f i BWAPIClient:GameShared.obj
 0001:0006d620       ?_Do_call@?$_Func_impl_no_alloc@V<lambda_1feb1c45d8d8f4db5ffac22a9dbce3a7>@@_NPAVUnitInterface@BWAPI@@@std@@EAE_N$$QAPAVUnitInterface@BWAPI@@@Z 0046e620 f i BWAPIClient:GameShared.obj
 0001:0006d640       ?_Copy@?$_Func_impl_no_alloc@V<lambda_1feb1c45d8d8f4db5ffac22a9dbce3a7>@@_NPAVUnitInterface@BWAPI@@@std@@EBEPAV?$_Func_base@_NPAVUnitInterface@BWAPI@@@2@PAX@Z 0046e640 f i BWAPIClient:GameShared.obj
 0001:0006d640       ?_Move@?$_Func_impl_no_alloc@V<lambda_1feb1c45d8d8f4db5ffac22a9dbce3a7>@@_NPAVUnitInterface@BWAPI@@@std@@EAEPAV?$_Func_base@_NPAVUnitInterface@BWAPI@@@2@PAX@Z 0046e640 f i BWAPIClient:GameShared.obj
 0001:0006d660       ?_Target_type@?$_Func_impl_no_alloc@V<lambda_ba21b10bb59a1d52d976b39184b53b78>@@_NPAVUnitInterface@BWAPI@@@std@@EBEABVtype_info@@XZ 0046e660 f i BWAPIClient:GameShared.obj
 0001:0006d670       ?_Do_call@?$_Func_impl_no_alloc@V<lambda_ba21b10bb59a1d52d976b39184b53b78>@@_NPAVUnitInterface@BWAPI@@@std@@EAE_N$$QAPAVUnitInterface@BWAPI@@@Z 0046e670 f i BWAPIClient:GameShared.obj
 0001:0006d690       ?_Move@?$_Func_impl_no_alloc@V<lambda_ba21b10bb59a1d52d976b39184b53b78>@@_NPAVUnitInterface@BWAPI@@@std@@EAEPAV?$_Func_base@_NPAVUnitInterface@BWAPI@@@2@PAX@Z 0046e690 f i BWAPIClient:GameShared.obj
 0001:0006d690       ?_Copy@?$_Func_impl_no_alloc@V<lambda_ba21b10bb59a1d52d976b39184b53b78>@@_NPAVUnitInterface@BWAPI@@@std@@EBEPAV?$_Func_base@_NPAVUnitInterface@BWAPI@@@2@PAX@Z 0046e690 f i BWAPIClient:GameShared.obj
 0001:0006d750       ?getName@ForceImpl@BWAPI@@UBE?AV?$basic_string@DU?$char_traits@D@std@@V?$allocator@D@2@@std@@XZ 0046e750 f   BWAPIClient:ForceImpl.obj
 0001:0006d790       ?getPlayers@ForceImpl@BWAPI@@UBE?AVPlayerset@2@XZ 0046e790 f   BWAPIClient:ForceImpl.obj
 0001:0006d8b0       ?getID@ForceImpl@BWAPI@@UBEHXZ 0046e8b0 f   BWAPIClient:ForceShared.obj
 0001:0006d8c0       ?getPlayer@BulletImpl@BWAPI@@UBEPAVPlayerInterface@2@XZ 0046e8c0 f   BWAPIClient:BulletShared.obj
 0001:0006d8e0       ?getType@BulletImpl@BWAPI@@UBE?AVBulletType@2@XZ 0046e8e0 f   BWAPIClient:BulletShared.obj
 0001:0006d900       ?getSource@BulletImpl@BWAPI@@UBEPAVUnitInterface@2@XZ 0046e900 f   BWAPIClient:BulletShared.obj
 0001:0006d920       ?getPosition@BulletImpl@BWAPI@@UBE?AV?$Point@H$00@2@XZ 0046e920 f   BWAPIClient:BulletShared.obj
 0001:0006d940       ?getAngle@BulletImpl@BWAPI@@UBENXZ 0046e940 f   BWAPIClient:BulletShared.obj
 0001:0006d950       ?getVelocityX@BulletImpl@BWAPI@@UBENXZ 0046e950 f   BWAPIClient:BulletShared.obj
 0001:0006d960       ?getVelocityY@BulletImpl@BWAPI@@UBENXZ 0046e960 f   BWAPIClient:BulletShared.obj
 0001:0006d970       ?getTarget@BulletImpl@BWAPI@@UBEPAVUnitInterface@2@XZ 0046e970 f   BWAPIClient:BulletShared.obj
 0001:0006d990       ?getTargetPosition@BulletImpl@BWAPI@@UBE?AV?$Point@H$00@2@XZ 0046e990 f   BWAPIClient:BulletShared.obj
 0001:0006d9b0       ?getRemoveTimer@BulletImpl@BWAPI@@UBEHXZ 0046e9b0 f   BWAPIClient:BulletShared.obj
 0001:0006d9c0       ?exists@BulletImpl@BWAPI@@UBE_NXZ 0046e9c0 f   BWAPIClient:BulletShared.obj
 0001:0006d9d0       ?isVisible@BulletImpl@BWAPI@@UBE_NPAVPlayerInterface@2@@Z 0046e9d0 f   BWAPIClient:BulletShared.obj
 0001:0006da30       ??1RegionInterface@BWAPI@@MAE@XZ 0046ea30 f i BWAPIClient:RegionImpl.obj
 0001:0006da60       ??_GRegionImpl@BWAPI@@UAEPAXI@Z 0046ea60 f i BWAPIClient:RegionImpl.obj
 0001:0006da60       ??_ERegionImpl@BWAPI@@UAEPAXI@Z 0046ea60 f i * CIL library *:* CIL module *
 0001:0006dab0       ??_G?$Interface@VRegionInterface@BWAPI@@@BWAPI@@MAEPAXI@Z 0046eab0 f i BWAPIClient:RegionImpl.obj
 0001:0006dab0       ??_E?$Interface@VRegionInterface@BWAPI@@@BWAPI@@MAEPAXI@Z 0046eab0 f i * CIL library *:* CIL module *
 0001:0006db00       ?getID@PlayerImpl@BWAPI@@UBEHXZ 0046eb00 f   BWAPIClient:PlayerShared.obj
 0001:0006db00       ?getID@UnitImpl@BWAPI@@UBEHXZ 0046eb00 f   BWAPIClient:UnitShared.obj
 0001:0006db10       ?getUnits@PlayerImpl@BWAPI@@UBEABVUnitset@2@XZ 0046eb10 f   BWAPIClient:PlayerShared.obj
 0001:0006db20       ?minerals@PlayerImpl@BWAPI@@UBEHXZ 0046eb20 f   BWAPIClient:PlayerShared.obj
 0001:0006db30       ?gas@PlayerImpl@BWAPI@@UBEHXZ 0046eb30 f   BWAPIClient:PlayerShared.obj
 0001:0006db40       ?gatheredMinerals@PlayerImpl@BWAPI@@UBEHXZ 0046eb40 f   BWAPIClient:PlayerShared.obj
 0001:0006db50       ?gatheredGas@PlayerImpl@BWAPI@@UBEHXZ 0046eb50 f   BWAPIClient:PlayerShared.obj
 0001:0006db60       ?repairedMinerals@PlayerImpl@BWAPI@@UBEHXZ 0046eb60 f   BWAPIClient:PlayerShared.obj
 0001:0006db70       ?repairedGas@PlayerImpl@BWAPI@@UBEHXZ 0046eb70 f   BWAPIClient:PlayerShared.obj
 0001:0006db80       ?refundedMinerals@PlayerImpl@BWAPI@@UBEHXZ 0046eb80 f   BWAPIClient:PlayerShared.obj
 0001:0006db90       ?refundedGas@PlayerImpl@BWAPI@@UBEHXZ 0046eb90 f   BWAPIClient:PlayerShared.obj
 0001:0006dba0       ?spentMinerals@PlayerImpl@BWAPI@@UBEHXZ 0046eba0 f   BWAPIClient:PlayerShared.obj
 0001:0006dbb0       ?spentGas@PlayerImpl@BWAPI@@UBEHXZ 0046ebb0 f   BWAPIClient:PlayerShared.obj
 0001:0006dbc0       ?supplyTotal@PlayerImpl@BWAPI@@UBEHVRace@2@@Z 0046ebc0 f   BWAPIClient:PlayerShared.obj
 0001:0006dc00       ?supplyUsed@PlayerImpl@BWAPI@@UBEHVRace@2@@Z 0046ec00 f   BWAPIClient:PlayerShared.obj
 0001:0006dc40       ?allUnitCount@PlayerImpl@BWAPI@@UBEHVUnitType@2@@Z 0046ec40 f   BWAPIClient:PlayerShared.obj
 0001:0006dc60       ?visibleUnitCount@PlayerImpl@BWAPI@@UBEHVUnitType@2@@Z 0046ec60 f   BWAPIClient:PlayerShared.obj
 0001:0006dc80       ?completedUnitCount@PlayerImpl@BWAPI@@UBEHVUnitType@2@@Z 0046ec80 f   BWAPIClient:PlayerShared.obj
 0001:0006dca0       ?deadUnitCount@PlayerImpl@BWAPI@@UBEHVUnitType@2@@Z 0046eca0 f   BWAPIClient:PlayerShared.obj
 0001:0006dcc0       ?killedUnitCount@PlayerImpl@BWAPI@@UBEHVUnitType@2@@Z 0046ecc0 f   BWAPIClient:PlayerShared.obj
 0001:0006dce0       ?getUnitScore@PlayerImpl@BWAPI@@UBEHXZ 0046ece0 f   BWAPIClient:PlayerShared.obj
 0001:0006dcf0       ?getKillScore@PlayerImpl@BWAPI@@UBEHXZ 0046ecf0 f   BWAPIClient:PlayerShared.obj
 0001:0006dd00       ?getBuildingScore@PlayerImpl@BWAPI@@UBEHXZ 0046ed00 f   BWAPIClient:PlayerShared.obj
 0001:0006dd10       ?getRazingScore@PlayerImpl@BWAPI@@UBEHXZ 0046ed10 f   BWAPIClient:PlayerShared.obj
 0001:0006dd20       ?getCustomScore@PlayerImpl@BWAPI@@UBEHXZ 0046ed20 f   BWAPIClient:PlayerShared.obj
 0001:0006dd30       ?getUpgradeLevel@PlayerImpl@BWAPI@@UBEHVUpgradeType@2@@Z 0046ed30 f   BWAPIClient:PlayerShared.obj
 0001:0006dd50       ?hasResearched@PlayerImpl@BWAPI@@UBE_NVTechType@2@@Z 0046ed50 f   BWAPIClient:PlayerShared.obj
 0001:0006dd70       ?isResearching@PlayerImpl@BWAPI@@UBE_NVTechType@2@@Z 0046ed70 f   BWAPIClient:PlayerShared.obj
 0001:0006dd90       ?isUpgrading@PlayerImpl@BWAPI@@UBE_NVUpgradeType@2@@Z 0046ed90 f   BWAPIClient:PlayerShared.obj
 0001:0006ddb0       ?getColor@PlayerImpl@BWAPI@@UBE?AVColor@2@XZ 0046edb0 f   BWAPIClient:PlayerShared.obj
 0001:0006ddd0       ?isObserver@PlayerImpl@BWAPI@@UBE_NXZ 0046edd0 f   BWAPIClient:PlayerShared.obj
 0001:0006dde0       ?getMaxUpgradeLevel@PlayerImpl@BWAPI@@UBEHVUpgradeType@2@@Z 0046ede0 f   BWAPIClient:PlayerShared.obj
 0001:0006de00       ?isResearchAvailable@PlayerImpl@BWAPI@@UBE_NVTechType@2@@Z 0046ee00 f   BWAPIClient:PlayerShared.obj
 0001:0006de20       ?isUnitAvailable@PlayerImpl@BWAPI@@UBE_NVUnitType@2@@Z 0046ee20 f   BWAPIClient:PlayerShared.obj
 0001:0006de40       ?leftGame@PlayerImpl@BWAPI@@UBE_NXZ 0046ee40 f   BWAPIClient:PlayerShared.obj
 0001:0006de50       ?getName@PlayerImpl@BWAPI@@UBE?AV?$basic_string@DU?$char_traits@D@std@@V?$allocator@D@2@@std@@XZ 0046ee50 f   BWAPIClient:PlayerImpl.obj
 0001:0006de90       ?getRace@PlayerImpl@BWAPI@@UBE?AVRace@2@XZ 0046ee90 f   BWAPIClient:PlayerImpl.obj
 0001:0006deb0       ?getType@PlayerImpl@BWAPI@@UBE?AVPlayerType@2@XZ 0046eeb0 f   BWAPIClient:PlayerImpl.obj
 0001:0006ded0       ?getForce@PlayerImpl@BWAPI@@UBEPAVForceInterface@2@XZ 0046eed0 f   BWAPIClient:PlayerImpl.obj
 0001:0006def0       ?isAlly@PlayerImpl@BWAPI@@UBE_NQAVPlayerInterface@2@@Z 0046eef0 f   BWAPIClient:PlayerImpl.obj
 0001:0006df20       ?isEnemy@PlayerImpl@BWAPI@@UBE_NQAVPlayerInterface@2@@Z 0046ef20 f   BWAPIClient:PlayerImpl.obj
 0001:0006df50       ?isNeutral@PlayerImpl@BWAPI@@UBE_NXZ 0046ef50 f   BWAPIClient:PlayerImpl.obj
 0001:0006df60       ?getStartLocation@PlayerImpl@BWAPI@@UBE?AV?$Point@H$0CA@@2@XZ 0046ef60 f   BWAPIClient:PlayerImpl.obj
 0001:0006df80       ?isVictorious@PlayerImpl@BWAPI@@UBE_NXZ 0046ef80 f   BWAPIClient:PlayerImpl.obj
 0001:0006df90       ?isDefeated@PlayerImpl@BWAPI@@UBE_NXZ 0046ef90 f   BWAPIClient:PlayerImpl.obj
 0001:0006dfa0       ?issueCommand@UnitImpl@BWAPI@@UAE_NVUnitCommand@2@@Z 0046efa0 f   BWAPIClient:UnitImpl.obj
 0001:0006e200       ?execute@?$CommandTemp@VUnitImpl@BWAPI@@VPlayerImpl@2@@BWAPI@@QAEX_N@Z 0046f200 f i BWAPIClient:UnitImpl.obj
 0001:00076360       ?clear@UnitImpl@BWAPI@@QAEXXZ 00477360 f   BWAPIClient:UnitShared.obj
 0001:00076430       ?getReplayID@UnitImpl@BWAPI@@UBEHXZ 00477430 f   BWAPIClient:UnitShared.obj
 0001:00076440       ?getPlayer@UnitImpl@BWAPI@@UBEPAVPlayerInterface@2@XZ 00477440 f   BWAPIClient:UnitShared.obj
 0001:00076460       ?getType@UnitImpl@BWAPI@@UBE?AVUnitType@2@XZ 00477460 f   BWAPIClient:UnitShared.obj
 0001:00076480       ?getPosition@UnitImpl@BWAPI@@UBE?AV?$Point@H$00@2@XZ 00477480 f   BWAPIClient:UnitShared.obj
 0001:000764a0       ?getAngle@UnitImpl@BWAPI@@UBENXZ 004774a0 f   BWAPIClient:UnitShared.obj
 0001:000764b0       ?getVelocityX@UnitImpl@BWAPI@@UBENXZ 004774b0 f   BWAPIClient:UnitShared.obj
 0001:000764c0       ?getVelocityY@UnitImpl@BWAPI@@UBENXZ 004774c0 f   BWAPIClient:UnitShared.obj
 0001:000764d0       ?getHitPoints@UnitImpl@BWAPI@@UBEHXZ 004774d0 f   BWAPIClient:UnitShared.obj
 0001:000764e0       ?getShields@UnitImpl@BWAPI@@UBEHXZ 004774e0 f   BWAPIClient:UnitShared.obj
 0001:000764f0       ?getEnergy@UnitImpl@BWAPI@@UBEHXZ 004774f0 f   BWAPIClient:UnitShared.obj
 0001:00076500       ?getResources@UnitImpl@BWAPI@@UBEHXZ 00477500 f   BWAPIClient:UnitShared.obj
 0001:00076510       ?getResourceGroup@UnitImpl@BWAPI@@UBEHXZ 00477510 f   BWAPIClient:UnitShared.obj
 0001:00076520       ?getLastCommandFrame@UnitImpl@BWAPI@@UBEHXZ 00477520 f   BWAPIClient:UnitShared.obj
 0001:00076530       ?getLastCommand@UnitImpl@BWAPI@@UBE?AVUnitCommand@2@XZ 00477530 f   BWAPIClient:UnitShared.obj
 0001:00076550       ?getLastAttackingPlayer@UnitImpl@BWAPI@@UBEPAVPlayerInterface@2@XZ 00477550 f   BWAPIClient:UnitShared.obj
 0001:00076570       ?getInitialType@UnitImpl@BWAPI@@UBE?AVUnitType@2@XZ 00477570 f   BWAPIClient:UnitShared.obj
 0001:00076580       ?getInitialPosition@UnitImpl@BWAPI@@UBE?AV?$Point@H$00@2@XZ 00477580 f   BWAPIClient:UnitShared.obj
 0001:000765a0       ?getInitialTilePosition@UnitImpl@BWAPI@@UBE?AV?$Point@H$0CA@@2@XZ 004775a0 f   BWAPIClient:UnitShared.obj
 0001:00076630       ?getInitialHitPoints@UnitImpl@BWAPI@@UBEHXZ 00477630 f   BWAPIClient:UnitShared.obj
 0001:00076640       ?getInitialResources@UnitImpl@BWAPI@@UBEHXZ 00477640 f   BWAPIClient:UnitShared.obj
 0001:00076650       ?getKillCount@UnitImpl@BWAPI@@UBEHXZ 00477650 f   BWAPIClient:UnitShared.obj
 0001:00076660       ?getAcidSporeCount@UnitImpl@BWAPI@@UBEHXZ 00477660 f   BWAPIClient:UnitShared.obj
 0001:00076670       ?getInterceptorCount@UnitImpl@BWAPI@@UBEHXZ 00477670 f   BWAPIClient:UnitShared.obj
 0001:00076680       ?getScarabCount@UnitImpl@BWAPI@@UBEHXZ 00477680 f   BWAPIClient:UnitShared.obj
 0001:00076690       ?getSpiderMineCount@UnitImpl@BWAPI@@UBEHXZ 00477690 f   BWAPIClient:UnitShared.obj
 0001:000766a0       ?getGroundWeaponCooldown@UnitImpl@BWAPI@@UBEHXZ 004776a0 f   BWAPIClient:UnitShared.obj
 0001:000766b0       ?getAirWeaponCooldown@UnitImpl@BWAPI@@UBEHXZ 004776b0 f   BWAPIClient:UnitShared.obj
 0001:000766c0       ?getSpellCooldown@UnitImpl@BWAPI@@UBEHXZ 004776c0 f   BWAPIClient:UnitShared.obj
 0001:000766d0       ?getDefenseMatrixPoints@UnitImpl@BWAPI@@UBEHXZ 004776d0 f   BWAPIClient:UnitShared.obj
 0001:000766e0       ?getDefenseMatrixTimer@UnitImpl@BWAPI@@UBEHXZ 004776e0 f   BWAPIClient:UnitShared.obj
 0001:000766f0       ?getEnsnareTimer@UnitImpl@BWAPI@@UBEHXZ 004776f0 f   BWAPIClient:UnitShared.obj
 0001:00076700       ?getIrradiateTimer@UnitImpl@BWAPI@@UBEHXZ 00477700 f   BWAPIClient:UnitShared.obj
 0001:00076710       ?getLockdownTimer@UnitImpl@BWAPI@@UBEHXZ 00477710 f   BWAPIClient:UnitShared.obj
 0001:00076720       ?getMaelstromTimer@UnitImpl@BWAPI@@UBEHXZ 00477720 f   BWAPIClient:UnitShared.obj
 0001:00076730       ?getOrderTimer@UnitImpl@BWAPI@@UBEHXZ 00477730 f   BWAPIClient:UnitShared.obj
 0001:00076740       ?getPlagueTimer@UnitImpl@BWAPI@@UBEHXZ 00477740 f   BWAPIClient:UnitShared.obj
 0001:00076750       ?getRemoveTimer@UnitImpl@BWAPI@@UBEHXZ 00477750 f   BWAPIClient:UnitShared.obj
 0001:00076760       ?getStasisTimer@UnitImpl@BWAPI@@UBEHXZ 00477760 f   BWAPIClient:UnitShared.obj
 0001:00076770       ?getStimTimer@UnitImpl@BWAPI@@UBEHXZ 00477770 f   BWAPIClient:UnitShared.obj
 0001:00076780       ?getBuildType@UnitImpl@BWAPI@@UBE?AVUnitType@2@XZ 00477780 f   BWAPIClient:UnitShared.obj
 0001:000767a0       ?getTrainingQueue@UnitImpl@BWAPI@@UBE?AV?$deque@VUnitType@BWAPI@@V?$allocator@VUnitType@BWAPI@@@std@@@std@@XZ 004777a0 f   BWAPIClient:UnitShared.obj
 0001:000768f0       ?getTech@UnitImpl@BWAPI@@UBE?AVTechType@2@XZ 004778f0 f   BWAPIClient:UnitShared.obj
 0001:00076910       ?getUpgrade@UnitImpl@BWAPI@@UBE?AVUpgradeType@2@XZ 00477910 f   BWAPIClient:UnitShared.obj
 0001:00076930       ?getRemainingBuildTime@UnitImpl@BWAPI@@UBEHXZ 00477930 f   BWAPIClient:UnitShared.obj
 0001:00076940       ?getRemainingTrainTime@UnitImpl@BWAPI@@UBEHXZ 00477940 f   BWAPIClient:UnitShared.obj
 0001:00076950       ?getRemainingResearchTime@UnitImpl@BWAPI@@UBEHXZ 00477950 f   BWAPIClient:UnitShared.obj
 0001:00076960       ?getRemainingUpgradeTime@UnitImpl@BWAPI@@UBEHXZ 00477960 f   BWAPIClient:UnitShared.obj
 0001:00076970       ?getBuildUnit@UnitImpl@BWAPI@@UBEPAVUnitInterface@2@XZ 00477970 f   BWAPIClient:UnitShared.obj
 0001:00076990       ?getTarget@UnitImpl@BWAPI@@UBEPAVUnitInterface@2@XZ 00477990 f   BWAPIClient:UnitShared.obj
 0001:000769b0       ?getTargetPosition@UnitImpl@BWAPI@@UBE?AV?$Point@H$00@2@XZ 004779b0 f   BWAPIClient:UnitShared.obj
 0001:000769d0       ?getOrder@UnitImpl@BWAPI@@UBE?AVOrder@2@XZ 004779d0 f   BWAPIClient:UnitShared.obj
 0001:000769f0       ?getOrderTarget@UnitImpl@BWAPI@@UBEPAVUnitInterface@2@XZ 004779f0 f   BWAPIClient:UnitShared.obj
 0001:00076a10       ?getOrderTargetPosition@UnitImpl@BWAPI@@UBE?AV?$Point@H$00@2@XZ 00477a10 f   BWAPIClient:UnitShared.obj
 0001:00076a30       ?getSecondaryOrder@UnitImpl@BWAPI@@UBE?AVOrder@2@XZ 00477a30 f   BWAPIClient:UnitShared.obj
 0001:00076a50       ?getRallyPosition@UnitImpl@BWAPI@@UBE?AV?$Point@H$00@2@XZ 00477a50 f   BWAPIClient:UnitShared.obj
 0001:00076a70       ?getRallyUnit@UnitImpl@BWAPI@@UBEPAVUnitInterface@2@XZ 00477a70 f   BWAPIClient:UnitShared.obj
 0001:00076a90       ?getAddon@UnitImpl@BWAPI@@UBEPAVUnitInterface@2@XZ 00477a90 f   BWAPIClient:UnitShared.obj
 0001:00076ab0       ?getNydusExit@UnitImpl@BWAPI@@UBEPAVUnitInterface@2@XZ 00477ab0 f   BWAPIClient:UnitShared.obj
 0001:00076ad0       ?getPowerUp@UnitImpl@BWAPI@@UBEPAVUnitInterface@2@XZ 00477ad0 f   BWAPIClient:UnitShared.obj
 0001:00076af0       ?getTransport@UnitImpl@BWAPI@@UBEPAVUnitInterface@2@XZ 00477af0 f   BWAPIClient:UnitShared.obj
 0001:00076b10       ?getLoadedUnits@UnitImpl@BWAPI@@UBE?AVUnitset@2@XZ 00477b10 f   BWAPIClient:UnitShared.obj
 0001:00076b30       ?getCarrier@UnitImpl@BWAPI@@UBEPAVUnitInterface@2@XZ 00477b30 f   BWAPIClient:UnitShared.obj
 0001:00076b50       ?getInterceptors@UnitImpl@BWAPI@@UBE?AVUnitset@2@XZ 00477b50 f   BWAPIClient:UnitShared.obj
 0001:00076bb0       ?getHatchery@UnitImpl@BWAPI@@UBEPAVUnitInterface@2@XZ 00477bb0 f   BWAPIClient:UnitShared.obj
 0001:00076bd0       ?getLarva@UnitImpl@BWAPI@@UBE?AVUnitset@2@XZ 00477bd0 f   BWAPIClient:UnitShared.obj
 0001:00076c30       ?exists@UnitImpl@BWAPI@@UBE_NXZ 00477c30 f   BWAPIClient:UnitShared.obj
 0001:00076c40       ?hasNuke@UnitImpl@BWAPI@@UBE_NXZ 00477c40 f   BWAPIClient:UnitShared.obj
 0001:00076c50       ?isAccelerating@UnitImpl@BWAPI@@UBE_NXZ 00477c50 f   BWAPIClient:UnitShared.obj
 0001:00076c60       ?isAttacking@UnitImpl@BWAPI@@UBE_NXZ 00477c60 f   BWAPIClient:UnitShared.obj
 0001:00076c70       ?isAttackFrame@UnitImpl@BWAPI@@UBE_NXZ 00477c70 f   BWAPIClient:UnitShared.obj
 0001:00076c80       ?isBeingGathered@UnitImpl@BWAPI@@UBE_NXZ 00477c80 f   BWAPIClient:UnitShared.obj
 0001:00076c90       ?isBeingHealed@UnitImpl@BWAPI@@UBE_NXZ 00477c90 f   BWAPIClient:UnitShared.obj
 0001:00076cd0       ?isBlind@UnitImpl@BWAPI@@UBE_NXZ 00477cd0 f   BWAPIClient:UnitShared.obj
 0001:00076ce0       ?isBraking@UnitImpl@BWAPI@@UBE_NXZ 00477ce0 f   BWAPIClient:UnitShared.obj
 0001:00076cf0       ?isBurrowed@UnitImpl@BWAPI@@UBE_NXZ 00477cf0 f   BWAPIClient:UnitShared.obj
 0001:00076d00       ?isCarryingGas@UnitImpl@BWAPI@@UBE_NXZ 00477d00 f   BWAPIClient:UnitShared.obj
 0001:00076d10       ?isCarryingMinerals@UnitImpl@BWAPI@@UBE_NXZ 00477d10 f   BWAPIClient:UnitShared.obj
 0001:00076d20       ?isCloaked@UnitImpl@BWAPI@@UBE_NXZ 00477d20 f   BWAPIClient:UnitShared.obj
 0001:00076d30       ?isCompleted@UnitImpl@BWAPI@@UBE_NXZ 00477d30 f   BWAPIClient:UnitShared.obj
 0001:00076d40       ?isConstructing@UnitImpl@BWAPI@@UBE_NXZ 00477d40 f   BWAPIClient:UnitShared.obj
 0001:00076d50       ?isDetected@UnitImpl@BWAPI@@UBE_NXZ 00477d50 f   BWAPIClient:UnitShared.obj
 0001:00076d60       ?isGatheringGas@UnitImpl@BWAPI@@UBE_NXZ 00477d60 f   BWAPIClient:UnitShared.obj
 0001:00076f20       ?isGatheringMinerals@UnitImpl@BWAPI@@UBE_NXZ 00477f20 f   BWAPIClient:UnitShared.obj
 0001:00077130       ?isHallucination@UnitImpl@BWAPI@@UBE_NXZ 00478130 f   BWAPIClient:UnitShared.obj
 0001:00077140       ?isIdle@UnitImpl@BWAPI@@UBE_NXZ 00478140 f   BWAPIClient:UnitShared.obj
 0001:00077150       ?isInterruptible@UnitImpl@BWAPI@@UBE_NXZ 00478150 f   BWAPIClient:UnitShared.obj
 0001:00077160       ?isInvincible@UnitImpl@BWAPI@@UBE_NXZ 00478160 f   BWAPIClient:UnitShared.obj
 0001:00077170       ?isLifted@UnitImpl@BWAPI@@UBE_NXZ 00478170 f   BWAPIClient:UnitShared.obj
 0001:00077180       ?isMorphing@UnitImpl@BWAPI@@UBE_NXZ 00478180 f   BWAPIClient:UnitShared.obj
 0001:00077190       ?isMoving@UnitImpl@BWAPI@@UBE_NXZ 00478190 f   BWAPIClient:UnitShared.obj
 0001:000771a0       ?isParasited@UnitImpl@BWAPI@@UBE_NXZ 004781a0 f   BWAPIClient:UnitShared.obj
 0001:000771b0       ?isSelected@UnitImpl@BWAPI@@UBE_NXZ 004781b0 f   BWAPIClient:UnitShared.obj
 0001:000771c0       ?isStartingAttack@UnitImpl@BWAPI@@UBE_NXZ 004781c0 f   BWAPIClient:UnitShared.obj
 0001:000771d0       ?isStuck@UnitImpl@BWAPI@@UBE_NXZ 004781d0 f   BWAPIClient:UnitShared.obj
 0001:000771e0       ?isTraining@UnitImpl@BWAPI@@UBE_NXZ 004781e0 f   BWAPIClient:UnitShared.obj
 0001:000771f0       ?isUnderAttack@UnitImpl@BWAPI@@UBE_NXZ 004781f0 f   BWAPIClient:UnitShared.obj
 0001:00077200       ?isUnderDarkSwarm@UnitImpl@BWAPI@@UBE_NXZ 00478200 f   BWAPIClient:UnitShared.obj
 0001:00077210       ?isUnderDisruptionWeb@UnitImpl@BWAPI@@UBE_NXZ 00478210 f   BWAPIClient:UnitShared.obj
 0001:00077220       ?isUnderStorm@UnitImpl@BWAPI@@UBE_NXZ 00478220 f   BWAPIClient:UnitShared.obj
 0001:00077230       ?isPowered@UnitImpl@BWAPI@@UBE_NXZ 00478230 f   BWAPIClient:UnitShared.obj
 0001:00077240       ?isVisible@UnitImpl@BWAPI@@UBE_NPAVPlayerInterface@2@@Z 00478240 f   BWAPIClient:UnitShared.obj
 0001:000772c0       ?isTargetable@UnitImpl@BWAPI@@UBE_NXZ 004782c0 f   BWAPIClient:UnitShared.obj
 0001:000772d0       ?canCommand@UnitImpl@BWAPI@@UBE_NXZ 004782d0 f   BWAPIClient:UnitShared.obj
 0001:000772e0       ?canCommandGrouped@UnitImpl@BWAPI@@UBE_N_N@Z 004782e0 f   BWAPIClient:UnitShared.obj
 0001:000772f0       ?canTargetUnit@UnitImpl@BWAPI@@UBE_NPAVUnitInterface@2@_N@Z 004782f0 f   BWAPIClient:UnitShared.obj
 0001:00077330       ?canAttack@UnitImpl@BWAPI@@UBE_N_N@Z 00478330 f   BWAPIClient:UnitShared.obj
 0001:000773b0       ?canAttack@UnitImpl@BWAPI@@UBE_NV?$Point@H$00@2@_N11@Z 004783b0 f   BWAPIClient:UnitShared.obj
 0001:00077430       ?canAttack@UnitImpl@BWAPI@@UBE_NPAVUnitInterface@2@_N11@Z 00478430 f   BWAPIClient:UnitShared.obj
 0001:000774a0       ?canAttackGrouped@UnitImpl@BWAPI@@UBE_N_N0@Z 004784a0 f   BWAPIClient:UnitShared.obj
 0001:00077580       ?canAttackGrouped@UnitImpl@BWAPI@@UBE_NV?$Point@H$00@2@_N111@Z 00478580 f   BWAPIClient:UnitShared.obj
 0001:00077660       ?canAttackGrouped@UnitImpl@BWAPI@@UBE_NPAVUnitInterface@2@_N111@Z 00478660 f   BWAPIClient:UnitShared.obj
 0001:000776e0       ?canAttackMove@UnitImpl@BWAPI@@UBE_N_N@Z 004786e0 f   BWAPIClient:UnitShared.obj
 0001:000776f0       ?canAttackMoveGrouped@UnitImpl@BWAPI@@UBE_N_N0@Z 004786f0 f   BWAPIClient:UnitShared.obj
 0001:00077710       ?canAttackUnit@UnitImpl@BWAPI@@UBE_N_N@Z 00478710 f   BWAPIClient:UnitShared.obj
 0001:00077720       ?canAttackUnit@UnitImpl@BWAPI@@UBE_NPAVUnitInterface@2@_N11@Z 00478720 f   BWAPIClient:UnitShared.obj
 0001:00077740       ?canAttackUnitGrouped@UnitImpl@BWAPI@@UBE_N_N0@Z 00478740 f   BWAPIClient:UnitShared.obj
 0001:00077760       ?canAttackUnitGrouped@UnitImpl@BWAPI@@UBE_NPAVUnitInterface@2@_N111@Z 00478760 f   BWAPIClient:UnitShared.obj
 0001:00077780       ?canBuild@UnitImpl@BWAPI@@UBE_N_N@Z 00478780 f   BWAPIClient:UnitShared.obj
 0001:00077790       ?canBuild@UnitImpl@BWAPI@@UBE_NVUnitType@2@_N1@Z 00478790 f   BWAPIClient:UnitShared.obj
 0001:000777b0       ?canBuild@UnitImpl@BWAPI@@UBE_NVUnitType@2@V?$Point@H$0CA@@2@_N22@Z 004787b0 f   BWAPIClient:UnitShared.obj
 0001:000777e0       ?canBuildAddon@UnitImpl@BWAPI@@UBE_N_N@Z 004787e0 f   BWAPIClient:UnitShared.obj
 0001:000777f0       ?canBuildAddon@UnitImpl@BWAPI@@UBE_NVUnitType@2@_N1@Z 004787f0 f   BWAPIClient:UnitShared.obj
 0001:00077810       ?canTrain@UnitImpl@BWAPI@@UBE_N_N@Z 00478810 f   BWAPIClient:UnitShared.obj
 0001:00077820       ?canTrain@UnitImpl@BWAPI@@UBE_NVUnitType@2@_N1@Z 00478820 f   BWAPIClient:UnitShared.obj
 0001:00077840       ?canMorph@UnitImpl@BWAPI@@UBE_N_N@Z 00478840 f   BWAPIClient:UnitShared.obj
 0001:00077850       ?canMorph@UnitImpl@BWAPI@@UBE_NVUnitType@2@_N1@Z 00478850 f   BWAPIClient:UnitShared.obj
 0001:00077870       ?canUpgrade@UnitImpl@BWAPI@@UBE_N_N@Z 00478870 f   BWAPIClient:UnitShared.obj
 0001:00077870       ?canResearch@UnitImpl@BWAPI@@UBE_N_N@Z 00478870 f   BWAPIClient:UnitShared.obj
 0001:00077880       ?canResearch@UnitImpl@BWAPI@@UBE_NVTechType@2@_N@Z 00478880 f   BWAPIClient:UnitShared.obj
 0001:000778a0       ?canUpgrade@UnitImpl@BWAPI@@UBE_NVUpgradeType@2@_N@Z 004788a0 f   BWAPIClient:UnitShared.obj
 0001:000778c0       ?canSetRallyPoint@UnitImpl@BWAPI@@UBE_N_N@Z 004788c0 f   BWAPIClient:UnitShared.obj
 0001:00077910       ?canSetRallyPoint@UnitImpl@BWAPI@@UBE_NV?$Point@H$00@2@_N11@Z 00478910 f   BWAPIClient:UnitShared.obj
 0001:00077960       ?canSetRallyPoint@UnitImpl@BWAPI@@UBE_NPAVUnitInterface@2@_N11@Z 00478960 f   BWAPIClient:UnitShared.obj
 0001:000779f0       ?canSetRallyUnit@UnitImpl@BWAPI@@UBE_N_N@Z 004789f0 f   BWAPIClient:UnitShared.obj
 0001:000779f0       ?canSetRallyPosition@UnitImpl@BWAPI@@UBE_N_N@Z 004789f0 f   BWAPIClient:UnitShared.obj
 0001:00077a00       ?canSetRallyUnit@UnitImpl@BWAPI@@UBE_NPAVUnitInterface@2@_N11@Z 00478a00 f   BWAPIClient:UnitShared.obj
 0001:00077a20       ?canMove@UnitImpl@BWAPI@@UBE_N_N@Z 00478a20 f   BWAPIClient:UnitShared.obj
 0001:00077a30       ?canMoveGrouped@UnitImpl@BWAPI@@UBE_N_N0@Z 00478a30 f   BWAPIClient:UnitShared.obj
 0001:00077a50       ?canPatrol@UnitImpl@BWAPI@@UBE_N_N@Z 00478a50 f   BWAPIClient:UnitShared.obj
 0001:00077a50       ?canFollow@UnitImpl@BWAPI@@UBE_N_N@Z 00478a50 f   BWAPIClient:UnitShared.obj
 0001:00077a90       ?canPatrolGrouped@UnitImpl@BWAPI@@UBE_N_N0@Z 00478a90 f   BWAPIClient:UnitShared.obj
 0001:00077ab0       ?canFollow@UnitImpl@BWAPI@@UBE_NPAVUnitInterface@2@_N11@Z 00478ab0 f   BWAPIClient:UnitShared.obj
 0001:00077ad0       ?canGather@UnitImpl@BWAPI@@UBE_N_N@Z 00478ad0 f   BWAPIClient:UnitShared.obj
 0001:00077ae0       ?canGather@UnitImpl@BWAPI@@UBE_NPAVUnitInterface@2@_N11@Z 00478ae0 f   BWAPIClient:UnitShared.obj
 0001:00077b00       ?canReturnCargo@UnitImpl@BWAPI@@UBE_N_N@Z 00478b00 f   BWAPIClient:UnitShared.obj
 0001:00077b10       ?canHoldPosition@UnitImpl@BWAPI@@UBE_N_N@Z 00478b10 f   BWAPIClient:UnitShared.obj
 0001:00077b20       ?canStop@UnitImpl@BWAPI@@UBE_N_N@Z 00478b20 f   BWAPIClient:UnitShared.obj
 0001:00077b30       ?canRepair@UnitImpl@BWAPI@@UBE_N_N@Z 00478b30 f   BWAPIClient:UnitShared.obj
 0001:00077b40       ?canRepair@UnitImpl@BWAPI@@UBE_NPAVUnitInterface@2@_N11@Z 00478b40 f   BWAPIClient:UnitShared.obj
 0001:00077b60       ?canBurrow@UnitImpl@BWAPI@@UBE_N_N@Z 00478b60 f   BWAPIClient:UnitShared.obj
 0001:00077b70       ?canUnburrow@UnitImpl@BWAPI@@UBE_N_N@Z 00478b70 f   BWAPIClient:UnitShared.obj
 0001:00077b80       ?canCloak@UnitImpl@BWAPI@@UBE_N_N@Z 00478b80 f   BWAPIClient:UnitShared.obj
 0001:00077b90       ?canDecloak@UnitImpl@BWAPI@@UBE_N_N@Z 00478b90 f   BWAPIClient:UnitShared.obj
 0001:00077ba0       ?canSiege@UnitImpl@BWAPI@@UBE_N_N@Z 00478ba0 f   BWAPIClient:UnitShared.obj
 0001:00077bb0       ?canUnsiege@UnitImpl@BWAPI@@UBE_N_N@Z 00478bb0 f   BWAPIClient:UnitShared.obj
 0001:00077bc0       ?canLift@UnitImpl@BWAPI@@UBE_N_N@Z 00478bc0 f   BWAPIClient:UnitShared.obj
 0001:00077bd0       ?canLand@UnitImpl@BWAPI@@UBE_N_N@Z 00478bd0 f   BWAPIClient:UnitShared.obj
 0001:00077be0       ?canLand@UnitImpl@BWAPI@@UBE_NV?$Point@H$0CA@@2@_N1@Z 00478be0 f   BWAPIClient:UnitShared.obj
 0001:00077c00       ?canLoad@UnitImpl@BWAPI@@UBE_N_N@Z 00478c00 f   BWAPIClient:UnitShared.obj
 0001:00077c10       ?canLoad@UnitImpl@BWAPI@@UBE_NPAVUnitInterface@2@_N11@Z 00478c10 f   BWAPIClient:UnitShared.obj
 0001:00077c30       ?canUnloadWithOrWithoutTarget@UnitImpl@BWAPI@@UBE_N_N@Z 00478c30 f   BWAPIClient:UnitShared.obj
 0001:00077c40       ?canUnloadAtPosition@UnitImpl@BWAPI@@UBE_NV?$Point@H$00@2@_N1@Z 00478c40 f   BWAPIClient:UnitShared.obj
 0001:00077c60       ?canUnloadAll@UnitImpl@BWAPI@@UBE_N_N@Z 00478c60 f   BWAPIClient:UnitShared.obj
 0001:00077c60       ?canUnload@UnitImpl@BWAPI@@UBE_N_N@Z 00478c60 f   BWAPIClient:UnitShared.obj
 0001:00077ca0       ?canUnload@UnitImpl@BWAPI@@UBE_NPAVUnitInterface@2@_N111@Z 00478ca0 f   BWAPIClient:UnitShared.obj
 0001:00077cc0       ?canUnloadAllPosition@UnitImpl@BWAPI@@UBE_N_N@Z 00478cc0 f   BWAPIClient:UnitShared.obj
 0001:00077cd0       ?canUnloadAllPosition@UnitImpl@BWAPI@@UBE_NV?$Point@H$00@2@_N1@Z 00478cd0 f   BWAPIClient:UnitShared.obj
 0001:00077cf0       ?canRightClick@UnitImpl@BWAPI@@UBE_N_N@Z 00478cf0 f   BWAPIClient:UnitShared.obj
 0001:00077d40       ?canRightClick@UnitImpl@BWAPI@@UBE_NV?$Point@H$00@2@_N11@Z 00478d40 f   BWAPIClient:UnitShared.obj
 0001:00077d90       ?canRightClick@UnitImpl@BWAPI@@UBE_NPAVUnitInterface@2@_N11@Z 00478d90 f   BWAPIClient:UnitShared.obj
 0001:00077e00       ?canRightClickGrouped@UnitImpl@BWAPI@@UBE_N_N0@Z 00478e00 f   BWAPIClient:UnitShared.obj
 0001:00077ed0       ?canRightClickGrouped@UnitImpl@BWAPI@@UBE_NV?$Point@H$00@2@_N111@Z 00478ed0 f   BWAPIClient:UnitShared.obj
 0001:00077f30       ?canRightClickGrouped@UnitImpl@BWAPI@@UBE_NPAVUnitInterface@2@_N111@Z 00478f30 f   BWAPIClient:UnitShared.obj
 0001:00077fb0       ?canRightClickPosition@UnitImpl@BWAPI@@UBE_N_N@Z 00478fb0 f   BWAPIClient:UnitShared.obj
 0001:00077fc0       ?canRightClickPositionGrouped@UnitImpl@BWAPI@@UBE_N_N0@Z 00478fc0 f   BWAPIClient:UnitShared.obj
 0001:00077fe0       ?canRightClickUnit@UnitImpl@BWAPI@@UBE_N_N@Z 00478fe0 f   BWAPIClient:UnitShared.obj
 0001:00077ff0       ?canRightClickUnit@UnitImpl@BWAPI@@UBE_NPAVUnitInterface@2@_N11@Z 00478ff0 f   BWAPIClient:UnitShared.obj
 0001:00078010       ?canRightClickUnitGrouped@UnitImpl@BWAPI@@UBE_N_N0@Z 00479010 f   BWAPIClient:UnitShared.obj
 0001:00078030       ?canRightClickUnitGrouped@UnitImpl@BWAPI@@UBE_NPAVUnitInterface@2@_N111@Z 00479030 f   BWAPIClient:UnitShared.obj
 0001:00078050       ?canHaltConstruction@UnitImpl@BWAPI@@UBE_N_N@Z 00479050 f   BWAPIClient:UnitShared.obj
 0001:000780b0       ?canCancelConstruction@UnitImpl@BWAPI@@UBE_N_N@Z 004790b0 f   BWAPIClient:UnitShared.obj
 0001:000780c0       ?canCancelAddon@UnitImpl@BWAPI@@UBE_N_N@Z 004790c0 f   BWAPIClient:UnitShared.obj
 0001:000780d0       ?canCancelTrainSlot@UnitImpl@BWAPI@@UBE_N_N@Z 004790d0 f   BWAPIClient:UnitShared.obj
 0001:000780d0       ?canCancelTrain@UnitImpl@BWAPI@@UBE_N_N@Z 004790d0 f   BWAPIClient:UnitShared.obj
 0001:00078130       ?canCancelTrainSlot@UnitImpl@BWAPI@@UBE_NH_N0@Z 00479130 f   BWAPIClient:UnitShared.obj
 0001:00078150       ?canCancelMorph@UnitImpl@BWAPI@@UBE_N_N@Z 00479150 f   BWAPIClient:UnitShared.obj
 0001:00078160       ?canCancelResearch@UnitImpl@BWAPI@@UBE_N_N@Z 00479160 f   BWAPIClient:UnitShared.obj
 0001:000781c0       ?canCancelUpgrade@UnitImpl@BWAPI@@UBE_N_N@Z 004791c0 f   BWAPIClient:UnitShared.obj
 0001:00078220       ?canUseTechWithOrWithoutTarget@UnitImpl@BWAPI@@UBE_N_N@Z 00479220 f   BWAPIClient:UnitShared.obj
 0001:00078230       ?canUseTechWithOrWithoutTarget@UnitImpl@BWAPI@@UBE_NVTechType@2@_N1@Z 00479230 f   BWAPIClient:UnitShared.obj
 0001:00078250       ?canUseTech@UnitImpl@BWAPI@@UBE_NVTechType@2@PAVUnitInterface@2@_N222@Z 00479250 f   BWAPIClient:UnitShared.obj
 0001:000782d0       ?canUseTech@UnitImpl@BWAPI@@UBE_NVTechType@2@V?$Point@H$00@2@_N222@Z 004792d0 f   BWAPIClient:UnitShared.obj
 0001:00078330       ?canUseTechWithoutTarget@UnitImpl@BWAPI@@UBE_NVTechType@2@_N1@Z 00479330 f   BWAPIClient:UnitShared.obj
 0001:00078350       ?canUseTechUnit@UnitImpl@BWAPI@@UBE_NVTechType@2@_N1@Z 00479350 f   BWAPIClient:UnitShared.obj
 0001:00078370       ?canUseTechUnit@UnitImpl@BWAPI@@UBE_NVTechType@2@PAVUnitInterface@2@_N222@Z 00479370 f   BWAPIClient:UnitShared.obj
 0001:000783a0       ?canUseTechPosition@UnitImpl@BWAPI@@UBE_NVTechType@2@_N1@Z 004793a0 f   BWAPIClient:UnitShared.obj
 0001:000783c0       ?canUseTechPosition@UnitImpl@BWAPI@@UBE_NVTechType@2@V?$Point@H$00@2@_N22@Z 004793c0 f   BWAPIClient:UnitShared.obj
 0001:000783f0       ?canPlaceCOP@UnitImpl@BWAPI@@UBE_N_N@Z 004793f0 f   BWAPIClient:UnitShared.obj
 0001:00078400       ?canPlaceCOP@UnitImpl@BWAPI@@UBE_NV?$Point@H$0CA@@2@_N1@Z 00479400 f   BWAPIClient:UnitShared.obj
 0001:00078420       ?canIssueCommandType@UnitImpl@BWAPI@@UBE_NVUnitCommandType@2@_N@Z 00479420 f   BWAPIClient:UnitShared.obj
 0001:00078440       ?canIssueCommandTypeGrouped@UnitImpl@BWAPI@@UBE_NVUnitCommandType@2@_N1@Z 00479440 f   BWAPIClient:UnitShared.obj
 0001:00078460       ?canIssueCommand@UnitImpl@BWAPI@@UBE_NVUnitCommand@2@_N11111@Z 00479460 f   BWAPIClient:UnitShared.obj
 0001:000784a0       ?canIssueCommandGrouped@UnitImpl@BWAPI@@UBE_NVUnitCommand@2@_N11111@Z 004794a0 f   BWAPIClient:UnitShared.obj
 0001:000784e0       ?_Growmap@?$deque@VUnitType@BWAPI@@V?$allocator@VUnitType@BWAPI@@@std@@@std@@AAEXI@Z 004794e0 f i BWAPIClient:UnitShared.obj
 0001:000786a0       ?getCenter@RegionImpl@BWAPI@@UBE?AV?$Point@H$00@2@XZ 004796a0 f   BWAPIClient:RegionShared.obj
 0001:000786c0       ?isHigherGround@RegionImpl@BWAPI@@UBE_NXZ 004796c0 f   BWAPIClient:RegionShared.obj
 0001:000786d0       ?getDefensePriority@RegionImpl@BWAPI@@UBEHXZ 004796d0 f   BWAPIClient:RegionShared.obj
 0001:000786e0       ?isAccessible@RegionImpl@BWAPI@@UBE_NXZ 004796e0 f   BWAPIClient:RegionShared.obj
 0001:000786f0       ?getBoundsLeft@RegionImpl@BWAPI@@UBEHXZ 004796f0 f   BWAPIClient:RegionShared.obj
 0001:00078700       ?getBoundsTop@RegionImpl@BWAPI@@UBEHXZ 00479700 f   BWAPIClient:RegionShared.obj
 0001:00078710       ?getBoundsRight@RegionImpl@BWAPI@@UBEHXZ 00479710 f   BWAPIClient:RegionShared.obj
 0001:00078720       ?getBoundsBottom@RegionImpl@BWAPI@@UBEHXZ 00479720 f   BWAPIClient:RegionShared.obj
 0001:00078730       ?getNeighbors@RegionImpl@BWAPI@@UBEABVRegionset@2@XZ 00479730 f   BWAPIClient:RegionShared.obj
 0001:00078740       ?getClosestAccessibleRegion@RegionImpl@BWAPI@@UBEPAVRegionInterface@2@XZ 00479740 f   BWAPIClient:RegionShared.obj
 0001:00078750       ?getClosestInaccessibleRegion@RegionImpl@BWAPI@@UBEPAVRegionInterface@2@XZ 00479750 f   BWAPIClient:RegionShared.obj
 0001:00078760       ?FatalError@System@SparCraft@@YAXABV?$basic_string@DU?$char_traits@D@std@@V?$allocator@D@2@@std@@@Z 00479760 f   SparCraft:Common.obj
 0001:000787b0       ?checkSupportedUnitType@System@SparCraft@@YAXABVUnitType@BWAPI@@@Z 004797b0 f   SparCraft:Common.obj
 0001:00078990       ?isSupportedUnitType@System@SparCraft@@YA_NABVUnitType@BWAPI@@@Z 00479990 f   SparCraft:Common.obj
 0001:00078a10       __vfprintf_l               00479a10 f i SparCraft:Unit.obj
 0001:00078a40       _printf                    00479a40 f i SparCraft:Unit.obj
 0001:00078a60       ??0Unit@SparCraft@@QAE@XZ  00479a60 f   SparCraft:Unit.obj
 0001:00078ad0       ??0Unit@SparCraft@@QAE@VUnitType@BWAPI@@ABVPosition@1@ABI2ABF3ABH4@Z 00479ad0 f   SparCraft:Unit.obj
 0001:00078bc0       ?canAttackTarget@Unit@SparCraft@@QBE?B_NABV12@ABH@Z 00479bc0 f   SparCraft:Unit.obj
 0001:00078c40       ?currentPosition@Unit@SparCraft@@QBEABVPosition@2@ABH@Z 00479c40 f   SparCraft:Unit.obj
 0001:00078ce0       ?speed@Unit@SparCraft@@QBE?BNXZ 00479ce0 f   SparCraft:Unit.obj
 0001:00078cf0       ?previousAction@Unit@SparCraft@@QBEABVAction@2@XZ 00479cf0 f   SparCraft:Unit.obj
 0001:00078d00       ?getType@Player_NOKDPS@SparCraft@@UAEIXZ 00479d00 f i SparCraft:Player_NOKDPS.obj
 0001:00078d10       ?getMoves@Player_NOKDPS@SparCraft@@UAEXAAVGameState@2@ABVMoveArray@2@AAV?$vector@VAction@SparCraft@@V?$allocator@VAction@SparCraft@@@std@@@std@@@Z 00479d10 f   SparCraft:Player_NOKDPS.obj
 0001:00079290       ??$_Emplace_reallocate@ABVAction@SparCraft@@@?$vector@VAction@SparCraft@@V?$allocator@VAction@SparCraft@@@std@@@std@@QAEPAVAction@SparCraft@@QAV23@ABV23@@Z 0047a290 f i SparCraft:Player_NOKDPS.obj
 0001:00079440       ?allocate@?$allocator@VAction@SparCraft@@@std@@QAEPAVAction@SparCraft@@I@Z 0047a440 f i SparCraft:Player_NOKDPS.obj
 0001:000794a0       __vsprintf_s_l             0047a4a0 f i SparCraft:GameState.obj
 0001:000794d0       __vscprintf_l              0047a4d0 f i SparCraft:GameState.obj
 0001:00079510       _sprintf_s                 0047a510 f i SparCraft:GameState.obj
 0001:00079530       __scprintf                 0047a530 f i SparCraft:GameState.obj
 0001:00079550       ?to_string@std@@YA?AV?$basic_string@DU?$char_traits@D@std@@V?$allocator@D@2@@1@N@Z 0047a550 f i SparCraft:GameState.obj
 0001:00079630       ??0GameState@SparCraft@@QAE@XZ 0047a630 f   SparCraft:GameState.obj
 0001:00079aa0       ?finishedMoving@GameState@SparCraft@@QAEXXZ 0047aaa0 f   SparCraft:GameState.obj
 0001:00079bd0       ?generateMoves@GameState@SparCraft@@QBEXAAVMoveArray@2@ABI@Z 0047abd0 f   SparCraft:GameState.obj
 0001:0007a640       ?makeMoves@GameState@SparCraft@@QAEXABV?$vector@VAction@SparCraft@@V?$allocator@VAction@SparCraft@@@std@@@std@@@Z 0047b640 f   SparCraft:GameState.obj
 0001:0007a750       ?performAction@GameState@SparCraft@@AAEXABVAction@2@@Z 0047b750 f   SparCraft:GameState.obj
 0001:0007ab70       ?getClosestOurUnit@GameState@SparCraft@@QAEABVUnit@2@ABI0@Z 0047bb70 f   SparCraft:GameState.obj
 0001:0007ac40       ?getClosestEnemyUnit@GameState@SparCraft@@QAEABVUnit@2@ABI0_N@Z 0047bc40 f   SparCraft:GameState.obj
 0001:0007ae50       ?checkFull@GameState@SparCraft@@ABE?B_NABI@Z 0047be50 f   SparCraft:GameState.obj
 0001:0007af00       ?addUnit@GameState@SparCraft@@QAEXABVUnit@2@@Z 0047bf00 f   SparCraft:GameState.obj
 0001:0007b050       ?playerDead@GameState@SparCraft@@QBE?B_NABI@Z 0047c050 f   SparCraft:GameState.obj
 0001:0007b0b0       ?checkUniqueUnitIDs@GameState@SparCraft@@ABE?B_NXZ 0047c0b0 f   SparCraft:GameState.obj
 0001:0007b1d0       ??1?$set@IU?$less@I@std@@V?$allocator@I@2@@std@@QAE@XZ 0047c1d0 f i SparCraft:GameState.obj
 0001:0007b1f0       ?calculateStartingHealth@GameState@SparCraft@@QAEXXZ 0047c1f0 f   SparCraft:GameState.obj
 0001:0007b350       ?LTD2@GameState@SparCraft@@QBE?BHABI@Z 0047c350 f   SparCraft:GameState.obj
 0001:0007b450       ?isTerminal@GameState@SparCraft@@QBE?B_NXZ 0047c450 f   SparCraft:GameState.obj
 0001:0007b670       ?toStringCompact@GameState@SparCraft@@QBE?AV?$basic_string@DU?$char_traits@D@std@@V?$allocator@D@2@@std@@XZ 0047c670 f   SparCraft:GameState.obj
 0001:0007b940       ??1?$map@VUnitType@BWAPI@@IU?$less@VUnitType@BWAPI@@@std@@V?$allocator@U?$pair@$$CBVUnitType@BWAPI@@I@std@@@4@@std@@QAE@XZ 0047c940 f i SparCraft:GameState.obj
 0001:0007b980       ??A?$map@VUnitType@BWAPI@@IU?$less@VUnitType@BWAPI@@@std@@V?$allocator@U?$pair@$$CBVUnitType@BWAPI@@I@std@@@4@@std@@QAEAAIABVUnitType@BWAPI@@@Z 0047c980 f i SparCraft:GameState.obj
 0001:0007ba60       ??0?$Array@VUnit@SparCraft@@$00@SparCraft@@QAE@XZ 0047ca60 f i SparCraft:GameState.obj
 0001:0007bae0       ??0?$Array2D@VUnit@SparCraft@@$01$0GE@@SparCraft@@QAE@XZ 0047cae0 f i SparCraft:GameState.obj
 0001:0007bb50       ??0?$vector@VUnit@SparCraft@@V?$allocator@VUnit@SparCraft@@@std@@@std@@QAE@IABVUnit@SparCraft@@ABV?$allocator@VUnit@SparCraft@@@1@@Z 0047cb50 f i SparCraft:GameState.obj
 0001:0007bbc0       ??$?HDU?$char_traits@D@std@@V?$allocator@D@1@@std@@YA?AV?$basic_string@DU?$char_traits@D@std@@V?$allocator@D@2@@0@QBD$$QAV10@@Z 0047cbc0 f i SparCraft:GameState.obj
 0001:0007bc10       ??$insert@$0A@$0A@@?$_Tree@V?$_Tset_traits@IU?$less@I@std@@V?$allocator@I@2@$0A@@std@@@std@@QAE?AU?$pair@V?$_Tree_const_iterator@V?$_Tree_val@U?$_Tree_simple_types@I@std@@@std@@@std@@_N@1@ABI@Z 0047cc10 f i SparCraft:GameState.obj
 0001:0007bd00       ??$fill@PAII@std@@YAXQAI0ABI@Z 0047cd00 f i SparCraft:GameState.obj
 0001:0007bd00       ??$fill@PAHH@std@@YAXQAH0ABH@Z 0047cd00 f i SparCraft:GameState.obj
 0001:0007bdb0       ?insert@?$basic_string@DU?$char_traits@D@std@@V?$allocator@D@2@@std@@QAEAAV12@IQBDI@Z 0047cdb0 f i SparCraft:GameState.obj
 0001:0007bf40       ??$_Sort_unchecked@PAHU?$_Ref_fn@VUnitIndexCompare@@@std@@@std@@YAXPAH0HU?$_Ref_fn@VUnitIndexCompare@@@0@@Z 0047cf40 f i SparCraft:GameState.obj
 0001:0007c070       ??$_Erase_tree@V?$allocator@U?$_Tree_node@IPAX@std@@@std@@@?$_Tree_val@U?$_Tree_simple_types@I@std@@@std@@QAEXAAV?$allocator@U?$_Tree_node@IPAX@std@@@1@PAU?$_Tree_node@IPAX@1@@Z 0047d070 f i SparCraft:GameState.obj
 0001:0007c0b0       ??$_Insertion_sort_unchecked@PAHU?$_Ref_fn@VUnitIndexCompare@@@std@@@std@@YAPAHQAH0U?$_Ref_fn@VUnitIndexCompare@@@0@@Z 0047d0b0 f i SparCraft:GameState.obj
 0001:0007c210       ??$_Partition_by_median_guess_unchecked@PAHU?$_Ref_fn@VUnitIndexCompare@@@std@@@std@@YA?AU?$pair@PAHPAH@0@PAH0U?$_Ref_fn@VUnitIndexCompare@@@0@@Z 0047d210 f i SparCraft:GameState.obj
 0001:0007c7b0       ??$_Pop_heap_hole_by_index@PAHHU?$_Ref_fn@VUnitIndexCompare@@@std@@@std@@YAXPAHHH$$QAHU?$_Ref_fn@VUnitIndexCompare@@@0@@Z 0047d7b0 f i SparCraft:GameState.obj
 0001:0007c960       ??$_Med3_unchecked@PAHU?$_Ref_fn@VUnitIndexCompare@@@std@@@std@@YAXPAH00U?$_Ref_fn@VUnitIndexCompare@@@0@@Z 0047d960 f i SparCraft:GameState.obj
 0001:0007caf0       ??0?$shared_ptr@VPlayer@SparCraft@@@std@@QAE@XZ 0047daf0 f i SparCraft:Game.obj
 0001:0007cb00       ??_FMoveArray@SparCraft@@QAEXXZ 0047db00 f i SparCraft:Game.obj
 0001:0007cc50       ??0Game@SparCraft@@QAE@ABVGameState@1@AAV?$shared_ptr@VPlayer@SparCraft@@@std@@1ABI@Z 0047dc50 f   SparCraft:Game.obj
 0001:0007cde0       ?play@Game@SparCraft@@QAEXXZ 0047dde0 f   SparCraft:Game.obj
 0001:0007cf40       ?playNextTurn@Game@SparCraft@@QAEXXZ 0047df40 f   SparCraft:Game.obj
 0001:0007d100       ??0?$vector@VAction@SparCraft@@V?$allocator@VAction@SparCraft@@@std@@@std@@QAE@IABV?$allocator@VAction@SparCraft@@@1@@Z 0047e100 f i SparCraft:Game.obj
 0001:0007d190       ?init@SparCraft@@YAXXZ     0047e190 f   SparCraft:SparCraft.obj
 0001:0007d300       ??0HashValues@Hash@SparCraft@@QAE@H@Z 0047e300 f   SparCraft:Hash.obj
 0001:0007d3e0       ?init@AnimationFrameData@SparCraft@@SAXXZ 0047e3e0 f   SparCraft:AnimationFrameData.obj
 0001:0007d790       ?Init@UnitProperties@SparCraft@@SAXXZ 0047e790 f   SparCraft:UnitProperties.obj
 0001:0007da80       ?moveString@Action@SparCraft@@QBE?BV?$basic_string@DU?$char_traits@D@std@@V?$allocator@D@2@@std@@XZ 0047ea80 f   SparCraft:Action.obj
 0001:0007db00       ?resetMoveIterator@MoveArray@SparCraft@@QAEXXZ 0047eb00 f   SparCraft:MoveArray.obj
 0001:0007db80       ?init@Players@SparCraft@@SAXXZ 0047eb80 f i SparCraft:EnumData.obj
 0001:0007de50       ?init@SearchMethods@SparCraft@@SAXXZ 0047ee50 f i SparCraft:EnumData.obj
 0001:0007e0a0       ?init@PlayerModels@SparCraft@@SAXXZ 0047f0a0 f i SparCraft:EnumData.obj
 0001:0007e7e0       ?init@EvaluationMethods@SparCraft@@SAXXZ 0047f7e0 f i SparCraft:EnumData.obj
 0001:0007ea30       ?init@SearchNodeType@SparCraft@@SAXXZ 0047fa30 f i SparCraft:EnumData.obj
 0001:0007ed80       ?init@MoveOrderMethod@SparCraft@@SAXXZ 0047fd80 f i SparCraft:EnumData.obj
 0001:0007ef50       ?init@PlayerToMove@SparCraft@@SAXXZ 0047ff50 f i SparCraft:EnumData.obj
 0001:0007f1a0       ?setData@?$EnumData@VPlayerToMove@SparCraft@@@SparCraft@@SAXABHABV?$basic_string@DU?$char_traits@D@std@@V?$allocator@D@2@@std@@@Z 004801a0 f i SparCraft:EnumData.obj
 0001:0007f2b0       ?setData@?$EnumData@VMoveOrderMethod@SparCraft@@@SparCraft@@SAXABHABV?$basic_string@DU?$char_traits@D@std@@V?$allocator@D@2@@std@@@Z 004802b0 f i SparCraft:EnumData.obj
 0001:0007f3c0       ?setData@?$EnumData@VSearchNodeType@SparCraft@@@SparCraft@@SAXABHABV?$basic_string@DU?$char_traits@D@std@@V?$allocator@D@2@@std@@@Z 004803c0 f i SparCraft:EnumData.obj
 0001:0007f4d0       ?setData@?$EnumData@VEvaluationMethods@SparCraft@@@SparCraft@@SAXABHABV?$basic_string@DU?$char_traits@D@std@@V?$allocator@D@2@@std@@@Z 004804d0 f i SparCraft:EnumData.obj
 0001:0007f5e0       ?setData@?$EnumData@VPlayerModels@SparCraft@@@SparCraft@@SAXABHABV?$basic_string@DU?$char_traits@D@std@@V?$allocator@D@2@@std@@@Z 004805e0 f i SparCraft:EnumData.obj
 0001:0007f6f0       ?setData@?$EnumData@VSearchMethods@SparCraft@@@SparCraft@@SAXABHABV?$basic_string@DU?$char_traits@D@std@@V?$allocator@D@2@@std@@@Z 004806f0 f i SparCraft:EnumData.obj
 0001:0007f800       ?setData@?$EnumData@VPlayers@SparCraft@@@SparCraft@@SAXABHABV?$basic_string@DU?$char_traits@D@std@@V?$allocator@D@2@@std@@@Z 00480800 f i SparCraft:EnumData.obj
 0001:0007f910       ?resize@?$vector@V?$basic_string@DU?$char_traits@D@std@@V?$allocator@D@2@@std@@V?$allocator@V?$basic_string@DU?$char_traits@D@std@@V?$allocator@D@2@@std@@@2@@std@@QAEXI@Z 00480910 f i SparCraft:EnumData.obj
 0001:0007f9d0       ?getType@?$EnumData@VPlayerToMove@SparCraft@@@SparCraft@@SAABV?$basic_string@DU?$char_traits@D@std@@V?$allocator@D@2@@std@@XZ 004809d0 f i SparCraft:EnumData.obj
 0001:0007f9e0       ?getType@?$EnumData@VMoveOrderMethod@SparCraft@@@SparCraft@@SAABV?$basic_string@DU?$char_traits@D@std@@V?$allocator@D@2@@std@@XZ 004809e0 f i SparCraft:EnumData.obj
 0001:0007f9f0       ?getType@?$EnumData@VSearchNodeType@SparCraft@@@SparCraft@@SAABV?$basic_string@DU?$char_traits@D@std@@V?$allocator@D@2@@std@@XZ 004809f0 f i SparCraft:EnumData.obj
 0001:0007fa00       ?getType@?$EnumData@VEvaluationMethods@SparCraft@@@SparCraft@@SAABV?$basic_string@DU?$char_traits@D@std@@V?$allocator@D@2@@std@@XZ 00480a00 f i SparCraft:EnumData.obj
 0001:0007fa10       ?getType@?$EnumData@VPlayerModels@SparCraft@@@SparCraft@@SAABV?$basic_string@DU?$char_traits@D@std@@V?$allocator@D@2@@std@@XZ 00480a10 f i SparCraft:EnumData.obj
 0001:0007fa20       ?getType@?$EnumData@VSearchMethods@SparCraft@@@SparCraft@@SAABV?$basic_string@DU?$char_traits@D@std@@V?$allocator@D@2@@std@@XZ 00480a20 f i SparCraft:EnumData.obj
 0001:0007fa30       ?getType@?$EnumData@VPlayers@SparCraft@@@SparCraft@@SAABV?$basic_string@DU?$char_traits@D@std@@V?$allocator@D@2@@std@@XZ 00480a30 f i SparCraft:EnumData.obj
 0001:0007fa40       ??A?$map@V?$basic_string@DU?$char_traits@D@std@@V?$allocator@D@2@@std@@HU?$less@V?$basic_string@DU?$char_traits@D@std@@V?$allocator@D@2@@std@@@2@V?$allocator@U?$pair@$$CBV?$basic_string@DU?$char_traits@D@std@@V?$allocator@D@2@@std@@H@std@@@2@@std@@QAEAAHABV?$basic_string@DU?$char_traits@D@std@@V?$allocator@D@2@@1@@Z 00480a40 f i SparCraft:EnumData.obj
 0001:0007fb90       ??1?$_Tree_temp_node_alloc@V?$allocator@U?$_Tree_node@U?$pair@$$CBV?$basic_string@DU?$char_traits@D@std@@V?$allocator@D@2@@std@@H@std@@PAX@std@@@std@@@std@@QAE@XZ 00480b90 f i SparCraft:EnumData.obj
 0001:0007fb90       ??1?$_Alloc_construct_ptr@V?$allocator@U?$_Tree_node@U?$pair@$$CBV?$basic_string@DU?$char_traits@D@std@@V?$allocator@D@2@@std@@H@std@@PAX@std@@@std@@@std@@QAE@XZ 00480b90 f i SparCraft:EnumData.obj
 0001:0007fbb0       ??$_Resize_reallocate@U_Value_init_tag@std@@@?$vector@V?$basic_string@DU?$char_traits@D@std@@V?$allocator@D@2@@std@@V?$allocator@V?$basic_string@DU?$char_traits@D@std@@V?$allocator@D@2@@std@@@2@@std@@AAEXIABU_Value_init_tag@1@@Z 00480bb0 f i SparCraft:EnumData.obj
 0001:0007fc80       ?whatBuildsActionType@ActionType@BOSS@@QBE?AV12@XZ 00480c80 f   BOSS:ActionType.obj
 0001:0007fd10       ?getName@ActionType@BOSS@@QBEABV?$basic_string@DU?$char_traits@D@std@@V?$allocator@D@2@@std@@XZ 00480d10 f   BOSS:ActionType.obj
 0001:0007fd60       ?mineralPrice@ActionType@BOSS@@QBEHXZ 00480d60 f   BOSS:ActionType.obj
 0001:0007fda0       ?gasPrice@ActionType@BOSS@@QBEHXZ 00480da0 f   BOSS:ActionType.obj
 0001:0007fde0       ?canBuild@ActionType@BOSS@@QBE_NABV12@@Z 00480de0 f   BOSS:ActionType.obj
 0001:000802c0       ?requiredAddonType@ActionType@BOSS@@QBE?AV12@XZ 004812c0 f   BOSS:ActionType.obj
 0001:00080350       ?init@ActionTypes@BOSS@@YAXXZ 00481350 f   BOSS:ActionType.obj
 0001:00080d40       ?GetActionType@ActionTypes@BOSS@@YAABVActionType@2@ABV?$basic_string@DU?$char_traits@D@std@@V?$allocator@D@2@@std@@@Z 00481d40 f   BOSS:ActionType.obj
 0001:00080d90       ?TypeExists@ActionTypes@BOSS@@YA?B_NABV?$basic_string@DU?$char_traits@D@std@@V?$allocator@D@2@@std@@@Z 00481d90 f   BOSS:ActionType.obj
 0001:00080df0       ??A?$map@V?$basic_string@DU?$char_traits@D@std@@V?$allocator@D@2@@std@@VActionType@BOSS@@U?$less@V?$basic_string@DU?$char_traits@D@std@@V?$allocator@D@2@@std@@@2@V?$allocator@U?$pair@$$CBV?$basic_string@DU?$char_traits@D@std@@V?$allocator@D@2@@std@@VActionType@BOSS@@@std@@@2@@std@@QAEAAVActionType@BOSS@@ABV?$basic_string@DU?$char_traits@D@std@@V?$allocator@D@2@@1@@Z 00481df0 f i BOSS:ActionType.obj
 0001:00080f00       ??$_Emplace_reallocate@ABVActionType@BOSS@@@?$vector@VActionType@BOSS@@V?$allocator@VActionType@BOSS@@@std@@@std@@QAEPAVActionType@BOSS@@QAV23@ABV23@@Z 00481f00 f i BOSS:ActionType.obj
 0001:00080f00       ??$_Emplace_reallocate@VActionType@BOSS@@@?$vector@VActionType@BOSS@@V?$allocator@VActionType@BOSS@@@std@@@std@@QAEPAVActionType@BOSS@@QAV23@$$QAV23@@Z 00481f00 f i BOSS:GameState.obj
 0001:00081040       ??$_Emplace_reallocate@V?$vector@VActionType@BOSS@@V?$allocator@VActionType@BOSS@@@std@@@std@@@?$vector@V?$vector@VActionType@BOSS@@V?$allocator@VActionType@BOSS@@@std@@@std@@V?$allocator@V?$vector@VActionType@BOSS@@V?$allocator@VActionType@BOSS@@@std@@@std@@@2@@std@@QAEPAV?$vector@VActionType@BOSS@@V?$allocator@VActionType@BOSS@@@std@@@1@QAV21@$$QAV21@@Z 00482040 f i BOSS:ActionType.obj
 0001:00081240       ??$_Find_lower_bound@V?$basic_string@DU?$char_traits@D@std@@V?$allocator@D@2@@std@@@?$_Tree@V?$_Tmap_traits@V?$basic_string@DU?$char_traits@D@std@@V?$allocator@D@2@@std@@VActionType@BOSS@@U?$less@V?$basic_string@DU?$char_traits@D@std@@V?$allocator@D@2@@std@@@2@V?$allocator@U?$pair@$$CBV?$basic_string@DU?$char_traits@D@std@@V?$allocator@D@2@@std@@VActionType@BOSS@@@std@@@2@$0A@@std@@@std@@IBE?AU?$_Tree_find_result@PAU?$_Tree_node@U?$pair@$$CBV?$basic_string@DU?$char_traits@D@std@@V?$allocator@D@2@@std@@VActionType@BOSS@@@std@@PAX@std@@@1@ABV?$basic_string@DU?$char_traits@D@std@@V?$allocator@D@2@@1@@Z 00482240 f i BOSS:ActionType.obj
 0001:000812d0       ??$_Uninitialized_move@PAV?$vector@VActionType@BOSS@@V?$allocator@VActionType@BOSS@@@std@@@std@@V?$allocator@V?$vector@VActionType@BOSS@@V?$allocator@VActionType@BOSS@@@std@@@std@@@2@@std@@YAPAV?$vector@VActionType@BOSS@@V?$allocator@VActionType@BOSS@@@std@@@0@QAV10@0PAV10@AAV?$allocator@V?$vector@VActionType@BOSS@@V?$allocator@VActionType@BOSS@@@std@@@std@@@0@@Z 004822d0 f i BOSS:ActionType.obj
 0001:00081330       ??0NaiveBuildOrderSearch@BOSS@@QAE@ABVGameState@1@ABVBuildOrderSearchGoal@1@@Z 00482330 f   BOSS:NaiveBuildOrderSearch.obj
 0001:000813d0       ??0GameState@BOSS@@QAE@ABV01@@Z 004823d0 f i BOSS:NaiveBuildOrderSearch.obj
 0001:000815e0       ?checkUnsolvable@NaiveBuildOrderSearch@BOSS@@AAE_NXZ 004825e0 f   BOSS:NaiveBuildOrderSearch.obj
 0001:00081650       ?solve@NaiveBuildOrderSearch@BOSS@@QAEABVBuildOrder@2@XZ 00482650 f   BOSS:NaiveBuildOrderSearch.obj
 0001:00083910       ?doSearch@DFBB_BuildOrderSmartSearch@BOSS@@AAEXXZ 00484910 f   BOSS:DFBB_BuildOrderSmartSearch.obj
 0001:00083a90       ??4BuildOrderSearchGoal@BOSS@@QAEAAV01@ABV01@@Z 00484a90 f i BOSS:DFBB_BuildOrderSmartSearch.obj
 0001:00083b50       ??4ActionSet@BOSS@@QAEAAV01@ABV01@@Z 00484b50 f i BOSS:DFBB_BuildOrderSmartSearch.obj
 0001:00083ba0       ??4DFBB_BuildOrderStackSearch@BOSS@@QAEAAV01@$$QAV01@@Z 00484ba0 f i BOSS:DFBB_BuildOrderSmartSearch.obj
 0001:00083e30       ?calculateSearchSettings@DFBB_BuildOrderSmartSearch@BOSS@@AAEXXZ 00484e30 f   BOSS:DFBB_BuildOrderSmartSearch.obj
 0001:00084050       ?calculateRefineriesRequired@DFBB_BuildOrderSmartSearch@BOSS@@AAEHXZ 00485050 f   BOSS:DFBB_BuildOrderSmartSearch.obj
 0001:00084190       ?setPrerequisiteGoalMax@DFBB_BuildOrderSmartSearch@BOSS@@AAEXXZ 00485190 f   BOSS:DFBB_BuildOrderSmartSearch.obj
 0001:00084790       ?recurseOverStrictDependencies@DFBB_BuildOrderSmartSearch@BOSS@@AAEXABVActionType@2@@Z 00485790 f   BOSS:DFBB_BuildOrderSmartSearch.obj
 0001:00084950       ?calculateSupplyProvidersRequired@DFBB_BuildOrderSmartSearch@BOSS@@AAEHXZ 00485950 f   BOSS:DFBB_BuildOrderSmartSearch.obj
 0001:00084c10       ?setRepetitions@DFBB_BuildOrderSmartSearch@BOSS@@AAEXXZ 00485c10 f   BOSS:DFBB_BuildOrderSmartSearch.obj
 0001:00084e80       ??0GameState@BOSS@@QAE@H@Z 00485e80 f   BOSS:GameState.obj
 0001:00084f00       ??0GameState@BOSS@@QAE@AAVGameWrapper@BWAPI@@PAVPlayerInterface@3@ABV?$vector@VUnitType@BWAPI@@V?$allocator@VUnitType@BWAPI@@@std@@@std@@@Z 00485f00 f   BOSS:GameState.obj
 0001:00085e60       ?isLegal@GameState@BOSS@@QBE_NABVActionType@2@@Z 00486e60 f   BOSS:GameState.obj
 0001:000862d0       ?doAction@GameState@BOSS@@QAE?AV?$vector@VActionType@BOSS@@V?$allocator@VActionType@BOSS@@@std@@@std@@ABVActionType@2@@Z 004872d0 f   BOSS:GameState.obj
 0001:00086930       ?fastForward@GameState@BOSS@@QAE?AV?$vector@VActionType@BOSS@@V?$allocator@VActionType@BOSS@@@std@@@std@@H@Z 00487930 f   BOSS:GameState.obj
 0001:00086b80       ?whenCanPerform@GameState@BOSS@@QBE?BHABVActionType@2@@Z 00487b80 f   BOSS:GameState.obj
 0001:00086fb0       ?whenWorkerReady@GameState@BOSS@@ABE?BHABVActionType@2@@Z 00487fb0 f   BOSS:GameState.obj
 0001:000870e0       ?whenBuildingPrereqReady@GameState@BOSS@@ABE?BHABVActionType@2@@Z 004880e0 f   BOSS:GameState.obj
 0001:00087310       ?whenMineralsReady@GameState@BOSS@@ABE?BHABVActionType@2@@Z 00488310 f   BOSS:GameState.obj
 0001:00087570       ?whenGasReady@GameState@BOSS@@ABE?BHABVActionType@2@@Z 00488570 f   BOSS:GameState.obj
 0001:000877e0       ?toString@GameState@BOSS@@QBE?BV?$basic_string@DU?$char_traits@D@std@@V?$allocator@D@2@@std@@XZ 004887e0 f   BOSS:GameState.obj
 0001:00087f90       ?getActionsPerformedString@GameState@BOSS@@QBE?BV?$basic_string@DU?$char_traits@D@std@@V?$allocator@D@2@@std@@XZ 00488f90 f   BOSS:GameState.obj
 0001:00088190       ??$_Emplace_reallocate@VActionPerformed@BOSS@@@?$vector@VActionPerformed@BOSS@@V?$allocator@VActionPerformed@BOSS@@@std@@@std@@QAEPAVActionPerformed@BOSS@@QAV23@$$QAV23@@Z 00489190 f i BOSS:GameState.obj
 0001:00088360       ??0BuildOrderSearchGoal@BOSS@@QAE@H@Z 00489360 f   BOSS:BuildOrderSearchGoal.obj
 0001:00088440       ?setGoal@BuildOrderSearchGoal@BOSS@@QAEXABVActionType@2@H@Z 00489440 f   BOSS:BuildOrderSearchGoal.obj
 0001:00088560       ?setGoalMax@BuildOrderSearchGoal@BOSS@@QAEXABVActionType@2@H@Z 00489560 f   BOSS:BuildOrderSearchGoal.obj
 0001:000885d0       ?getGoal@BuildOrderSearchGoal@BOSS@@QBEHABVActionType@2@@Z 004895d0 f   BOSS:BuildOrderSearchGoal.obj
 0001:00088640       ?getGoalMax@BuildOrderSearchGoal@BOSS@@QBEHABVActionType@2@@Z 00489640 f   BOSS:BuildOrderSearchGoal.obj
 0001:000886b0       ?isAchievedBy@BuildOrderSearchGoal@BOSS@@QAE_NABVGameState@2@@Z 004896b0 f   BOSS:BuildOrderSearchGoal.obj
 0001:00088c10       __vsnprintf_l              00489c10 f i BOSS:BOSSAssert.obj
 0001:00088c50       _vsprintf                  00489c50 f i BOSS:BOSSAssert.obj
 0001:00088c70       ?ReportFailure@Assert@BOSS@@YAXPBVGameState@2@PBD1H1ZZ 00489c70 f   BOSS:BOSSAssert.obj
 0001:00088e20       ??0BOSSException@BOSS@@QAE@ABV01@@Z 00489e20 f i BOSS:BOSSAssert.obj
 0001:00088ea0       ??_GBOSSException@BOSS@@UAEPAXI@Z 00489ea0 f i BOSS:BOSSAssert.obj
 0001:00088ea0       ??_EBOSSException@BOSS@@UAEPAXI@Z 00489ea0 f i * CIL library *:* CIL module *
 0001:00088ed0       ??0DFBB_BuildOrderSearchParameters@BOSS@@QAE@ABH@Z 00489ed0 f   BOSS:DFBB_BuildOrderSearchParameters.obj
 0001:00088ff0       ?setRepetitions@DFBB_BuildOrderSearchParameters@BOSS@@QAEXABVActionType@2@ABH@Z 00489ff0 f   BOSS:DFBB_BuildOrderSearchParameters.obj
 0001:00089080       ??0BuildOrder@BOSS@@QAE@XZ 0048a080 f   BOSS:BuildOrder.obj
 0001:00089170       ?add@BuildOrder@BOSS@@QAEXABVActionType@2@@Z 0048a170 f   BOSS:BuildOrder.obj
 0001:000891f0       ?getCompletionTime@BuildOrder@BOSS@@QBE?BHABVGameState@2@I@Z 0048a1f0 f   BOSS:BuildOrder.obj
 0001:00089320       ?canBuildEventually@BuildingStatus@BOSS@@QBE?B_NABVActionType@2@@Z 0048a320 f   BOSS:BuildingData.obj
 0001:00089490       ?canBuildNow@BuildingStatus@BOSS@@QBE?B_NABVActionType@2@@Z 0048a490 f   BOSS:BuildingData.obj
 0001:00089540       ?fastForward@BuildingStatus@BOSS@@QAEXH@Z 0048a540 f   BOSS:BuildingData.obj
 0001:00089690       ?getTimeUntilCanBuild@BuildingData@BOSS@@QBE?BHABVActionType@2@@Z 0048a690 f   BOSS:BuildingData.obj
 0001:00089750       ?queueAction@BuildingData@BOSS@@QAEXABVActionType@2@@Z 0048a750 f   BOSS:BuildingData.obj
 0001:00089850       ?toString@BuildingData@BOSS@@QBE?AV?$basic_string@DU?$char_traits@D@std@@V?$allocator@D@2@@std@@XZ 0048a850 f   BOSS:BuildingData.obj
 0001:00089ca0       ?canBuildEventually@BuildingData@BOSS@@QBE?B_NABVActionType@2@@Z 0048aca0 f   BOSS:BuildingData.obj
 0001:00089d10       ?push_back@?$Vec@VBuildingStatus@BOSS@@$0EG@@BOSS@@QAEXABVBuildingStatus@2@@Z 0048ad10 f i BOSS:BuildingData.obj
 0001:00089da0       ??0ActionTypeData@BOSS@@AAE@VUnitType@BWAPI@@H@Z 0048ada0 f   BOSS:ActionTypeData.obj
 0001:0008a010       ??0ActionTypeData@BOSS@@AAE@VUpgradeType@BWAPI@@H@Z 0048b010 f   BOSS:ActionTypeData.obj
 0001:0008a1b0       ??0ActionTypeData@BOSS@@AAE@VTechType@BWAPI@@H@Z 0048b1b0 f   BOSS:ActionTypeData.obj
 0001:0008a350       ?setShortName@ActionTypeData@BOSS@@AAEXXZ 0048b350 f   BOSS:ActionTypeData.obj
 0001:0008a510       ?Init@ActionTypeData@BOSS@@SAXXZ 0048b510 f   BOSS:ActionTypeData.obj
 0001:0008a610       ?AddActions@ActionTypeData@BOSS@@CAXXZ 0048b610 f   BOSS:ActionTypeData.obj
 0001:0008af50       ??1ActionTypeData@BOSS@@QAE@XZ 0048bf50 f i BOSS:ActionTypeData.obj
 0001:0008b030       ?GetActionID@ActionTypeData@BOSS@@SAHABVUnitType@BWAPI@@@Z 0048c030 f   BOSS:ActionTypeData.obj
 0001:0008b150       ?GetActionID@ActionTypeData@BOSS@@SAHABVTechType@BWAPI@@@Z 0048c150 f   BOSS:ActionTypeData.obj
 0001:0008b270       ?GetActionID@ActionTypeData@BOSS@@SAHABVUpgradeType@BWAPI@@@Z 0048c270 f   BOSS:ActionTypeData.obj
 0001:0008b390       ??0ActionTypeData@BOSS@@QAE@ABV01@@Z 0048c390 f i BOSS:ActionTypeData.obj
 0001:0008b5a0       ?AddPrerequisites@ActionTypeData@BOSS@@CAXXZ 0048c5a0 f   BOSS:ActionTypeData.obj
 0001:0008b9a0       ?CalculatePrerequisites@ActionTypeData@BOSS@@CA?AVPrerequisiteSet@2@ABV12@@Z 0048c9a0 f   BOSS:ActionTypeData.obj
 0001:0008bcb0       ??0PrerequisiteSet@BOSS@@QAE@$$QAV01@@Z 0048ccb0 f i BOSS:ActionTypeData.obj
 0001:0008bd00       ?CalculateRecursivePrerequisites@ActionTypeData@BOSS@@CAXAAVPrerequisiteSet@2@ABV12@@Z 0048cd00 f   BOSS:ActionTypeData.obj
 0001:0008bf90       ?_Tidy@?$vector@V?$vector@VActionTypeData@BOSS@@V?$allocator@VActionTypeData@BOSS@@@std@@@std@@V?$allocator@V?$vector@VActionTypeData@BOSS@@V?$allocator@VActionTypeData@BOSS@@@std@@@std@@@2@@std@@AAEXXZ 0048cf90 f i BOSS:ActionTypeData.obj
 0001:0008c010       ??$construct@VActionTypeData@BOSS@@V12@@?$_Default_allocator_traits@V?$allocator@VActionTypeData@BOSS@@@std@@@std@@SAXAAV?$allocator@VActionTypeData@BOSS@@@1@QAVActionTypeData@BOSS@@$$QAV34@@Z 0048d010 f i BOSS:ActionTypeData.obj
 0001:0008c200       ??$_Emplace_reallocate@VActionTypeData@BOSS@@@?$vector@VActionTypeData@BOSS@@V?$allocator@VActionTypeData@BOSS@@@std@@@std@@QAEPAVActionTypeData@BOSS@@QAV23@$$QAV23@@Z 0048d200 f i BOSS:ActionTypeData.obj
 0001:0008c4c0       ??$_Destroy_range@V?$allocator@V?$vector@VActionTypeData@BOSS@@V?$allocator@VActionTypeData@BOSS@@@std@@@std@@@std@@@std@@YAXPAV?$vector@VActionTypeData@BOSS@@V?$allocator@VActionTypeData@BOSS@@@std@@@0@QAV10@AAV?$allocator@V?$vector@VActionTypeData@BOSS@@V?$allocator@VActionTypeData@BOSS@@@std@@@std@@@0@@Z 0048d4c0 f i BOSS:ActionTypeData.obj
 0001:0008c570       ?_Destroy@?$vector@VActionTypeData@BOSS@@V?$allocator@VActionTypeData@BOSS@@@std@@@std@@AAEXPAVActionTypeData@BOSS@@0@Z 0048d570 f i BOSS:ActionTypeData.obj
 0001:0008c5a0       ?deallocate@?$allocator@VActionTypeData@BOSS@@@std@@QAEXQAVActionTypeData@BOSS@@I@Z 0048d5a0 f i BOSS:ActionTypeData.obj
 0001:0008c5e0       ??1?$_Uninitialized_backout_al@V?$allocator@VActionTypeData@BOSS@@@std@@@std@@QAE@XZ 0048d5e0 f i BOSS:ActionTypeData.obj
 0001:0008c610       ?GetLowerBound@Tools@BOSS@@YAHABVGameState@2@ABVBuildOrderSearchGoal@2@@Z 0048d610 f   BOSS:Tools.obj
 0001:0008c7a0       ?CalculatePrerequisitesRequiredToBuild@Tools@BOSS@@YAXABVGameState@2@ABVPrerequisiteSet@2@AAV42@@Z 0048d7a0 f   BOSS:Tools.obj
 0001:0008cac0       ?CalculatePrerequisitesLowerBound@Tools@BOSS@@YAHABVGameState@2@ABVPrerequisiteSet@2@HH@Z 0048dac0 f   BOSS:Tools.obj
 0001:0008cc00       ??0UnitData@BOSS@@QAE@H@Z  0048dc00 f   BOSS:UnitData.obj
 0001:0008cdd0       ?addCompletedBuilding@UnitData@BOSS@@QAEXABVActionType@2@H00H@Z 0048ddd0 f   BOSS:UnitData.obj
 0001:0008cfc0       ?addCompletedAction@UnitData@BOSS@@QAEXABVActionType@2@_N@Z 0048dfc0 f   BOSS:UnitData.obj
 0001:0008d400       ?addActionInProgress@UnitData@BOSS@@QAEXABVActionType@2@ABH_N@Z 0048e400 f   BOSS:UnitData.obj
 0001:0008d570       ?hasMineralIncome@UnitData@BOSS@@QBE?B_NXZ 0048e570 f   BOSS:UnitData.obj
 0001:0008d5d0       ?morphUnit@UnitData@BOSS@@QAEXABVActionType@2@0ABH@Z 0048e5d0 f   BOSS:UnitData.obj
 0001:0008d6e0       ?finishNextActionInProgress@UnitData@BOSS@@QAE?AVActionType@2@XZ 0048e6e0 f   BOSS:UnitData.obj
 0001:0008d990       ?getNumTotal@UnitData@BOSS@@QBE?BHABVActionType@2@@Z 0048e990 f   BOSS:UnitData.obj
 0001:0008da40       ?hasPrerequisites@UnitData@BOSS@@QBE?B_NABVPrerequisiteSet@2@@Z 0048ea40 f   BOSS:UnitData.obj
 0001:0008df40       ?getSupplyInProgress@UnitData@BOSS@@QBE?BHXZ 0048ef40 f   BOSS:UnitData.obj
 0001:0008e020       ?getFinishTime@UnitData@BOSS@@QBE?BHABVPrerequisiteSet@2@@Z 0048f020 f   BOSS:UnitData.obj
 0001:0008e120       ?getFinishTime@UnitData@BOSS@@QBE?BHABVActionType@2@@Z 0048f120 f   BOSS:UnitData.obj
 0001:0008e1e0       ?getPrerequistesInProgress@UnitData@BOSS@@QBE?BVPrerequisiteSet@2@ABVActionType@2@@Z 0048f1e0 f   BOSS:UnitData.obj
 0001:0008e3a0       ??0PrerequisiteSet@BOSS@@QAE@XZ 0048f3a0 f   BOSS:PrerequisiteSet.obj
 0001:0008e3e0       ?contains@PrerequisiteSet@BOSS@@QBE?B_NABVActionType@2@@Z 0048f3e0 f   BOSS:PrerequisiteSet.obj
 0001:0008e450       ?remove@PrerequisiteSet@BOSS@@QAEXABVActionType@2@@Z 0048f450 f   BOSS:PrerequisiteSet.obj
 0001:0008e530       ??0ActionSet@BOSS@@QAE@XZ  0048f530 f   BOSS:ActionSet.obj
 0001:0008e570       ?remove@ActionSet@BOSS@@QAEXABVActionType@2@@Z 0048f570 f   BOSS:ActionSet.obj
 0001:0008e610       ??0DFBB_BuildOrderStackSearch@BOSS@@QAE@ABVDFBB_BuildOrderSearchParameters@1@@Z 0048f610 f   BOSS:DFBB_BuildOrderStackSearch.obj
 0001:0008e9f0       ?search@DFBB_BuildOrderStackSearch@BOSS@@QAEXXZ 0048f9f0 f   BOSS:DFBB_BuildOrderStackSearch.obj
 0001:0008ec10       ?generateLegalActions@DFBB_BuildOrderStackSearch@BOSS@@AAEXABVGameState@2@AAVActionSet@2@@Z 0048fc10 f   BOSS:DFBB_BuildOrderStackSearch.obj
 0001:0008f180       ?getRepetitions@DFBB_BuildOrderStackSearch@BOSS@@AAEHABVGameState@2@ABVActionType@2@@Z 00490180 f   BOSS:DFBB_BuildOrderStackSearch.obj
 0001:0008f310       ?DFBB@DFBB_BuildOrderStackSearch@BOSS@@QAEXXZ 00490310 f   BOSS:DFBB_BuildOrderStackSearch.obj
 0001:0008f8b0       ??1?$_Tidy_guard@V?$vector@VStackData@BOSS@@V?$allocator@VStackData@BOSS@@@std@@@std@@@std@@QAE@XZ 004908b0 f i BOSS:DFBB_BuildOrderStackSearch.obj
 0001:0008f8c0       ??1?$_Uninitialized_backout_al@V?$allocator@VStackData@BOSS@@@std@@@std@@QAE@XZ 004908c0 f i BOSS:DFBB_BuildOrderStackSearch.obj
 0001:0008f8f0       ?numLarva@HatcheryData@BOSS@@QBE?BHXZ 004908f0 f   BOSS:HatcheryData.obj
 0001:0008f940       ??0BOSSException@BOSS@@QAE@V?$basic_string@DU?$char_traits@D@std@@V?$allocator@D@2@@std@@@Z 00490940 f   BOSS:BOSSException.obj
 0001:0008f9f0       ??1BOSSException@BOSS@@UAE@XZ 004909f0 f   BOSS:BOSSException.obj
 0001:0008fa60       ?what@BOSSException@BOSS@@UBEPBDXZ 00490a60 f   BOSS:BOSSException.obj
 0001:0008fa70       ?nextBuildingFinishTime@ActionsInProgress@BOSS@@QBEHXZ 00490a70 f   BOSS:ActionInProgress.obj
 0001:0008fbf0       ?addAtIndex@?$Vec@VActionInProgress@BOSS@@$0DC@@BOSS@@QAEXABVActionInProgress@2@ABI@Z 00490bf0 f i BOSS:ActionInProgress.obj
 0001:0008fcb7       ??1_Fac_node@std@@QAE@XZ   00490cb7 f i msvcprt:locale0_implib.obj
 0001:0008fce8       ??1_Fac_tidy_reg_t@std@@QAE@XZ 00490ce8 f i msvcprt:locale0_implib.obj
 0001:0008fd0f       ?_Facet_Register@std@@YAXPAV_Facet_base@1@@Z 00490d0f f   msvcprt:locale0_implib.obj
 0001:0008fd3b       ?showmanyc@?$basic_streambuf@DU?$char_traits@D@std@@@std@@MAE_JXZ 00490d3b f   msvcprt:MSVCP140.dll
 0001:0008fd41       ?xsgetn@?$basic_streambuf@DU?$char_traits@D@std@@@std@@MAE_JPAD_J@Z 00490d41 f   msvcprt:MSVCP140.dll
 0001:0008fd47       ?xsputn@?$basic_streambuf@DU?$char_traits@D@std@@@std@@MAE_JPBD_J@Z 00490d47 f   msvcprt:MSVCP140.dll
 0001:0008fd4d       ?_Lock@?$basic_streambuf@DU?$char_traits@D@std@@@std@@UAEXXZ 00490d4d f   msvcprt:MSVCP140.dll
 0001:0008fd53       ?_Unlock@?$basic_streambuf@DU?$char_traits@D@std@@@std@@UAEXXZ 00490d53 f   msvcprt:MSVCP140.dll
 0001:0008fd59       ?uflow@?$basic_streambuf@DU?$char_traits@D@std@@@std@@MAEHXZ 00490d59 f   msvcprt:MSVCP140.dll
 0001:0008fd5f       ?setbuf@?$basic_streambuf@DU?$char_traits@D@std@@@std@@MAEPAV12@PAD_J@Z 00490d5f f   msvcprt:MSVCP140.dll
 0001:0008fd65       ?sync@?$basic_streambuf@DU?$char_traits@D@std@@@std@@MAEHXZ 00490d65 f   msvcprt:MSVCP140.dll
 0001:0008fd6b       ?imbue@?$basic_streambuf@DU?$char_traits@D@std@@@std@@MAEXABVlocale@2@@Z 00490d6b f   msvcprt:MSVCP140.dll
 0001:0008fd71       @__security_check_cookie@4 00490d71 f   MSVCRT:secchk.obj
 0001:0008fd7f       ??2@YAPAXI@Z               00490d7f f   MSVCRT:new_scalar.obj
 0001:0008fdaf       ??3@YAXPAXI@Z              00490daf f   MSVCRT:delete_scalar_size.obj
 0001:0008fdbd       ??_Etype_info@@UAEPAXI@Z   00490dbd f i MSVCRT:std_type_info_static.obj
 0001:0008fdbd       ??_Gtype_info@@UAEPAXI@Z   00490dbd f i MSVCRT:std_type_info_static.obj
 0001:0008fde0       ??_M@YGXPAXIIP6EX0@Z@Z     00490de0 f   MSVCRT:ehvecdtr.obj
 0001:0008fe65       ?__ArrayUnwind@@YGXPAXIIP6EX0@Z@Z 00490e65 f   MSVCRT:ehvecdtr.obj
 0001:0008ff39       ___scrt_acquire_startup_lock 00490f39 f   MSVCRT:utility.obj
 0001:0008ff6b       ___scrt_initialize_crt     00490f6b f   MSVCRT:utility.obj
 0001:0008ffa4       ___scrt_initialize_onexit_tables 00490fa4 f   MSVCRT:utility.obj
 0001:0009002b       ___scrt_is_nonwritable_in_current_image 0049102b f   MSVCRT:utility.obj
 0001:000900bf       ___scrt_release_startup_lock 004910bf f   MSVCRT:utility.obj
 0001:000900dc       ___scrt_uninitialize_crt   004910dc f   MSVCRT:utility.obj
 0001:00090104       __onexit                   00491104 f   MSVCRT:utility.obj
 0001:00090131       _atexit                    00491131 f   MSVCRT:utility.obj
 0001:0009020b       __Init_thread_abort        0049120b f   MSVCRT:thread_safe_statics.obj
 0001:0009022f       __Init_thread_footer       0049122f f   MSVCRT:thread_safe_statics.obj
 0001:00090279       __Init_thread_header       00491279 f   MSVCRT:thread_safe_statics.obj
 0001:000902cb       __Init_thread_notify       004912cb f   MSVCRT:thread_safe_statics.obj
 0001:00090301       __Init_thread_wait         00491301 f   MSVCRT:thread_safe_statics.obj
 0001:0009034f       ??__C@YGXPAX0IIP6EX00@ZP6EX0@Z@Z 0049134f f   MSVCRT:ehvccctr.obj
 0001:00090610       _mainCRTStartup            00491610 f   MSVCRT:exe_main.obj
 0001:0009061a       ??_L@YGXPAXIIP6EX0@Z1@Z    0049161a f   MSVCRT:ehvecctr.obj
 0001:0009068e       ___isa_available_init      0049168e f   MSVCRT:cpu_disp.obj
 0001:0009085f       ___raise_securityfailure   0049185f f   MSVCRT:gs_report.obj
 0001:00090887       ___report_gsfailure        00491887 f   MSVCRT:gs_report.obj
 0001:00090981       ??0bad_alloc@std@@QAE@XZ   00491981 f i MSVCRT:throw_bad_alloc.obj
 0001:00090999       ?__scrt_throw_std_bad_alloc@@YAXXZ 00491999 f   MSVCRT:throw_bad_alloc.obj
 0001:000909b6       ??3@YAXPAX@Z               004919b6 f   MSVCRT:delete_scalar.obj
 0001:000909c0       __SEH_prolog4              004919c0 f   MSVCRT:sehprolg4.obj
 0001:00090a05       __except_handler4          00491a05 f   MSVCRT:chandler4gs.obj
 0001:00090a34       __get_startup_argv_mode    00491a34 f   MSVCRT:argv_mode.obj
 0001:00090a38       ___scrt_is_ucrt_dll_in_use 00491a38 f   MSVCRT:ucrt_detection.obj
 0001:00090a44       ___scrt_fastfail           00491a44 f   MSVCRT:utility_desktop.obj
 0001:00090b5f       ___scrt_initialize_mta     00491b5f f   MSVCRT:utility_desktop.obj
 0001:00090b64       ___scrt_is_managed_app     00491b64 f   MSVCRT:utility_desktop.obj
 0001:00090ba7       ___scrt_set_unhandled_exception_filter 00491ba7 f   MSVCRT:utility_desktop.obj
 0001:00090bb3       ___scrt_unhandled_exception_filter@4 00491bb3 f   MSVCRT:utility_desktop.obj
 0001:00090c09       __crt_debugger_hook        00491c09 f   MSVCRT:utility_desktop.obj
 0001:00090c5e       ___security_init_cookie    00491c5e f   MSVCRT:gs_support.obj
 0001:00090ca9       __get_startup_file_mode    00491ca9 f   MSVCRT:file_mode.obj
 0001:00090caf       ?__scrt_initialize_type_info@@YAXXZ 00491caf f   MSVCRT:tncleanup.obj
 0001:00090cbb       __should_initialize_environment 00491cbb f   MSVCRT:env_mode.obj
 0001:00090cbb       ___acrt_initialize         00491cbb f   MSVCRT:ucrt_stubs.obj
 0001:00090cbb       ___vcrt_initialize         00491cbb f   MSVCRT:ucrt_stubs.obj
 0001:00090cbb       ___scrt_stub_for_acrt_initialize 00491cbb f   MSVCRT:ucrt_stubs.obj
 0001:00090cbb       ___vcrt_uninitialize       00491cbb f   MSVCRT:ucrt_stubs.obj
 0001:00090cbb       ___acrt_uninitialize       00491cbb f   MSVCRT:ucrt_stubs.obj
 0001:00090cbb       ___scrt_stub_for_acrt_uninitialize 00491cbb f   MSVCRT:ucrt_stubs.obj
 0001:00090cbe       __initialize_default_precision 00491cbe f   MSVCRT:default_precision.obj
 0001:00090cdf       ___local_stdio_scanf_options 00491cdf f i MSVCRT:default_local_stdio_options.obj
 0001:00090ce5       ___scrt_initialize_default_local_stdio_options 00491ce5 f   MSVCRT:default_local_stdio_options.obj
 0001:00090d02       ___scrt_is_user_matherr_present 00491d02 f   MSVCRT:matherr_detection.obj
 0001:00090d0e       ___scrt_get_dyn_tls_init_callback 00491d0e f   MSVCRT:dyn_tls_init.obj
 0001:00090d14       ___scrt_get_dyn_tls_dtor_callback 00491d14 f   MSVCRT:dyn_tls_dtor.obj
 0001:00090d1a       __RTC_Initialize           00491d1a f   MSVCRT:initsect.obj
 0001:00090d46       __RTC_Terminate            00491d46 f   MSVCRT:initsect.obj
 0001:00090d72       ___CxxFrameHandler3        00491d72 f   vcruntime:VCRUNTIME140.dll
 0001:00090d78       ___std_terminate           00491d78 f   vcruntime:VCRUNTIME140.dll
 0001:00090d7e       __purecall                 00491d7e f   vcruntime:VCRUNTIME140.dll
 0001:00090d84       ___current_exception       00491d84 f   vcruntime:VCRUNTIME140.dll
 0001:00090d8a       ___current_exception_context 00491d8a f   vcruntime:VCRUNTIME140.dll
 0001:00090d90       __CxxThrowException@8      00491d90 f   vcruntime:VCRUNTIME140.dll
 0001:00090d96       __except_handler4_common   00491d96 f   vcruntime:VCRUNTIME140.dll
 0001:00090d9c       _memset                    00491d9c f   vcruntime:VCRUNTIME140.dll
 0001:00090da2       _free                      00491da2 f   ucrt:api-ms-win-crt-heap-l1-1-0.dll
 0001:00090da8       _malloc                    00491da8 f   ucrt:api-ms-win-crt-heap-l1-1-0.dll
 0001:00090dae       __callnewh                 00491dae f   ucrt:api-ms-win-crt-heap-l1-1-0.dll
 0001:00090db4       _terminate                 00491db4 f   ucrt:api-ms-win-crt-runtime-l1-1-0.dll
 0001:00090dba       __configure_narrow_argv    00491dba f   ucrt:api-ms-win-crt-runtime-l1-1-0.dll
 0001:00090dc0       __initialize_narrow_environment 00491dc0 f   ucrt:api-ms-win-crt-runtime-l1-1-0.dll
 0001:00090dc6       __initialize_onexit_table  00491dc6 f   ucrt:api-ms-win-crt-runtime-l1-1-0.dll
 0001:00090dcc       __register_onexit_function 00491dcc f   ucrt:api-ms-win-crt-runtime-l1-1-0.dll
 0001:00090dd2       __crt_atexit               00491dd2 f   ucrt:api-ms-win-crt-runtime-l1-1-0.dll
 0001:00090dd8       __cexit                    00491dd8 f   ucrt:api-ms-win-crt-runtime-l1-1-0.dll
 0001:00090dde       __seh_filter_exe           00491dde f   ucrt:api-ms-win-crt-runtime-l1-1-0.dll
 0001:00090de4       __set_app_type             00491de4 f   ucrt:api-ms-win-crt-runtime-l1-1-0.dll
 0001:00090dea       ___setusermatherr          00491dea f   ucrt:api-ms-win-crt-math-l1-1-0.dll
 0001:00090df0       __get_initial_narrow_environment 00491df0 f   ucrt:api-ms-win-crt-runtime-l1-1-0.dll
 0001:00090df6       __initterm                 00491df6 f   ucrt:api-ms-win-crt-runtime-l1-1-0.dll
 0001:00090dfc       __initterm_e               00491dfc f   ucrt:api-ms-win-crt-runtime-l1-1-0.dll
 0001:00090e02       _exit                      00491e02 f   ucrt:api-ms-win-crt-runtime-l1-1-0.dll
 0001:00090e08       __exit                     00491e08 f   ucrt:api-ms-win-crt-runtime-l1-1-0.dll
 0001:00090e0e       __set_fmode                00491e0e f   ucrt:api-ms-win-crt-stdio-l1-1-0.dll
 0001:00090e14       ___p___argc                00491e14 f   ucrt:api-ms-win-crt-runtime-l1-1-0.dll
 0001:00090e1a       ___p___argv                00491e1a f   ucrt:api-ms-win-crt-runtime-l1-1-0.dll
 0001:00090e20       __c_exit                   00491e20 f   ucrt:api-ms-win-crt-runtime-l1-1-0.dll
 0001:00090e26       __register_thread_local_exe_atexit_callback 00491e26 f   ucrt:api-ms-win-crt-runtime-l1-1-0.dll
 0001:00090e2c       __configthreadlocale       00491e2c f   ucrt:api-ms-win-crt-locale-l1-1-0.dll
 0001:00090e32       __set_new_mode             00491e32 f   ucrt:api-ms-win-crt-heap-l1-1-0.dll
 0001:00090e38       ___p__commode              00491e38 f   ucrt:api-ms-win-crt-stdio-l1-1-0.dll
 0001:00090e3e       __controlfp_s              00491e3e f   ucrt:api-ms-win-crt-runtime-l1-1-0.dll
 0001:00090e44       __filter_x86_sse2_floating_point_exception 00491e44 f   MSVCRT:x86_exception_filter.obj
 0001:00090e44       __filter_x86_sse2_floating_point_exception_default 00491e44 f   MSVCRT:x86_exception_filter.obj
 0001:00090ec0       __alldiv                   00491ec0 f   MSVCRT:lldiv.obj
 0001:00090f70       __alldvrm                  00491f70 f   MSVCRT:lldvrm.obj
 0001:00091050       __allmul                   00492050 f   MSVCRT:llmul.obj
 0001:00091090       __aullrem                  00492090 f   MSVCRT:ullrem.obj
 0001:00091110       __chkstk                   00492110 f   MSVCRT:chkstk.obj
 0001:00091110       __alloca_probe             00492110 f   MSVCRT:chkstk.obj
 0001:00091140       __ftoui3                   00492140 f   MSVCRT:ftol3.obj
 0001:00091190       __ultod3                   00492190 f   MSVCRT:ftol3.obj
 0001:000911f0       __ltod3                    004921f0 f   MSVCRT:ftol3.obj
 0001:00091231       _memcpy                    00492231 f   vcruntime:VCRUNTIME140.dll
 0001:00091237       _memmove                   00492237 f   vcruntime:VCRUNTIME140.dll
 0001:0009123d       __CIatan2                  0049223d f   ucrt:api-ms-win-crt-math-l1-1-0.dll
 0001:00091243       __libm_sse2_cos_precise    00492243 f   ucrt:api-ms-win-crt-math-l1-1-0.dll
 0001:00091249       __libm_sse2_pow_precise    00492249 f   ucrt:api-ms-win-crt-math-l1-1-0.dll
 0001:0009124f       __libm_sse2_sin_precise    0049224f f   ucrt:api-ms-win-crt-math-l1-1-0.dll
 0001:00091255       __libm_sse2_sqrt_precise   00492255 f   ucrt:api-ms-win-crt-math-l1-1-0.dll
 0001:0009125b       _ceil                      0049225b f   ucrt:api-ms-win-crt-math-l1-1-0.dll
 0001:0009db40       ??__FNullValue@?5???$?AV?$MemoryPoolAllocator@VCrtAllocator@rapidjson@@@rapidjson@@@?$GenericValue@U?$UTF8@D@rapidjson@@V?$MemoryPoolAllocator@VCrtAllocator@rapidjson@@@2@@rapidjson@@QAEAAV01@ABV01@@Z@YAXXZ 0049eb40 f i JSONTools.obj
 0002:00000000       __imp__QueryPerformanceFrequency@4 004a0000     kernel32:KERNEL32.dll
 0002:00000004       __imp__QueryPerformanceCounter@4 004a0004     kernel32:KERNEL32.dll
 0002:00000008       __imp__ReadFile@20         004a0008     kernel32:KERNEL32.dll
 0002:0000000c       __imp__WriteFile@20        004a000c     kernel32:KERNEL32.dll
 0002:00000010       __imp__CreateFileA@28      004a0010     kernel32:KERNEL32.dll
 0002:00000014       __imp__CloseHandle@4       004a0014     kernel32:KERNEL32.dll
 0002:00000018       __imp__OpenFileMappingA@12 004a0018     kernel32:KERNEL32.dll
 0002:0000001c       __imp__MapViewOfFile@20    004a001c     kernel32:KERNEL32.dll
 0002:00000020       __imp__SetCommTimeouts@8   004a0020     kernel32:KERNEL32.dll
 0002:00000024       __imp__LeaveCriticalSection@4 004a0024     kernel32:KERNEL32.dll
 0002:00000028       __imp__InitializeCriticalSectionAndSpinCount@8 004a0028     kernel32:KERNEL32.dll
 0002:0000002c       __imp__DeleteCriticalSection@4 004a002c     kernel32:KERNEL32.dll
 0002:00000030       __imp__SetEvent@4          004a0030     kernel32:KERNEL32.dll
 0002:00000034       __imp__ResetEvent@4        004a0034     kernel32:KERNEL32.dll
 0002:00000038       __imp__WaitForSingleObjectEx@12 004a0038     kernel32:KERNEL32.dll
 0002:0000003c       __imp__CreateEventW@16     004a003c     kernel32:KERNEL32.dll
 0002:00000040       __imp__GetModuleHandleW@4  004a0040     kernel32:KERNEL32.dll
 0002:00000044       __imp__GetProcAddress@8    004a0044     kernel32:KERNEL32.dll
 0002:00000048       __imp__IsProcessorFeaturePresent@4 004a0048     kernel32:KERNEL32.dll
 0002:0000004c       __imp__UnhandledExceptionFilter@4 004a004c     kernel32:KERNEL32.dll
 0002:00000050       __imp__SetUnhandledExceptionFilter@4 004a0050     kernel32:KERNEL32.dll
 0002:00000054       __imp__GetCurrentProcess@0 004a0054     kernel32:KERNEL32.dll
 0002:00000058       __imp__TerminateProcess@8  004a0058     kernel32:KERNEL32.dll
 0002:0000005c       __imp__IsDebuggerPresent@0 004a005c     kernel32:KERNEL32.dll
 0002:00000060       __imp__GetCurrentProcessId@0 004a0060     kernel32:KERNEL32.dll
 0002:00000064       __imp__GetCurrentThreadId@0 004a0064     kernel32:KERNEL32.dll
 0002:00000068       __imp__GetSystemTimeAsFileTime@4 004a0068     kernel32:KERNEL32.dll
 0002:0000006c       __imp__InitializeSListHead@4 004a006c     kernel32:KERNEL32.dll
 0002:00000070       __imp__EnterCriticalSection@4 004a0070     kernel32:KERNEL32.dll
 0002:00000074       \177KERNEL32_NULL_THUNK_DATA 004a0074     kernel32:KERNEL32.dll
 0002:00000078       __imp_?_Xout_of_range@std@@YAXPBD@Z 004a0078     msvcprt:MSVCP140.dll
 0002:0000007c       __imp_??1_Lockit@std@@QAE@XZ 004a007c     msvcprt:MSVCP140.dll
 0002:00000080       __imp_??0_Lockit@std@@QAE@H@Z 004a0080     msvcprt:MSVCP140.dll
 0002:00000084       __imp_?_Getgloballocale@locale@std@@CAPAV_Locimp@12@XZ 004a0084     msvcprt:MSVCP140.dll
 0002:00000088       __imp_?id@?$codecvt@DDU_Mbstatet@@@std@@2V0locale@2@A 004a0088     msvcprt:MSVCP140.dll
 0002:0000008c       __imp_?_Fiopen@std@@YAPAU_iobuf@@PBDHH@Z 004a008c     msvcprt:MSVCP140.dll
 0002:00000090       __imp_?_Getcat@?$codecvt@DDU_Mbstatet@@@std@@SAIPAPBVfacet@locale@2@PBV42@@Z 004a0090     msvcprt:MSVCP140.dll
 0002:00000094       __imp_??0?$basic_streambuf@DU?$char_traits@D@std@@@std@@IAE@XZ 004a0094     msvcprt:MSVCP140.dll
 0002:00000098       __imp_?getloc@?$basic_streambuf@DU?$char_traits@D@std@@@std@@QBE?AVlocale@2@XZ 004a0098     msvcprt:MSVCP140.dll
 0002:0000009c       __imp_?unshift@?$codecvt@DDU_Mbstatet@@@std@@QBEHAAU_Mbstatet@@PAD1AAPAD@Z 004a009c     msvcprt:MSVCP140.dll
 0002:000000a0       __imp_?_Init@?$basic_streambuf@DU?$char_traits@D@std@@@std@@IAEXXZ 004a00a0     msvcprt:MSVCP140.dll
 0002:000000a4       __imp_??0?$basic_ios@DU?$char_traits@D@std@@@std@@IAE@XZ 004a00a4     msvcprt:MSVCP140.dll
 0002:000000a8       __imp_??0?$basic_ostream@DU?$char_traits@D@std@@@std@@QAE@PAV?$basic_streambuf@DU?$char_traits@D@std@@@1@_N@Z 004a00a8     msvcprt:MSVCP140.dll
 0002:000000ac       __imp_?in@?$codecvt@DDU_Mbstatet@@@std@@QBEHAAU_Mbstatet@@PBD1AAPBDPAD3AAPAD@Z 004a00ac     msvcprt:MSVCP140.dll
 0002:000000b0       __imp_?out@?$codecvt@DDU_Mbstatet@@@std@@QBEHAAU_Mbstatet@@PBD1AAPBDPAD3AAPAD@Z 004a00b0     msvcprt:MSVCP140.dll
 0002:000000b4       __imp_?_Pninc@?$basic_streambuf@DU?$char_traits@D@std@@@std@@IAEPADXZ 004a00b4     msvcprt:MSVCP140.dll
 0002:000000b8       __imp_??1?$basic_streambuf@DU?$char_traits@D@std@@@std@@UAE@XZ 004a00b8     msvcprt:MSVCP140.dll
 0002:000000bc       __imp_?showmanyc@?$basic_streambuf@DU?$char_traits@D@std@@@std@@MAE_JXZ 004a00bc     msvcprt:MSVCP140.dll
 0002:000000c0       __imp_?xsgetn@?$basic_streambuf@DU?$char_traits@D@std@@@std@@MAE_JPAD_J@Z 004a00c0     msvcprt:MSVCP140.dll
 0002:000000c4       __imp_?xsputn@?$basic_streambuf@DU?$char_traits@D@std@@@std@@MAE_JPBD_J@Z 004a00c4     msvcprt:MSVCP140.dll
 0002:000000c8       __imp_??1?$basic_ios@DU?$char_traits@D@std@@@std@@UAE@XZ 004a00c8     msvcprt:MSVCP140.dll
 0002:000000cc       __imp_??1?$basic_ostream@DU?$char_traits@D@std@@@std@@UAE@XZ 004a00cc     msvcprt:MSVCP140.dll
 0002:000000d0       __imp_?sputc@?$basic_streambuf@DU?$char_traits@D@std@@@std@@QAEHD@Z 004a00d0     msvcprt:MSVCP140.dll
 0002:000000d4       __imp_?always_noconv@codecvt_base@std@@QBE_NXZ 004a00d4     msvcprt:MSVCP140.dll
 0002:000000d8       __imp_??Bid@locale@std@@QAEIXZ 004a00d8     msvcprt:MSVCP140.dll
 0002:000000dc       __imp_??0?$basic_iostream@DU?$char_traits@D@std@@@std@@QAE@PAV?$basic_streambuf@DU?$char_traits@D@std@@@1@@Z 004a00dc     msvcprt:MSVCP140.dll
 0002:000000e0       __imp_?_Lock@?$basic_streambuf@DU?$char_traits@D@std@@@std@@UAEXXZ 004a00e0     msvcprt:MSVCP140.dll
 0002:000000e4       __imp_?_Unlock@?$basic_streambuf@DU?$char_traits@D@std@@@std@@UAEXXZ 004a00e4     msvcprt:MSVCP140.dll
 0002:000000e8       __imp_?uflow@?$basic_streambuf@DU?$char_traits@D@std@@@std@@MAEHXZ 004a00e8     msvcprt:MSVCP140.dll
 0002:000000ec       __imp_?setbuf@?$basic_streambuf@DU?$char_traits@D@std@@@std@@MAEPAV12@PAD_J@Z 004a00ec     msvcprt:MSVCP140.dll
 0002:000000f0       __imp_?sync@?$basic_streambuf@DU?$char_traits@D@std@@@std@@MAEHXZ 004a00f0     msvcprt:MSVCP140.dll
 0002:000000f4       __imp_?imbue@?$basic_streambuf@DU?$char_traits@D@std@@@std@@MAEXABVlocale@2@@Z 004a00f4     msvcprt:MSVCP140.dll
 0002:000000f8       __imp_??6?$basic_ostream@DU?$char_traits@D@std@@@std@@QAEAAV01@I@Z 004a00f8     msvcprt:MSVCP140.dll
 0002:000000fc       __imp_??1?$basic_iostream@DU?$char_traits@D@std@@@std@@UAE@XZ 004a00fc     msvcprt:MSVCP140.dll
 0002:00000100       __imp_?cout@std@@3V?$basic_ostream@DU?$char_traits@D@std@@@1@A 004a0100     msvcprt:MSVCP140.dll
 0002:00000104       __imp_??6?$basic_ostream@DU?$char_traits@D@std@@@std@@QAEAAV01@P6AAAV01@AAV01@@Z@Z 004a0104     msvcprt:MSVCP140.dll
 0002:00000108       __imp___Query_perf_frequency 004a0108     msvcprt:MSVCP140.dll
 0002:0000010c       __imp_?cerr@std@@3V?$basic_ostream@DU?$char_traits@D@std@@@1@A 004a010c     msvcprt:MSVCP140.dll
 0002:00000110       __imp___Thrd_sleep         004a0110     msvcprt:MSVCP140.dll
 0002:00000114       __imp___Query_perf_counter 004a0114     msvcprt:MSVCP140.dll
 0002:00000118       __imp___Xtime_get_ticks    004a0118     msvcprt:MSVCP140.dll
 0002:0000011c       __imp_?clear@?$basic_ios@DU?$char_traits@D@std@@@std@@QAEXH_N@Z 004a011c     msvcprt:MSVCP140.dll
 0002:00000120       __imp_??6?$basic_ostream@DU?$char_traits@D@std@@@std@@QAEAAV01@_N@Z 004a0120     msvcprt:MSVCP140.dll
 0002:00000124       __imp_?id@?$ctype@D@std@@2V0locale@2@A 004a0124     msvcprt:MSVCP140.dll
 0002:00000128       __imp_?snextc@?$basic_streambuf@DU?$char_traits@D@std@@@std@@QAEHXZ 004a0128     msvcprt:MSVCP140.dll
 0002:0000012c       __imp_?_Ipfx@?$basic_istream@DU?$char_traits@D@std@@@std@@QAE_N_N@Z 004a012c     msvcprt:MSVCP140.dll
 0002:00000130       __imp_?sgetc@?$basic_streambuf@DU?$char_traits@D@std@@@std@@QAEHXZ 004a0130     msvcprt:MSVCP140.dll
 0002:00000134       __imp_??5?$basic_istream@DU?$char_traits@D@std@@@std@@QAEAAV01@AAH@Z 004a0134     msvcprt:MSVCP140.dll
 0002:00000138       __imp_?getloc@ios_base@std@@QBE?AVlocale@2@XZ 004a0138     msvcprt:MSVCP140.dll
 0002:0000013c       __imp_?_Getcat@?$ctype@D@std@@SAIPAPBVfacet@locale@2@PBV42@@Z 004a013c     msvcprt:MSVCP140.dll
 0002:00000140       __imp_?_Xbad_function_call@std@@YAXXZ 004a0140     msvcprt:MSVCP140.dll
 0002:00000144       __imp_??0?$basic_istream@DU?$char_traits@D@std@@@std@@QAE@PAV?$basic_streambuf@DU?$char_traits@D@std@@@1@_N@Z 004a0144     msvcprt:MSVCP140.dll
 0002:00000148       __imp_??1?$basic_istream@DU?$char_traits@D@std@@@std@@UAE@XZ 004a0148     msvcprt:MSVCP140.dll
 0002:0000014c       __imp_?_Xbad_alloc@std@@YAXXZ 004a014c     msvcprt:MSVCP140.dll
 0002:00000150       __imp_?_Xlength_error@std@@YAXPBD@Z 004a0150     msvcprt:MSVCP140.dll
 0002:00000154       __imp_?uncaught_exception@std@@YA_NXZ 004a0154     msvcprt:MSVCP140.dll
 0002:00000158       __imp_?sputn@?$basic_streambuf@DU?$char_traits@D@std@@@std@@QAE_JPBD_J@Z 004a0158     msvcprt:MSVCP140.dll
 0002:0000015c       __imp_?_Osfx@?$basic_ostream@DU?$char_traits@D@std@@@std@@QAEXXZ 004a015c     msvcprt:MSVCP140.dll
 0002:00000160       __imp_?setstate@?$basic_ios@DU?$char_traits@D@std@@@std@@QAEXH_N@Z 004a0160     msvcprt:MSVCP140.dll
 0002:00000164       __imp_?flush@?$basic_ostream@DU?$char_traits@D@std@@@std@@QAEAAV12@XZ 004a0164     msvcprt:MSVCP140.dll
 0002:00000168       __imp_?put@?$basic_ostream@DU?$char_traits@D@std@@@std@@QAEAAV12@D@Z 004a0168     msvcprt:MSVCP140.dll
 0002:0000016c       __imp_??6?$basic_ostream@DU?$char_traits@D@std@@@std@@QAEAAV01@H@Z 004a016c     msvcprt:MSVCP140.dll
 0002:00000170       __imp_?widen@?$basic_ios@DU?$char_traits@D@std@@@std@@QBEDD@Z 004a0170     msvcprt:MSVCP140.dll
 0002:00000174       \177MSVCP140_NULL_THUNK_DATA 004a0174     msvcprt:MSVCP140.dll
 0002:00000178       __imp__memset              004a0178     vcruntime:VCRUNTIME140.dll
 0002:0000017c       __imp___except_handler4_common 004a017c     vcruntime:VCRUNTIME140.dll
 0002:00000180       __imp___CxxThrowException@8 004a0180     vcruntime:VCRUNTIME140.dll
 0002:00000184       __imp____current_exception_context 004a0184     vcruntime:VCRUNTIME140.dll
 0002:00000188       __imp__memmove             004a0188     vcruntime:VCRUNTIME140.dll
 0002:0000018c       __imp___purecall           004a018c     vcruntime:VCRUNTIME140.dll
 0002:00000190       __imp____std_terminate     004a0190     vcruntime:VCRUNTIME140.dll
 0002:00000194       __imp____std_exception_copy 004a0194     vcruntime:VCRUNTIME140.dll
 0002:00000198       __imp____std_exception_destroy 004a0198     vcruntime:VCRUNTIME140.dll
 0002:0000019c       __imp____CxxFrameHandler3  004a019c     vcruntime:VCRUNTIME140.dll
 0002:000001a0       __imp____current_exception 004a01a0     vcruntime:VCRUNTIME140.dll
 0002:000001a4       __imp__memcpy              004a01a4     vcruntime:VCRUNTIME140.dll
 0002:000001a8       \177VCRUNTIME140_NULL_THUNK_DATA 004a01a8     vcruntime:VCRUNTIME140.dll
 0002:000001ac       __imp___unlock_file        004a01ac     ucrt:api-ms-win-crt-filesystem-l1-1-0.dll
 0002:000001b0       __imp___lock_file          004a01b0     ucrt:api-ms-win-crt-filesystem-l1-1-0.dll
 0002:000001b4       \177api-ms-win-crt-filesystem-l1-1-0_NULL_THUNK_DATA 004a01b4     ucrt:api-ms-win-crt-filesystem-l1-1-0.dll
 0002:000001b8       __imp__free                004a01b8     ucrt:api-ms-win-crt-heap-l1-1-0.dll
 0002:000001bc       __imp___set_new_mode       004a01bc     ucrt:api-ms-win-crt-heap-l1-1-0.dll
 0002:000001c0       __imp__realloc             004a01c0     ucrt:api-ms-win-crt-heap-l1-1-0.dll
 0002:000001c4       __imp___callnewh           004a01c4     ucrt:api-ms-win-crt-heap-l1-1-0.dll
 0002:000001c8       __imp__malloc              004a01c8     ucrt:api-ms-win-crt-heap-l1-1-0.dll
 0002:000001cc       \177api-ms-win-crt-heap-l1-1-0_NULL_THUNK_DATA 004a01cc     ucrt:api-ms-win-crt-heap-l1-1-0.dll
 0002:000001d0       __imp___configthreadlocale 004a01d0     ucrt:api-ms-win-crt-locale-l1-1-0.dll
 0002:000001d4       \177api-ms-win-crt-locale-l1-1-0_NULL_THUNK_DATA 004a01d4     ucrt:api-ms-win-crt-locale-l1-1-0.dll
 0002:000001d8       __imp___libm_sse2_cos_precise 004a01d8     ucrt:api-ms-win-crt-math-l1-1-0.dll
 0002:000001dc       __imp__ceil                004a01dc     ucrt:api-ms-win-crt-math-l1-1-0.dll
 0002:000001e0       __imp__round               004a01e0     ucrt:api-ms-win-crt-math-l1-1-0.dll
 0002:000001e4       __imp___libm_sse2_sin_precise 004a01e4     ucrt:api-ms-win-crt-math-l1-1-0.dll
 0002:000001e8       __imp___libm_sse2_pow_precise 004a01e8     ucrt:api-ms-win-crt-math-l1-1-0.dll
 0002:000001ec       __imp___CIatan2            004a01ec     ucrt:api-ms-win-crt-math-l1-1-0.dll
 0002:000001f0       __imp___libm_sse2_sqrt_precise 004a01f0     ucrt:api-ms-win-crt-math-l1-1-0.dll
 0002:000001f4       __imp____setusermatherr    004a01f4     ucrt:api-ms-win-crt-math-l1-1-0.dll
 0002:000001f8       \177api-ms-win-crt-math-l1-1-0_NULL_THUNK_DATA 004a01f8     ucrt:api-ms-win-crt-math-l1-1-0.dll
 0002:000001fc       __imp___crt_atexit         004a01fc     ucrt:api-ms-win-crt-runtime-l1-1-0.dll
 0002:00000200       __imp___seh_filter_exe     004a0200     ucrt:api-ms-win-crt-runtime-l1-1-0.dll
 0002:00000204       __imp___set_app_type       004a0204     ucrt:api-ms-win-crt-runtime-l1-1-0.dll
 0002:00000208       __imp___get_initial_narrow_environment 004a0208     ucrt:api-ms-win-crt-runtime-l1-1-0.dll
 0002:0000020c       __imp___initterm           004a020c     ucrt:api-ms-win-crt-runtime-l1-1-0.dll
 0002:00000210       __imp___initterm_e         004a0210     ucrt:api-ms-win-crt-runtime-l1-1-0.dll
 0002:00000214       __imp__exit                004a0214     ucrt:api-ms-win-crt-runtime-l1-1-0.dll
 0002:00000218       __imp___exit               004a0218     ucrt:api-ms-win-crt-runtime-l1-1-0.dll
 0002:0000021c       __imp___register_onexit_function 004a021c     ucrt:api-ms-win-crt-runtime-l1-1-0.dll
 0002:00000220       __imp____p___argc          004a0220     ucrt:api-ms-win-crt-runtime-l1-1-0.dll
 0002:00000224       __imp____p___argv          004a0224     ucrt:api-ms-win-crt-runtime-l1-1-0.dll
 0002:00000228       __imp___c_exit             004a0228     ucrt:api-ms-win-crt-runtime-l1-1-0.dll
 0002:0000022c       __imp___register_thread_local_exe_atexit_callback 004a022c     ucrt:api-ms-win-crt-runtime-l1-1-0.dll
 0002:00000230       __imp___initialize_onexit_table 004a0230     ucrt:api-ms-win-crt-runtime-l1-1-0.dll
 0002:00000234       __imp___initialize_narrow_environment 004a0234     ucrt:api-ms-win-crt-runtime-l1-1-0.dll
 0002:00000238       __imp___configure_narrow_argv 004a0238     ucrt:api-ms-win-crt-runtime-l1-1-0.dll
 0002:0000023c       __imp___controlfp_s        004a023c     ucrt:api-ms-win-crt-runtime-l1-1-0.dll
 0002:00000240       __imp__terminate           004a0240     ucrt:api-ms-win-crt-runtime-l1-1-0.dll
 0002:00000244       __imp___invalid_parameter_noinfo_noreturn 004a0244     ucrt:api-ms-win-crt-runtime-l1-1-0.dll
 0002:00000248       __imp___cexit              004a0248     ucrt:api-ms-win-crt-runtime-l1-1-0.dll
 0002:0000024c       \177api-ms-win-crt-runtime-l1-1-0_NULL_THUNK_DATA 004a024c     ucrt:api-ms-win-crt-runtime-l1-1-0.dll
 0002:00000250       __imp____acrt_iob_func     004a0250     ucrt:api-ms-win-crt-stdio-l1-1-0.dll
 0002:00000254       __imp____stdio_common_vfprintf 004a0254     ucrt:api-ms-win-crt-stdio-l1-1-0.dll
 0002:00000258       __imp____stdio_common_vsprintf 004a0258     ucrt:api-ms-win-crt-stdio-l1-1-0.dll
 0002:0000025c       __imp___set_fmode          004a025c     ucrt:api-ms-win-crt-stdio-l1-1-0.dll
 0002:00000260       __imp____p__commode        004a0260     ucrt:api-ms-win-crt-stdio-l1-1-0.dll
 0002:00000264       __imp__fgets               004a0264     ucrt:api-ms-win-crt-stdio-l1-1-0.dll
 0002:00000268       __imp____stdio_common_vsnprintf_s 004a0268     ucrt:api-ms-win-crt-stdio-l1-1-0.dll
 0002:0000026c       __imp__fopen               004a026c     ucrt:api-ms-win-crt-stdio-l1-1-0.dll
 0002:00000270       __imp___get_stream_buffer_pointers 004a0270     ucrt:api-ms-win-crt-stdio-l1-1-0.dll
 0002:00000274       __imp___fseeki64           004a0274     ucrt:api-ms-win-crt-stdio-l1-1-0.dll
 0002:00000278       __imp__fread               004a0278     ucrt:api-ms-win-crt-stdio-l1-1-0.dll
 0002:0000027c       __imp__fsetpos             004a027c     ucrt:api-ms-win-crt-stdio-l1-1-0.dll
 0002:00000280       __imp__ungetc              004a0280     ucrt:api-ms-win-crt-stdio-l1-1-0.dll
 0002:00000284       __imp__setvbuf             004a0284     ucrt:api-ms-win-crt-stdio-l1-1-0.dll
 0002:00000288       __imp__fgetpos             004a0288     ucrt:api-ms-win-crt-stdio-l1-1-0.dll
 0002:0000028c       __imp__fwrite              004a028c     ucrt:api-ms-win-crt-stdio-l1-1-0.dll
 0002:00000290       __imp__fflush              004a0290     ucrt:api-ms-win-crt-stdio-l1-1-0.dll
 0002:00000294       __imp____stdio_common_vsprintf_s 004a0294     ucrt:api-ms-win-crt-stdio-l1-1-0.dll
 0002:00000298       __imp__fgetc               004a0298     ucrt:api-ms-win-crt-stdio-l1-1-0.dll
 0002:0000029c       __imp__fclose              004a029c     ucrt:api-ms-win-crt-stdio-l1-1-0.dll
 0002:000002a0       __imp__fputc               004a02a0     ucrt:api-ms-win-crt-stdio-l1-1-0.dll
 0002:000002a4       \177api-ms-win-crt-stdio-l1-1-0_NULL_THUNK_DATA 004a02a4     ucrt:api-ms-win-crt-stdio-l1-1-0.dll
 0002:000002a8       __imp__strncpy             004a02a8     ucrt:api-ms-win-crt-string-l1-1-0.dll
 0002:000002ac       __imp__tolower             004a02ac     ucrt:api-ms-win-crt-string-l1-1-0.dll
 0002:000002b0       \177api-ms-win-crt-string-l1-1-0_NULL_THUNK_DATA 004a02b0     ucrt:api-ms-win-crt-string-l1-1-0.dll
 0002:000002b4       __imp___time64             004a02b4     ucrt:api-ms-win-crt-time-l1-1-0.dll
 0002:000002b8       __imp___localtime64_s      004a02b8     ucrt:api-ms-win-crt-time-l1-1-0.dll
 0002:000002bc       __imp__strftime            004a02bc     ucrt:api-ms-win-crt-time-l1-1-0.dll
 0002:000002c0       __imp___localtime64        004a02c0     ucrt:api-ms-win-crt-time-l1-1-0.dll
 0002:000002c4       \177api-ms-win-crt-time-l1-1-0_NULL_THUNK_DATA 004a02c4     ucrt:api-ms-win-crt-time-l1-1-0.dll
 0002:000002c8       __imp__rand                004a02c8     ucrt:api-ms-win-crt-utility-l1-1-0.dll
 0002:000002cc       __imp__srand               004a02cc     ucrt:api-ms-win-crt-utility-l1-1-0.dll
 0002:000002d0       \177api-ms-win-crt-utility-l1-1-0_NULL_THUNK_DATA 004a02d0     ucrt:api-ms-win-crt-utility-l1-1-0.dll
 0002:000002d4       ___guard_check_icall_fptr  004a02d4     MSVCRT:guard_support.obj
 0002:000002d8       ___xc_a                    004a02d8     MSVCRT:initializers.obj
 0002:00000428       ___xc_z                    004a0428     MSVCRT:initializers.obj
 0002:0000042c       ___xi_a                    004a042c     MSVCRT:initializers.obj
 0002:0000043c       ___xi_z                    004a043c     MSVCRT:initializers.obj
 0002:00000440       ___xl_a                    004a0440     MSVCRT:tlssup.obj
 0002:00000444       ___xl_z                    004a0444     MSVCRT:tlssup.obj
 0002:00000448       ___xp_a                    004a0448     MSVCRT:initializers.obj
 0002:0000044c       ___xp_z                    004a044c     MSVCRT:initializers.obj
 0002:00000450       ___xt_a                    004a0450     MSVCRT:initializers.obj
 0002:00000454       ___xt_z                    004a0454     MSVCRT:initializers.obj
 0002:00000464       ??_7type_info@@6B@         004a0464     MSVCRT:std_type_info_static.obj
 0002:00000468       ??_C@_1EC@JIJBPKFM@?$AAa?$AAp?$AAi?$AA?9?$AAm?$AAs?$AA?9?$AAw?$AAi?$AAn?$AA?9?$AAc?$AAo?$AAr?$AAe@ 004a0468     MSVCRT:thread_safe_statics.obj
 0002:000004ac       ??_C@_1BK@MGMFAEKH@?$AAk?$AAe?$AAr?$AAn?$AAe?$AAl?$AA3?$AA2?$AA?4?$AAd?$AAl?$AAl@ 004a04ac     MSVCRT:thread_safe_statics.obj
 0002:000004c8       ??_C@_0BJ@JEBJOJFJ@SleepConditionVariableCS@ 004a04c8     MSVCRT:thread_safe_statics.obj
 0002:000004e4       ??_C@_0BJ@PGPPEPCC@WakeAllConditionVariable@ 004a04e4     MSVCRT:thread_safe_statics.obj
 0002:0000050c       ??_7exception@std@@6B@     004a050c     MSVCRT:throw_bad_alloc.obj
 0002:00000518       ??_7bad_alloc@std@@6B@     004a0518     MSVCRT:throw_bad_alloc.obj
 0002:00000520       ??_C@_0P@GHFPNOJB@bad?5allocation@ 004a0520     MSVCRT:throw_bad_alloc.obj
 0002:00000534       ??_7bad_array_new_length@std@@6B@ 004a0534     MSVCRT:throw_bad_alloc.obj
 0002:0000053c       ??_C@_0BC@EOODALEL@Unknown?5exception@ 004a053c     area.obj
 0002:00000550       ??_C@_0BF@KINCDENJ@bad?5array?5new?5length@ 004a0550     area.obj
 0002:00000568       ??_C@_0BB@GCADKGJO@map?1set?5too?5long@ 004a0568     area.obj
 0002:0000057c       ??_C@_0BA@FOIKENOD@vector?5too?5long@ 004a057c     area.obj
 0002:0000058c       ??_C@_0BC@KBDMBKEH@deque?$DMT?$DO?5too?5long@ 004a058c     area.obj
 0002:00000828       ?veryHighGround@Color@MapDrawer@utils@BWEM@@2V1BWAPI@@B 004a0828     mapDrawer.obj
 0002:0000082c       ?highGround@Color@MapDrawer@utils@BWEM@@2V1BWAPI@@B 004a082c     mapDrawer.obj
 0002:000008a4       ?blockingCP@MiniTile@BWEM@@0FB 004a08a4     tiles.obj
 0002:00002378       ?ColorLineTarget@Debug@Config@@3VColor@BWAPI@@A 004a2378     Config.obj
 0002:0000237c       ?ColorUnitNearEnemy@Debug@Config@@3VColor@BWAPI@@A 004a237c     Config.obj
 0002:00002380       ?ColorUnitNotNearEnemy@Debug@Config@@3VColor@BWAPI@@A 004a2380     Config.obj
 0002:00002384       ?BOSSTimePerFrame@Macro@Config@@3HA 004a2384     Config.obj
 0002:0000ff28       ?damageMultipliers@SparCraft@@3QAY05$$CBMA 004aff28     SparCraft:WeaponProperties.obj
 0002:0000fffc       ?pixelShift@SparCraft@@3HB 004afffc     SparCraft:WeaponProperties.obj
 0002:00014b50       ?gDirections@BWAPI@@3PAV?$Point@H$0CA@@1@A 004b4b50     BWAPILIB:Game.obj
 0002:00014e70       ?EnsnareTime@Filter@BWAPI@@3V?$CompareFilter@PAVUnitInterface@BWAPI@@HP6AHPAV12@@Z@2@B 004b4e70     BWAPILIB:Filters.obj
 0002:00014e74       ?IsHero@Filter@BWAPI@@3V?$UnaryFilter@PAVUnitInterface@BWAPI@@P6A_NPAV12@@Z@2@B 004b4e74     BWAPILIB:Filters.obj
 0002:00014e78       ?IsPatrolling@Filter@BWAPI@@3V?$UnaryFilter@PAVUnitInterface@BWAPI@@P6A_NPAV12@@Z@2@B 004b4e78     BWAPILIB:Filters.obj
 0002:00014e7c       ?IsHallucination@Filter@BWAPI@@3V?$UnaryFilter@PAVUnitInterface@BWAPI@@P6A_NPAV12@@Z@2@B 004b4e7c     BWAPILIB:Filters.obj
 0002:00014e80       ?CanAttack@Filter@BWAPI@@3V?$UnaryFilter@PAVUnitInterface@BWAPI@@P6A_NPAV12@@Z@2@B 004b4e80     BWAPILIB:Filters.obj
 0002:00014e84       ?SizeType@Filter@BWAPI@@3V?$CompareFilter@PAVUnitInterface@BWAPI@@VUnitSizeType@2@P6A?AV32@PAV12@@Z@2@B 004b4e84     BWAPILIB:Filters.obj
 0002:00014e88       ?IsLockedDown@Filter@BWAPI@@3V?$UnaryFilter@PAVUnitInterface@BWAPI@@P6A_NPAV12@@Z@2@B 004b4e88     BWAPILIB:Filters.obj
 0002:00014e8c       ?Target@Filter@BWAPI@@3V?$CompareFilter@PAVUnitInterface@BWAPI@@PAV12@P6APAV12@PAV12@@Z@2@B 004b4e8c     BWAPILIB:Filters.obj
 0002:00014e90       ?IsBurrowable@Filter@BWAPI@@3V?$UnaryFilter@PAVUnitInterface@BWAPI@@P6A_NPAV12@@Z@2@B 004b4e90     BWAPILIB:Filters.obj
 0002:00014e94       ?GetRace@Filter@BWAPI@@3V?$CompareFilter@PAVUnitInterface@BWAPI@@VRace@2@P6A?AV32@PAV12@@Z@2@B 004b4e94     BWAPILIB:Filters.obj
 0002:00014e98       ?IsNeutral@Filter@BWAPI@@3V?$UnaryFilter@PAVUnitInterface@BWAPI@@P6A_NPAV12@@Z@2@B 004b4e98     BWAPILIB:Filters.obj
 0002:00014e9c       ?IsGatheringGas@Filter@BWAPI@@3V?$UnaryFilter@PAVUnitInterface@BWAPI@@P6A_NPAV12@@Z@2@B 004b4e9c     BWAPILIB:Filters.obj
 0002:00014ea0       ?IsIrradiated@Filter@BWAPI@@3V?$UnaryFilter@PAVUnitInterface@BWAPI@@P6A_NPAV12@@Z@2@B 004b4ea0     BWAPILIB:Filters.obj
 0002:00014ea4       ?BuildType@Filter@BWAPI@@3V?$CompareFilter@PAVUnitInterface@BWAPI@@VUnitType@2@P6A?AV32@PAV12@@Z@2@B 004b4ea4     BWAPILIB:Filters.obj
 0002:00014ec0       ?MaxWeaponCooldown@Filter@BWAPI@@3V?$CompareFilter@PAVUnitInterface@BWAPI@@HP6AHPAV12@@Z@2@B 004b4ec0     BWAPILIB:Filters.obj
 0002:00014ec4       ?IsStasised@Filter@BWAPI@@3V?$UnaryFilter@PAVUnitInterface@BWAPI@@P6A_NPAV12@@Z@2@B 004b4ec4     BWAPILIB:Filters.obj
 0002:00014ec8       ?SupplyProvided@Filter@BWAPI@@3V?$CompareFilter@PAVUnitInterface@BWAPI@@HP6AHPAV12@@Z@2@B 004b4ec8     BWAPILIB:Filters.obj
 0002:00014ecc       ?RequiresCreep@Filter@BWAPI@@3V?$UnaryFilter@PAVUnitInterface@BWAPI@@P6A_NPAV12@@Z@2@B 004b4ecc     BWAPILIB:Filters.obj
 0002:00014ed0       ?IsBlind@Filter@BWAPI@@3V?$UnaryFilter@PAVUnitInterface@BWAPI@@P6A_NPAV12@@Z@2@B 004b4ed0     BWAPILIB:Filters.obj
 0002:00014ed4       ?Resources@Filter@BWAPI@@3V?$CompareFilter@PAVUnitInterface@BWAPI@@HP6AHPAV12@@Z@2@B 004b4ed4     BWAPILIB:Filters.obj
 0002:00014ed8       ?AcidSporeCount@Filter@BWAPI@@3V?$CompareFilter@PAVUnitInterface@BWAPI@@HP6AHPAV12@@Z@2@B 004b4ed8     BWAPILIB:Filters.obj
 0002:00014edc       ?IsSpecialBuilding@Filter@BWAPI@@3V?$UnaryFilter@PAVUnitInterface@BWAPI@@P6A_NPAV12@@Z@2@B 004b4edc     BWAPILIB:Filters.obj
 0002:00014ee0       ?IsAttacking@Filter@BWAPI@@3V?$UnaryFilter@PAVUnitInterface@BWAPI@@P6A_NPAV12@@Z@2@B 004b4ee0     BWAPILIB:Filters.obj
 0002:00014ee4       ?StasisTime@Filter@BWAPI@@3V?$CompareFilter@PAVUnitInterface@BWAPI@@HP6AHPAV12@@Z@2@B 004b4ee4     BWAPILIB:Filters.obj
 0002:00014ee8       ?SecondaryOrder@Filter@BWAPI@@3V?$CompareFilter@PAVUnitInterface@BWAPI@@VOrder@2@P6A?AV32@PAV12@@Z@2@B 004b4ee8     BWAPILIB:Filters.obj
 0002:00014eec       ?GetPlayer@Filter@BWAPI@@3V?$CompareFilter@PAVUnitInterface@BWAPI@@PAVPlayerInterface@2@P6APAV32@PAV12@@Z@2@B 004b4eec     BWAPILIB:Filters.obj
 0002:00014ef0       ?SpiderMineCount@Filter@BWAPI@@3V?$CompareFilter@PAVUnitInterface@BWAPI@@HP6AHPAV12@@Z@2@B 004b4ef0     BWAPILIB:Filters.obj
 0002:00014ef4       ?IsOrganic@Filter@BWAPI@@3V?$UnaryFilter@PAVUnitInterface@BWAPI@@P6A_NPAV12@@Z@2@B 004b4ef4     BWAPILIB:Filters.obj
 0002:00014ef8       ?RegeneratesHP@Filter@BWAPI@@3V?$UnaryFilter@PAVUnitInterface@BWAPI@@P6A_NPAV12@@Z@2@B 004b4ef8     BWAPILIB:Filters.obj
 0002:00014efc       ?OrderTime@Filter@BWAPI@@3V?$CompareFilter@PAVUnitInterface@BWAPI@@HP6AHPAV12@@Z@2@B 004b4efc     BWAPILIB:Filters.obj
 0002:00014f00       ?SightRange@Filter@BWAPI@@3V?$CompareFilter@PAVUnitInterface@BWAPI@@HP6AHPAV12@@Z@2@B 004b4f00     BWAPILIB:Filters.obj
 0002:00014f04       ?LockdownTime@Filter@BWAPI@@3V?$CompareFilter@PAVUnitInterface@BWAPI@@HP6AHPAV12@@Z@2@B 004b4f04     BWAPILIB:Filters.obj
 0002:00014f08       ?IsUnderStorm@Filter@BWAPI@@3V?$UnaryFilter@PAVUnitInterface@BWAPI@@P6A_NPAV12@@Z@2@B 004b4f08     BWAPILIB:Filters.obj
 0002:00014f0c       ?MineralPrice@Filter@BWAPI@@3V?$CompareFilter@PAVUnitInterface@BWAPI@@HP6AHPAV12@@Z@2@B 004b4f0c     BWAPILIB:Filters.obj
 0002:00014f10       ?IsBeingHealed@Filter@BWAPI@@3V?$UnaryFilter@PAVUnitInterface@BWAPI@@P6A_NPAV12@@Z@2@B 004b4f10     BWAPILIB:Filters.obj
 0002:00014f14       ?IsBraking@Filter@BWAPI@@3V?$UnaryFilter@PAVUnitInterface@BWAPI@@P6A_NPAV12@@Z@2@B 004b4f14     BWAPILIB:Filters.obj
 0002:00014f18       ?IsResearching@Filter@BWAPI@@3V?$UnaryFilter@PAVUnitInterface@BWAPI@@P6A_NPAV12@@Z@2@B 004b4f18     BWAPILIB:Filters.obj
 0002:00014f1c       ?ResourceGroup@Filter@BWAPI@@3V?$CompareFilter@PAVUnitInterface@BWAPI@@HP6AHPAV12@@Z@2@B 004b4f1c     BWAPILIB:Filters.obj
 0002:00014f20       ?IsAlly@Filter@BWAPI@@3V?$UnaryFilter@PAVUnitInterface@BWAPI@@P6A_NPAV12@@Z@2@B 004b4f20     BWAPILIB:Filters.obj
 0002:00014f24       ?IsPowerup@Filter@BWAPI@@3V?$UnaryFilter@PAVUnitInterface@BWAPI@@P6A_NPAV12@@Z@2@B 004b4f24     BWAPILIB:Filters.obj
 0002:00014f28       ?IsPlagued@Filter@BWAPI@@3V?$UnaryFilter@PAVUnitInterface@BWAPI@@P6A_NPAV12@@Z@2@B 004b4f28     BWAPILIB:Filters.obj
 0002:00014f2c       ?MaxEnergy@Filter@BWAPI@@3V?$CompareFilter@PAVUnitInterface@BWAPI@@HP6AHPAV12@@Z@2@B 004b4f2c     BWAPILIB:Filters.obj
 0002:00014f30       ?GroundWeapon@Filter@BWAPI@@3V?$CompareFilter@PAVUnitInterface@BWAPI@@VWeaponType@2@P6A?AV32@PAV12@@Z@2@B 004b4f30     BWAPILIB:Filters.obj
 0002:00014f34       ?IsFlyingBuilding@Filter@BWAPI@@3V?$UnaryFilter@PAVUnitInterface@BWAPI@@P6A_NPAV12@@Z@2@B 004b4f34     BWAPILIB:Filters.obj
 0002:00014f38       ?MaxShields@Filter@BWAPI@@3V?$CompareFilter@PAVUnitInterface@BWAPI@@HP6AHPAV12@@Z@2@B 004b4f38     BWAPILIB:Filters.obj
 0002:00014f3c       ?IsHoldingPosition@Filter@BWAPI@@3V?$UnaryFilter@PAVUnitInterface@BWAPI@@P6A_NPAV12@@Z@2@B 004b4f3c     BWAPILIB:Filters.obj
 0002:00014f40       ?IsCarryingSomething@Filter@BWAPI@@3V?$UnaryFilter@PAVUnitInterface@BWAPI@@P6A_NPAV12@@Z@2@B 004b4f40     BWAPILIB:Filters.obj
 0002:00014f44       ?DefenseMatrixPoints@Filter@BWAPI@@3V?$CompareFilter@PAVUnitInterface@BWAPI@@HP6AHPAV12@@Z@2@B 004b4f44     BWAPILIB:Filters.obj
 0002:00014f48       ?HP_Percent@Filter@BWAPI@@3V?$CompareFilter@PAVUnitInterface@BWAPI@@HP6AHPAV12@@Z@2@B 004b4f48     BWAPILIB:Filters.obj
 0002:00014f4c       ?IsFlagBeacon@Filter@BWAPI@@3V?$UnaryFilter@PAVUnitInterface@BWAPI@@P6A_NPAV12@@Z@2@B 004b4f4c     BWAPILIB:Filters.obj
 0002:00014f50       ?IsFlyer@Filter@BWAPI@@3V?$UnaryFilter@PAVUnitInterface@BWAPI@@P6A_NPAV12@@Z@2@B 004b4f50     BWAPILIB:Filters.obj
 0002:00014f54       ?IsAddon@Filter@BWAPI@@3V?$UnaryFilter@PAVUnitInterface@BWAPI@@P6A_NPAV12@@Z@2@B 004b4f54     BWAPILIB:Filters.obj
 0002:00014f58       ?IsTraining@Filter@BWAPI@@3V?$UnaryFilter@PAVUnitInterface@BWAPI@@P6A_NPAV12@@Z@2@B 004b4f58     BWAPILIB:Filters.obj
 0002:00014f5c       ?ScarabCount@Filter@BWAPI@@3V?$CompareFilter@PAVUnitInterface@BWAPI@@HP6AHPAV12@@Z@2@B 004b4f5c     BWAPILIB:Filters.obj
 0002:00014f60       ?AirWeapon@Filter@BWAPI@@3V?$CompareFilter@PAVUnitInterface@BWAPI@@VWeaponType@2@P6A?AV32@PAV12@@Z@2@B 004b4f60     BWAPILIB:Filters.obj
 0002:00014f64       ?CanProduce@Filter@BWAPI@@3V?$UnaryFilter@PAVUnitInterface@BWAPI@@P6A_NPAV12@@Z@2@B 004b4f64     BWAPILIB:Filters.obj
 0002:00014f68       ?IsSpellcaster@Filter@BWAPI@@3V?$UnaryFilter@PAVUnitInterface@BWAPI@@P6A_NPAV12@@Z@2@B 004b4f68     BWAPILIB:Filters.obj
 0002:00014f6c       ?OrderTarget@Filter@BWAPI@@3V?$CompareFilter@PAVUnitInterface@BWAPI@@PAV12@P6APAV12@PAV12@@Z@2@B 004b4f6c     BWAPILIB:Filters.obj
 0002:00014f70       ?IsMaelstrommed@Filter@BWAPI@@3V?$UnaryFilter@PAVUnitInterface@BWAPI@@P6A_NPAV12@@Z@2@B 004b4f70     BWAPILIB:Filters.obj
 0002:00014f74       ?IsCarryingGas@Filter@BWAPI@@3V?$UnaryFilter@PAVUnitInterface@BWAPI@@P6A_NPAV12@@Z@2@B 004b4f74     BWAPILIB:Filters.obj
 0002:00014f78       ?IrradiateTime@Filter@BWAPI@@3V?$CompareFilter@PAVUnitInterface@BWAPI@@HP6AHPAV12@@Z@2@B 004b4f78     BWAPILIB:Filters.obj
 0002:00014f7c       ?IsStimmed@Filter@BWAPI@@3V?$UnaryFilter@PAVUnitInterface@BWAPI@@P6A_NPAV12@@Z@2@B 004b4f7c     BWAPILIB:Filters.obj
 0002:00014f80       ?IsTransport@Filter@BWAPI@@3V?$UnaryFilter@PAVUnitInterface@BWAPI@@P6A_NPAV12@@Z@2@B 004b4f80     BWAPILIB:Filters.obj
 0002:00014f84       ?IsUnderAttack@Filter@BWAPI@@3V?$UnaryFilter@PAVUnitInterface@BWAPI@@P6A_NPAV12@@Z@2@B 004b4f84     BWAPILIB:Filters.obj
 0002:00014f88       ?IsUnderDarkSwarm@Filter@BWAPI@@3V?$UnaryFilter@PAVUnitInterface@BWAPI@@P6A_NPAV12@@Z@2@B 004b4f88     BWAPILIB:Filters.obj
 0002:00014f8c       ?IsEnsnared@Filter@BWAPI@@3V?$UnaryFilter@PAVUnitInterface@BWAPI@@P6A_NPAV12@@Z@2@B 004b4f8c     BWAPILIB:Filters.obj
 0002:00014f90       ?IsMoving@Filter@BWAPI@@3V?$UnaryFilter@PAVUnitInterface@BWAPI@@P6A_NPAV12@@Z@2@B 004b4f90     BWAPILIB:Filters.obj
 0002:00014f94       ?IsUnderDisruptionWeb@Filter@BWAPI@@3V?$UnaryFilter@PAVUnitInterface@BWAPI@@P6A_NPAV12@@Z@2@B 004b4f94     BWAPILIB:Filters.obj
 0002:00014f98       ?CanMove@Filter@BWAPI@@3V?$UnaryFilter@PAVUnitInterface@BWAPI@@P6A_NPAV12@@Z@2@B 004b4f98     BWAPILIB:Filters.obj
 0002:00014f9c       ?IsStartingAttack@Filter@BWAPI@@3V?$UnaryFilter@PAVUnitInterface@BWAPI@@P6A_NPAV12@@Z@2@B 004b4f9c     BWAPILIB:Filters.obj
 0002:00014fb8       ?RemainingBuildTime@Filter@BWAPI@@3V?$CompareFilter@PAVUnitInterface@BWAPI@@HP6AHPAV12@@Z@2@B 004b4fb8     BWAPILIB:Filters.obj
 0002:00014fbc       ?IsStuck@Filter@BWAPI@@3V?$UnaryFilter@PAVUnitInterface@BWAPI@@P6A_NPAV12@@Z@2@B 004b4fbc     BWAPILIB:Filters.obj
 0002:00014fc0       ?IsCloaked@Filter@BWAPI@@3V?$UnaryFilter@PAVUnitInterface@BWAPI@@P6A_NPAV12@@Z@2@B 004b4fc0     BWAPILIB:Filters.obj
 0002:00014fc4       ?IsCloakable@Filter@BWAPI@@3V?$UnaryFilter@PAVUnitInterface@BWAPI@@P6A_NPAV12@@Z@2@B 004b4fc4     BWAPILIB:Filters.obj
 0002:00014fc8       ?IsSpell@Filter@BWAPI@@3V?$UnaryFilter@PAVUnitInterface@BWAPI@@P6A_NPAV12@@Z@2@B 004b4fc8     BWAPILIB:Filters.obj
 0002:00014fcc       ?IsBurrowed@Filter@BWAPI@@3V?$UnaryFilter@PAVUnitInterface@BWAPI@@P6A_NPAV12@@Z@2@B 004b4fcc     BWAPILIB:Filters.obj
 0002:00014fd0       ?IsMineralField@Filter@BWAPI@@3V?$UnaryFilter@PAVUnitInterface@BWAPI@@P6A_NPAV12@@Z@2@B 004b4fd0     BWAPILIB:Filters.obj
 0002:00014fd4       ?BuildScore@Filter@BWAPI@@3V?$CompareFilter@PAVUnitInterface@BWAPI@@HP6AHPAV12@@Z@2@B 004b4fd4     BWAPILIB:Filters.obj
 0002:00014fd8       ?CurrentOrder@Filter@BWAPI@@3V?$CompareFilter@PAVUnitInterface@BWAPI@@VOrder@2@P6A?AV32@PAV12@@Z@2@B 004b4fd8     BWAPILIB:Filters.obj
 0002:00014fdc       ?PlagueTimer@Filter@BWAPI@@3V?$CompareFilter@PAVUnitInterface@BWAPI@@HP6AHPAV12@@Z@2@B 004b4fdc     BWAPILIB:Filters.obj
 0002:00014fe0       ?SpaceRequired@Filter@BWAPI@@3V?$CompareFilter@PAVUnitInterface@BWAPI@@HP6AHPAV12@@Z@2@B 004b4fe0     BWAPILIB:Filters.obj
 0002:00014fe4       ?IsBeingGathered@Filter@BWAPI@@3V?$UnaryFilter@PAVUnitInterface@BWAPI@@P6A_NPAV12@@Z@2@B 004b4fe4     BWAPILIB:Filters.obj
 0002:00014fe8       ?IsRobotic@Filter@BWAPI@@3V?$UnaryFilter@PAVUnitInterface@BWAPI@@P6A_NPAV12@@Z@2@B 004b4fe8     BWAPILIB:Filters.obj
 0002:00014fec       ?HasPermanentCloak@Filter@BWAPI@@3V?$UnaryFilter@PAVUnitInterface@BWAPI@@P6A_NPAV12@@Z@2@B 004b4fec     BWAPILIB:Filters.obj
 0002:00014ff0       ?IsRepairing@Filter@BWAPI@@3V?$UnaryFilter@PAVUnitInterface@BWAPI@@P6A_NPAV12@@Z@2@B 004b4ff0     BWAPILIB:Filters.obj
 0002:00014ff4       ?IsBeacon@Filter@BWAPI@@3V?$UnaryFilter@PAVUnitInterface@BWAPI@@P6A_NPAV12@@Z@2@B 004b4ff4     BWAPILIB:Filters.obj
 0002:00014ff8       ?IsDetected@Filter@BWAPI@@3V?$UnaryFilter@PAVUnitInterface@BWAPI@@P6A_NPAV12@@Z@2@B 004b4ff8     BWAPILIB:Filters.obj
 0002:00014ffc       ?GasPrice@Filter@BWAPI@@3V?$CompareFilter@PAVUnitInterface@BWAPI@@HP6AHPAV12@@Z@2@B 004b4ffc     BWAPILIB:Filters.obj
 0002:00015000       ?ArmorUpgrade@Filter@BWAPI@@3V?$CompareFilter@PAVUnitInterface@BWAPI@@VUpgradeType@2@P6A?AV32@PAV12@@Z@2@B 004b5000     BWAPILIB:Filters.obj
 0002:00015004       ?IsWorker@Filter@BWAPI@@3V?$UnaryFilter@PAVUnitInterface@BWAPI@@P6A_NPAV12@@Z@2@B 004b5004     BWAPILIB:Filters.obj
 0002:00015008       ?MaelstromTime@Filter@BWAPI@@3V?$CompareFilter@PAVUnitInterface@BWAPI@@HP6AHPAV12@@Z@2@B 004b5008     BWAPILIB:Filters.obj
 0002:0001500c       ?TopSpeed@Filter@BWAPI@@3V?$CompareFilter@PAVUnitInterface@BWAPI@@NP6ANPAV12@@Z@2@B 004b500c     BWAPILIB:Filters.obj
 0002:00015010       ?IsMechanical@Filter@BWAPI@@3V?$UnaryFilter@PAVUnitInterface@BWAPI@@P6A_NPAV12@@Z@2@B 004b5010     BWAPILIB:Filters.obj
 0002:00015014       ?MaxHP@Filter@BWAPI@@3V?$CompareFilter@PAVUnitInterface@BWAPI@@HP6AHPAV12@@Z@2@B 004b5014     BWAPILIB:Filters.obj
 0002:00015018       ?IsInvincible@Filter@BWAPI@@3V?$UnaryFilter@PAVUnitInterface@BWAPI@@P6A_NPAV12@@Z@2@B 004b5018     BWAPILIB:Filters.obj
 0002:0001501c       ?GetType@Filter@BWAPI@@3V?$CompareFilter@PAVUnitInterface@BWAPI@@VUnitType@2@P6A?AV32@PAV12@@Z@2@B 004b501c     BWAPILIB:Filters.obj
 0002:00015020       ?SpaceRemaining@Filter@BWAPI@@3V?$CompareFilter@PAVUnitInterface@BWAPI@@HP6AHPAV12@@Z@2@B 004b5020     BWAPILIB:Filters.obj
 0002:00015024       ?RemoveTime@Filter@BWAPI@@3V?$CompareFilter@PAVUnitInterface@BWAPI@@HP6AHPAV12@@Z@2@B 004b5024     BWAPILIB:Filters.obj
 0002:00015028       ?IsIdle@Filter@BWAPI@@3V?$UnaryFilter@PAVUnitInterface@BWAPI@@P6A_NPAV12@@Z@2@B 004b5028     BWAPILIB:Filters.obj
 0002:0001502c       ?IsDetector@Filter@BWAPI@@3V?$UnaryFilter@PAVUnitInterface@BWAPI@@P6A_NPAV12@@Z@2@B 004b502c     BWAPILIB:Filters.obj
 0002:00015030       ?IsFollowing@Filter@BWAPI@@3V?$UnaryFilter@PAVUnitInterface@BWAPI@@P6A_NPAV12@@Z@2@B 004b5030     BWAPILIB:Filters.obj
 0002:00015034       ?StimTime@Filter@BWAPI@@3V?$CompareFilter@PAVUnitInterface@BWAPI@@HP6AHPAV12@@Z@2@B 004b5034     BWAPILIB:Filters.obj
 0002:00015038       ?SpaceProvided@Filter@BWAPI@@3V?$CompareFilter@PAVUnitInterface@BWAPI@@HP6AHPAV12@@Z@2@B 004b5038     BWAPILIB:Filters.obj
 0002:0001503c       ?IsInterruptible@Filter@BWAPI@@3V?$UnaryFilter@PAVUnitInterface@BWAPI@@P6A_NPAV12@@Z@2@B 004b503c     BWAPILIB:Filters.obj
 0002:00015040       ?Shields_Percent@Filter@BWAPI@@3V?$CompareFilter@PAVUnitInterface@BWAPI@@HP6AHPAV12@@Z@2@B 004b5040     BWAPILIB:Filters.obj
 0002:00015044       ?SpellCooldown@Filter@BWAPI@@3V?$CompareFilter@PAVUnitInterface@BWAPI@@HP6AHPAV12@@Z@2@B 004b5044     BWAPILIB:Filters.obj
 0002:00015048       ?DestroyScore@Filter@BWAPI@@3V?$CompareFilter@PAVUnitInterface@BWAPI@@HP6AHPAV12@@Z@2@B 004b5048     BWAPILIB:Filters.obj
 0002:0001504c       ?Shields@Filter@BWAPI@@3V?$CompareFilter@PAVUnitInterface@BWAPI@@HP6AHPAV12@@Z@2@B 004b504c     BWAPILIB:Filters.obj
 0002:00015050       ?DefenseMatrixTime@Filter@BWAPI@@3V?$CompareFilter@PAVUnitInterface@BWAPI@@HP6AHPAV12@@Z@2@B 004b5050     BWAPILIB:Filters.obj
 0002:00015054       ?Energy_Percent@Filter@BWAPI@@3V?$CompareFilter@PAVUnitInterface@BWAPI@@HP6AHPAV12@@Z@2@B 004b5054     BWAPILIB:Filters.obj
 0002:00015058       ?SupplyRequired@Filter@BWAPI@@3V?$CompareFilter@PAVUnitInterface@BWAPI@@HP6AHPAV12@@Z@2@B 004b5058     BWAPILIB:Filters.obj
 0002:0001505c       ?IsLifted@Filter@BWAPI@@3V?$UnaryFilter@PAVUnitInterface@BWAPI@@P6A_NPAV12@@Z@2@B 004b505c     BWAPILIB:Filters.obj
 0002:00015060       ?IsCarryingMinerals@Filter@BWAPI@@3V?$UnaryFilter@PAVUnitInterface@BWAPI@@P6A_NPAV12@@Z@2@B 004b5060     BWAPILIB:Filters.obj
 0002:00015064       ?Energy@Filter@BWAPI@@3V?$CompareFilter@PAVUnitInterface@BWAPI@@HP6AHPAV12@@Z@2@B 004b5064     BWAPILIB:Filters.obj
 0002:00015080       ?IsCritter@Filter@BWAPI@@3V?$UnaryFilter@PAVUnitInterface@BWAPI@@P6A_NPAV12@@Z@2@B 004b5080     BWAPILIB:Filters.obj
 0002:00015084       ?IsVisible@Filter@BWAPI@@3V?$UnaryFilter@PAVUnitInterface@BWAPI@@P6A_NPAV12@@Z@2@B 004b5084     BWAPILIB:Filters.obj
 0002:00015088       ?IsSieged@Filter@BWAPI@@3V?$UnaryFilter@PAVUnitInterface@BWAPI@@P6A_NPAV12@@Z@2@B 004b5088     BWAPILIB:Filters.obj
 0002:0001508c       ?InterceptorCount@Filter@BWAPI@@3V?$CompareFilter@PAVUnitInterface@BWAPI@@HP6AHPAV12@@Z@2@B 004b508c     BWAPILIB:Filters.obj
 0002:00015090       ?IsBeingConstructed@Filter@BWAPI@@3V?$UnaryFilter@PAVUnitInterface@BWAPI@@P6A_NPAV12@@Z@2@B 004b5090     BWAPILIB:Filters.obj
 0002:00015094       ?IsEnemy@Filter@BWAPI@@3V?$UnaryFilter@PAVUnitInterface@BWAPI@@P6A_NPAV12@@Z@2@B 004b5094     BWAPILIB:Filters.obj
 0002:00015098       ?IsGatheringMinerals@Filter@BWAPI@@3V?$UnaryFilter@PAVUnitInterface@BWAPI@@P6A_NPAV12@@Z@2@B 004b5098     BWAPILIB:Filters.obj
 0002:0001509c       ?IsParasited@Filter@BWAPI@@3V?$UnaryFilter@PAVUnitInterface@BWAPI@@P6A_NPAV12@@Z@2@B 004b509c     BWAPILIB:Filters.obj
 0002:000150a0       ?RequiresPsi@Filter@BWAPI@@3V?$UnaryFilter@PAVUnitInterface@BWAPI@@P6A_NPAV12@@Z@2@B 004b50a0     BWAPILIB:Filters.obj
 0002:000150a4       ?HP@Filter@BWAPI@@3V?$CompareFilter@PAVUnitInterface@BWAPI@@HP6AHPAV12@@Z@2@B 004b50a4     BWAPILIB:Filters.obj
 0002:000150a8       ?RemainingTrainTime@Filter@BWAPI@@3V?$CompareFilter@PAVUnitInterface@BWAPI@@HP6AHPAV12@@Z@2@B 004b50a8     BWAPILIB:Filters.obj
 0002:000150ac       ?WeaponCooldown@Filter@BWAPI@@3V?$CompareFilter@PAVUnitInterface@BWAPI@@HP6AHPAV12@@Z@2@B 004b50ac     BWAPILIB:Filters.obj
 0002:000150b0       ?BuildTime@Filter@BWAPI@@3V?$CompareFilter@PAVUnitInterface@BWAPI@@HP6AHPAV12@@Z@2@B 004b50b0     BWAPILIB:Filters.obj
 0002:000150b4       ?IsDefenseMatrixed@Filter@BWAPI@@3V?$UnaryFilter@PAVUnitInterface@BWAPI@@P6A_NPAV12@@Z@2@B 004b50b4     BWAPILIB:Filters.obj
 0002:000150b8       ?IsConstructing@Filter@BWAPI@@3V?$UnaryFilter@PAVUnitInterface@BWAPI@@P6A_NPAV12@@Z@2@B 004b50b8     BWAPILIB:Filters.obj
 0002:000150bc       ?Armor@Filter@BWAPI@@3V?$CompareFilter@PAVUnitInterface@BWAPI@@HP6AHPAV12@@Z@2@B 004b50bc     BWAPILIB:Filters.obj
 0002:000150c0       ?IsOwned@Filter@BWAPI@@3V?$UnaryFilter@PAVUnitInterface@BWAPI@@P6A_NPAV12@@Z@2@B 004b50c0     BWAPILIB:Filters.obj
 0002:000150c4       ?IsCompleted@Filter@BWAPI@@3V?$UnaryFilter@PAVUnitInterface@BWAPI@@P6A_NPAV12@@Z@2@B 004b50c4     BWAPILIB:Filters.obj
 0002:000150c8       ?Exists@Filter@BWAPI@@3V?$UnaryFilter@PAVUnitInterface@BWAPI@@P6A_NPAV12@@Z@2@B 004b50c8     BWAPILIB:Filters.obj
 0002:000150cc       ?IsResourceContainer@Filter@BWAPI@@3V?$UnaryFilter@PAVUnitInterface@BWAPI@@P6A_NPAV12@@Z@2@B 004b50cc     BWAPILIB:Filters.obj
 0002:000150d0       ?CanBuildAddon@Filter@BWAPI@@3V?$UnaryFilter@PAVUnitInterface@BWAPI@@P6A_NPAV12@@Z@2@B 004b50d0     BWAPILIB:Filters.obj
 0002:000150d4       ?IsMorphing@Filter@BWAPI@@3V?$UnaryFilter@PAVUnitInterface@BWAPI@@P6A_NPAV12@@Z@2@B 004b50d4     BWAPILIB:Filters.obj
 0002:000150d8       ?IsPowered@Filter@BWAPI@@3V?$UnaryFilter@PAVUnitInterface@BWAPI@@P6A_NPAV12@@Z@2@B 004b50d8     BWAPILIB:Filters.obj
 0002:000150dc       ?IsBuilding@Filter@BWAPI@@3V?$UnaryFilter@PAVUnitInterface@BWAPI@@P6A_NPAV12@@Z@2@B 004b50dc     BWAPILIB:Filters.obj
 0002:000150e0       ?ProducesLarva@Filter@BWAPI@@3V?$UnaryFilter@PAVUnitInterface@BWAPI@@P6A_NPAV12@@Z@2@B 004b50e0     BWAPILIB:Filters.obj
 0002:000150e4       ?IsRefinery@Filter@BWAPI@@3V?$UnaryFilter@PAVUnitInterface@BWAPI@@P6A_NPAV12@@Z@2@B 004b50e4     BWAPILIB:Filters.obj
 0002:000150e8       ?IsResourceDepot@Filter@BWAPI@@3V?$UnaryFilter@PAVUnitInterface@BWAPI@@P6A_NPAV12@@Z@2@B 004b50e8     BWAPILIB:Filters.obj
 0002:000161c4       ??_C@_0BA@JFNIOLAK@string?5too?5long@ 004b61c4     bwem.obj
 0002:000161d8       ??_7Exception@BWEM@@6B@    004b61d8     bwem.obj
 0002:000161e4       ??_7runtime_error@std@@6B@ 004b61e4     bwem.obj
 0002:000161ec       ??_C@_0BG@BBKNOMOH@invalid?5map?$DMK?0?5T?$DO?5key@ 004b61ec     exampleWall.obj
 0002:00016208       ??_7MapImpl@detail@BWEM@@6B@ 004b6208     mapImpl.obj
 0002:0001626c       ??_7Geyser@BWEM@@6B@       004b626c     neutral.obj
 0002:00016290       ??_7Neutral@BWEM@@6B@      004b6290     neutral.obj
 0002:000162b4       ??_7Ressource@BWEM@@6B@    004b62b4     neutral.obj
 0002:000162d8       ??_7StaticBuilding@BWEM@@6B@ 004b62d8     neutral.obj
 0002:000162fc       ??_7Mineral@BWEM@@6B@      004b62fc     neutral.obj
 0002:0001631c       ??_C@_08EPJLHIJG@bad?5cast@ 004b631c     utils.obj
 0002:00016328       ??_C@_0BI@CFPLBAOH@invalid?5string?5position@ 004b6328     utils.obj
 0002:00016344       ??_7?$basic_filebuf@DU?$char_traits@D@std@@@std@@6B@ 004b6344     utils.obj
 0002:00016384       ??_7?$basic_ofstream@DU?$char_traits@D@std@@@std@@6B@ 004b6384     utils.obj
 0002:0001638c       ??_7bad_cast@std@@6B@      004b638c     utils.obj
 0002:00016394       ??_8?$basic_ofstream@DU?$char_traits@D@std@@@std@@7B@ 004b6394     utils.obj
 0002:00016394       ??_8?$basic_stringstream@DU?$char_traits@D@std@@V?$allocator@D@2@@std@@7B?$basic_istream@DU?$char_traits@D@std@@@1@@ 004b6394     BaseLocation.obj
 0002:0001639c       ??_8?$basic_stringstream@DU?$char_traits@D@std@@V?$allocator@D@2@@std@@7B?$basic_ostream@DU?$char_traits@D@std@@@1@@ 004b639c     BaseLocation.obj
 0002:000163a8       ??_7?$basic_stringbuf@DU?$char_traits@D@std@@V?$allocator@D@2@@std@@6B@ 004b63a8     BaseLocation.obj
 0002:000163e8       ??_7?$basic_stringstream@DU?$char_traits@D@std@@V?$allocator@D@2@@std@@6B@ 004b63e8     BaseLocation.obj
 0002:000163f0       ??_7?$_Ref_count@VDFBB_BuildOrderSmartSearch@BOSS@@@std@@6B@ 004b63f0     BOSSManager.obj
 0002:00016400       ??_C@_0BK@OGNNAFAB@invalid?5hash?5bucket?5count@ 004b6400     BuildingPlacerManager.obj
 0002:0001641c       ??_C@_0BL@GOIGLPKN@unordered_map?1set?5too?5long@ 004b641c     BuildingPlacerManager.obj
 0002:0001643c       ??_7?$_Ref_count@VPlayer_NOKDPS@SparCraft@@@std@@6B@ 004b643c     CombatSimulation.obj
 0002:00016450       ??_7CorsairManager@UAlbertaBot@@6B@ 004b6450     CorsairManager.obj
 0002:0001645c       ??_7MicroManager@UAlbertaBot@@6B@ 004b645c     CorsairManager.obj
 0002:00016468       ??_7DetectorManager@UAlbertaBot@@6B@ 004b6468     DetectorManager.obj
 0002:00016470       ??_C@_0BJ@DHFDPMIM@invalid?5vector?5subscript@ 004b6470     MapTools.obj
 0002:00016490       ??_7MedicManager@UAlbertaBot@@6B@ 004b6490     MedicManager.obj
 0002:0001649c       ??_7MeleeManager@UAlbertaBot@@6B@ 004b649c     MeleeManager.obj
 0002:000164a8       ?e@?1??Pow10@internal@rapidjson@@YANH@Z@4QBNB 004b64a8     ParseUtils.obj
 0002:00016e50       ?escape@?1???$ParseStringToStream@$0A@U?$UTF8@D@rapidjson@@U12@U?$GenericStringStream@U?$UTF8@D@rapidjson@@@2@V?$StackStream@D@?$GenericReader@U?$UTF8@D@rapidjson@@U12@VCrtAllocator@2@@2@@?$GenericReader@U?$UTF8@D@rapidjson@@U12@VCrtAllocator@2@@rapidjson@@AAEXAAU?$GenericStringStream@U?$UTF8@D@rapidjson@@@2@AAV?$StackStream@D@12@@Z@4QBDB 004b6e50     ParseUtils.obj
 0002:00016f54       ??_7RangedManager@UAlbertaBot@@6B@ 004b6f54     RangedManager.obj
 0002:00016f5c       ??_C@_04OHJIHAFH@None@     004b6f5c     StrategyManager.obj
 0002:00016f68       ??_7TankManager@UAlbertaBot@@6B@ 004b6f68     TankManager.obj
 0002:00016f74       ??_7TransportManager@UAlbertaBot@@6B@ 004b6f74     TransportManager.obj
 0002:00016f7c       ??_C@_00CNPNBAHC@@         004b6f7c     BWAPILIB:UnitType.obj
 0002:00016f80       ??_C@_0N@EDOBHEND@Terran_Ghost@ 004b6f80     BWAPILIB:UnitType.obj
 0002:00016f90       ??_C@_0O@DCAJDBBA@Terran_Marine@ 004b6f90     BWAPILIB:UnitType.obj
 0002:00016fa0       ??_C@_0BM@CJELLNKP@Terran_Siege_Tank_Tank_Mode@ 004b6fa0     BWAPILIB:UnitType.obj
 0002:00016fbc       ??_C@_0BG@JHADEEIO@Terran_Goliath_Turret@ 004b6fbc     BWAPILIB:UnitType.obj
 0002:00016fd4       ??_C@_0P@NAFCFJF@Terran_Goliath@ 004b6fd4     BWAPILIB:UnitType.obj
 0002:00016fe4       ??_C@_0P@IIJCEGKE@Terran_Vulture@ 004b6fe4     BWAPILIB:UnitType.obj
 0002:00016ff4       ??_C@_0BG@FPIGJNCD@Terran_Science_Vessel@ 004b6ff4     BWAPILIB:UnitType.obj
 0002:0001700c       ??_C@_0O@PHLKDHBM@Terran_Wraith@ 004b700c     BWAPILIB:UnitType.obj
 0002:0001701c       ??_C@_0L@LJAIEKFJ@Terran_SCV@ 004b701c     BWAPILIB:UnitType.obj
 0002:00017028       ??_C@_0CD@KCLGPEPN@Terran_Siege_Tank_Tank_Mode_Tur@ 004b7028     BWAPILIB:UnitType.obj
 0002:0001704c       ??_C@_0BL@EIDEOJFH@Terran_Vulture_Spider_Mine@ 004b704c     BWAPILIB:UnitType.obj
 0002:00017068       ??_C@_0BF@OHDFKAKD@Terran_Battlecruiser@ 004b7068     BWAPILIB:UnitType.obj
 0002:00017080       ??_C@_0BA@GFHIAMBL@Terran_Dropship@ 004b7080     BWAPILIB:UnitType.obj
 0002:00017090       ??_C@_0BA@LNKAAEAK@Hero_Gui_Montag@ 004b7090     BWAPILIB:UnitType.obj
 0002:000170a0       ??_C@_0BC@LHFMINME@Hero_Alan_Schezar@ 004b70a0     BWAPILIB:UnitType.obj
 0002:000170b4       ??_C@_0BE@OGPPBGP@Hero_Sarah_Kerrigan@ 004b70b4     BWAPILIB:UnitType.obj
 0002:000170c8       ??_C@_0BA@HGAJMPLA@Terran_Civilian@ 004b70c8     BWAPILIB:UnitType.obj
 0002:000170d8       ??_C@_0BH@CGMOPAOL@Terran_Nuclear_Missile@ 004b70d8     BWAPILIB:UnitType.obj
 0002:000170f0       ??_C@_0BC@ODPHNMBC@Hero_Tom_Kazansky@ 004b70f0     BWAPILIB:UnitType.obj
 0002:00017104       ??_C@_0BH@PGAHBGJA@Hero_Jim_Raynor_Marine@ 004b7104     BWAPILIB:UnitType.obj
 0002:0001711c       ??_C@_0BI@GFOOMLKD@Hero_Jim_Raynor_Vulture@ 004b711c     BWAPILIB:UnitType.obj
 0002:00017134       ??_C@_0BJ@KACCDGEK@Hero_Alan_Schezar_Turret@ 004b7134     BWAPILIB:UnitType.obj
 0002:00017150       ??_C@_0BM@HIAFHJNO@Hero_Edmund_Duke_Siege_Mode@ 004b7150     BWAPILIB:UnitType.obj
 0002:0001716c       ??_C@_0CC@CFDHLDMG@Hero_Edmund_Duke_Tank_Mode_Turr@ 004b716c     BWAPILIB:UnitType.obj
 0002:00017190       ??_C@_0BL@FMBCHPOA@Hero_Edmund_Duke_Tank_Mode@ 004b7190     BWAPILIB:UnitType.obj
 0002:000171ac       ??_C@_0O@LGNHDLNM@Hero_Magellan@ 004b71ac     BWAPILIB:UnitType.obj
 0002:000171bc       ??_C@_0O@KNCFNOH@Hero_Norad_II@ 004b71bc     BWAPILIB:UnitType.obj
 0002:000171cc       ??_C@_0O@BDPHACJG@Hero_Hyperion@ 004b71cc     BWAPILIB:UnitType.obj
 0002:000171dc       ??_C@_0BF@DMEHEPDH@Hero_Arcturus_Mengsk@ 004b71dc     BWAPILIB:UnitType.obj
 0002:000171f4       ??_C@_0CD@PGKCPNCP@Hero_Edmund_Duke_Siege_Mode_Tur@ 004b71f4     BWAPILIB:UnitType.obj
 0002:00017218       ??_C@_0BE@EEMKGHCL@Spell_Scanner_Sweep@ 004b7218     BWAPILIB:UnitType.obj
 0002:0001722c       ??_C@_0P@LAHMANPD@Terran_Firebat@ 004b722c     BWAPILIB:UnitType.obj
 0002:0001723c       ??_C@_0CE@EHCOJFEM@Terran_Siege_Tank_Siege_Mode_Tu@ 004b723c     BWAPILIB:UnitType.obj
 0002:00017260       ??_C@_0BN@JOBDHMBN@Terran_Siege_Tank_Siege_Mode@ 004b7260     BWAPILIB:UnitType.obj
 0002:00017280       ??_C@_0O@FCENBNDO@Zerg_Zergling@ 004b7280     BWAPILIB:UnitType.obj
 0002:00017290       ??_C@_08HJCKKAFG@Zerg_Egg@ 004b7290     BWAPILIB:UnitType.obj
 0002:0001729c       ??_C@_0L@NJCFGNNB@Zerg_Larva@ 004b729c     BWAPILIB:UnitType.obj
 0002:000172a8       ??_C@_0N@NJNJLGDF@Terran_Medic@ 004b72a8     BWAPILIB:UnitType.obj
 0002:000172b8       ??_C@_0L@MGBMLKGA@Zerg_Drone@ 004b72b8     BWAPILIB:UnitType.obj
 0002:000172c4       ??_C@_0P@HFLDCHME@Zerg_Broodling@ 004b72c4     BWAPILIB:UnitType.obj
 0002:000172d4       ??_C@_0P@BLJNBKFJ@Zerg_Ultralisk@ 004b72d4     BWAPILIB:UnitType.obj
 0002:000172e4       ??_C@_0P@FDCBCGBE@Zerg_Hydralisk@ 004b72e4     BWAPILIB:UnitType.obj
 0002:000172f4       ??_C@_0L@KHDLCDBG@Zerg_Queen@ 004b72f4     BWAPILIB:UnitType.obj
 0002:00017300       ??_C@_0O@JMLKCLPN@Zerg_Guardian@ 004b7300     BWAPILIB:UnitType.obj
 0002:00017310       ??_C@_0O@OLJFKKKF@Zerg_Mutalisk@ 004b7310     BWAPILIB:UnitType.obj
 0002:00017320       ??_C@_0O@KMDGELKL@Zerg_Overlord@ 004b7320     BWAPILIB:UnitType.obj
 0002:00017330       ??_C@_0P@JAJDACMD@Hero_Matriarch@ 004b7330     BWAPILIB:UnitType.obj
 0002:00017340       ??_C@_0P@MEGDCBK@Hero_Torrasque@ 004b7340     BWAPILIB:UnitType.obj
 0002:00017350       ??_C@_0N@HGHCNDJD@Zerg_Scourge@ 004b7350     BWAPILIB:UnitType.obj
 0002:00017360       ??_C@_0N@FHACIFIE@Zerg_Defiler@ 004b7360     BWAPILIB:UnitType.obj
 0002:00017370       ??_C@_0BD@JHLDDPEP@Hero_Hunter_Killer@ 004b7370     BWAPILIB:UnitType.obj
 0002:00017384       ??_C@_0BB@BGAJHFOD@Hero_Unclean_One@ 004b7384     BWAPILIB:UnitType.obj
 0002:00017398       ??_C@_0BH@OFNMGFIB@Hero_Infested_Kerrigan@ 004b7398     BWAPILIB:UnitType.obj
 0002:000173b0       ??_C@_0BF@KBEDAMOH@Zerg_Infested_Terran@ 004b73b0     BWAPILIB:UnitType.obj
 0002:000173c8       ??_C@_0BA@MHBAAMIJ@Hero_Yggdrasill@ 004b73c8     BWAPILIB:UnitType.obj
 0002:000173d8       ??_C@_0BG@BEIECGMA@Hero_Kukulza_Guardian@ 004b73d8     BWAPILIB:UnitType.obj
 0002:000173f0       ??_C@_0BG@GDKLKHJI@Hero_Kukulza_Mutalisk@ 004b73f0     BWAPILIB:UnitType.obj
 0002:00017408       ??_C@_0BD@BANBNFJN@Hero_Devouring_One@ 004b7408     BWAPILIB:UnitType.obj
 0002:0001741c       ??_C@_0BF@EHIBHKEK@Protoss_Dark_Templar@ 004b741c     BWAPILIB:UnitType.obj
 0002:00017434       ??_C@_0BA@KDLBPJOD@Protoss_Corsair@ 004b7434     BWAPILIB:UnitType.obj
 0002:00017444       ??_C@_0M@LMDOBLLC@Zerg_Cocoon@ 004b7444     BWAPILIB:UnitType.obj
 0002:00017450       ??_C@_0BA@PCCPBKP@Terran_Valkyrie@ 004b7450     BWAPILIB:UnitType.obj
 0002:00017460       ??_C@_0P@DKOHJGIE@Protoss_Zealot@ 004b7460     BWAPILIB:UnitType.obj
 0002:00017470       ??_C@_0O@GGFKCFAD@Protoss_Probe@ 004b7470     BWAPILIB:UnitType.obj
 0002:00017480       ??_C@_0BE@JMIMHDD@Protoss_Dark_Archon@ 004b7480     BWAPILIB:UnitType.obj
 0002:00017494       ??_C@_0O@PPFLAODL@Zerg_Devourer@ 004b7494     BWAPILIB:UnitType.obj
 0002:000174a4       ??_C@_0BA@NBAHPLDO@Protoss_Shuttle@ 004b74a4     BWAPILIB:UnitType.obj
 0002:000174b4       ??_C@_0P@EGCFCHP@Protoss_Archon@ 004b74b4     BWAPILIB:UnitType.obj
 0002:000174c4       ??_C@_0BF@OPKBGGMF@Protoss_High_Templar@ 004b74c4     BWAPILIB:UnitType.obj
 0002:000174dc       ??_C@_0BA@LNHKBKFP@Protoss_Dragoon@ 004b74dc     BWAPILIB:UnitType.obj
 0002:000174ec       ??_C@_0BE@DODJKMPH@Protoss_Interceptor@ 004b74ec     BWAPILIB:UnitType.obj
 0002:00017500       ??_C@_0BA@CEAHKIF@Protoss_Carrier@ 004b7500     BWAPILIB:UnitType.obj
 0002:00017510       ??_C@_0BA@KAMGNAOB@Protoss_Arbiter@ 004b7510     BWAPILIB:UnitType.obj
 0002:00017520       ??_C@_0O@PHPOHPHK@Protoss_Scout@ 004b7520     BWAPILIB:UnitType.obj
 0002:00017530       ??_C@_0BC@MKMOHDMH@Hero_Fenix_Zealot@ 004b7530     BWAPILIB:UnitType.obj
 0002:00017544       ??_C@_0BN@ONJNCAGG@Hero_Tassadar_Zeratul_Archon@ 004b7544     BWAPILIB:UnitType.obj
 0002:00017564       ??_C@_0N@MECBNGL@Hero_Zeratul@ 004b7564     BWAPILIB:UnitType.obj
 0002:00017574       ??_C@_0BC@BELOLJG@Hero_Dark_Templar@ 004b7574     BWAPILIB:UnitType.obj
 0002:00017588       ??_C@_0BA@PHCMPLEM@Hero_Warbringer@ 004b7588     BWAPILIB:UnitType.obj
 0002:00017598       ??_C@_09INLMEGMG@Hero_Mojo@ 004b7598     BWAPILIB:UnitType.obj
 0002:000175a4       ??_C@_0O@CLPJCHKO@Hero_Tassadar@ 004b75a4     BWAPILIB:UnitType.obj
 0002:000175b4       ??_C@_0BD@FCFPCDJA@Hero_Fenix_Dragoon@ 004b75b4     BWAPILIB:UnitType.obj
 0002:000175c8       ??_C@_0P@NPOGIIDL@Protoss_Scarab@ 004b75c8     BWAPILIB:UnitType.obj
 0002:000175d8       ??_C@_0BB@BMDDAKNG@Protoss_Observer@ 004b75d8     BWAPILIB:UnitType.obj
 0002:000175ec       ??_C@_0P@GNGBENEI@Protoss_Reaver@ 004b75ec     BWAPILIB:UnitType.obj
 0002:000175fc       ??_C@_0BA@NGFOKMON@Hero_Gantrithor@ 004b75fc     BWAPILIB:UnitType.obj
 0002:0001760c       ??_C@_0BB@DPCPCONG@Critter_Rhynadon@ 004b760c     BWAPILIB:UnitType.obj
 0002:00017620       ??_C@_0N@LOHBJCDK@Hero_Artanis@ 004b7620     BWAPILIB:UnitType.obj
 0002:00017630       ??_C@_0N@JAIJJPBF@Hero_Aldaris@ 004b7630     BWAPILIB:UnitType.obj
 0002:00017640       ??_C@_0O@JLEMEIGM@Hero_Danimoth@ 004b7640     BWAPILIB:UnitType.obj
 0002:00017650       ??_C@_0BA@JNOBHOFO@Critter_Scantid@ 004b7650     BWAPILIB:UnitType.obj
 0002:00017660       ??_C@_0BK@CDDHNCHF@Special_Mercenary_Gunship@ 004b7660     BWAPILIB:UnitType.obj
 0002:0001767c       ??_C@_0BD@GFLDNMHO@Special_Cargo_Ship@ 004b767c     BWAPILIB:UnitType.obj
 0002:00017690       ??_C@_0BC@IFGJBCGL@Critter_Bengalaas@ 004b7690     BWAPILIB:UnitType.obj
 0002:000176a4       ??_C@_0BA@BJFGNOAL@Zerg_Lurker_Egg@ 004b76a4     BWAPILIB:UnitType.obj
 0002:000176b4       ??_C@_0BA@PIBCBHEF@Critter_Ursadon@ 004b76b4     BWAPILIB:UnitType.obj
 0002:000176c4       ??_C@_0BC@JFHIKGMJ@Critter_Ragnasaur@ 004b76c4     BWAPILIB:UnitType.obj
 0002:000176d8       ??_C@_0P@JAAGAOHO@Critter_Kakaru@ 004b76d8     BWAPILIB:UnitType.obj
 0002:000176e8       ??_C@_0BF@HELFAEAF@Special_Map_Revealer@ 004b76e8     BWAPILIB:UnitType.obj
 0002:00017700       ??_C@_0BD@CNMPMICM@Hero_Alexei_Stukov@ 004b7700     BWAPILIB:UnitType.obj
 0002:00017714       ??_C@_0BB@HHBPBIHL@Hero_Samir_Duran@ 004b7714     BWAPILIB:UnitType.obj
 0002:00017728       ??_C@_0O@LJBIJPNN@Hero_Raszagal@ 004b7728     BWAPILIB:UnitType.obj
 0002:00017738       ??_C@_0BF@LHICIEJA@Spell_Disruption_Web@ 004b7738     BWAPILIB:UnitType.obj
 0002:00017750       ??_C@_0BE@OEDNDDG@Hero_Infested_Duran@ 004b7750     BWAPILIB:UnitType.obj
 0002:00017764       ??_C@_0M@NBDJLLEI@Zerg_Lurker@ 004b7764     BWAPILIB:UnitType.obj
 0002:00017770       ??_C@_0BE@FMCKDOKF@Hero_Gerard_DuGalle@ 004b7770     BWAPILIB:UnitType.obj
 0002:00017784       ??_C@_0BE@HBNLDHFL@Terran_Supply_Depot@ 004b7784     BWAPILIB:UnitType.obj
 0002:00017798       ??_C@_0BE@OEPACEGC@Terran_Nuclear_Silo@ 004b7798     BWAPILIB:UnitType.obj
 0002:000177ac       ??_C@_0BG@NJCBGGID@Terran_Comsat_Station@ 004b77ac     BWAPILIB:UnitType.obj
 0002:000177c4       ??_C@_0BG@GCNJADCA@Terran_Command_Center@ 004b77c4     BWAPILIB:UnitType.obj
 0002:000177dc       ??_C@_0P@EPDNJHCB@Terran_Factory@ 004b77dc     BWAPILIB:UnitType.obj
 0002:000177ec       ??_C@_0P@IHIILNLB@Terran_Academy@ 004b77ec     BWAPILIB:UnitType.obj
 0002:000177fc       ??_C@_0BA@EKBPNLBC@Terran_Barracks@ 004b77fc     BWAPILIB:UnitType.obj
 0002:0001780c       ??_C@_0BA@NGDGGFGE@Terran_Refinery@ 004b780c     BWAPILIB:UnitType.obj
 0002:0001781c       ??_C@_0BC@GLHKBIJH@Terran_Covert_Ops@ 004b781c     BWAPILIB:UnitType.obj
 0002:00017830       ??_C@_0BI@EKMFKGNG@Terran_Science_Facility@ 004b7830     BWAPILIB:UnitType.obj
 0002:00017848       ??_C@_0BF@HBCCINKJ@Terran_Control_Tower@ 004b7848     BWAPILIB:UnitType.obj
 0002:00017860       ??_C@_0BA@NICJDLIO@Terran_Starport@ 004b7860     BWAPILIB:UnitType.obj
 0002:00017870       ??_C@_0P@JDKGFDGK@Unused_Terran2@ 004b7870     BWAPILIB:UnitType.obj
 0002:00017880       ??_C@_0BE@LFACKKAP@Terran_Machine_Shop@ 004b7880     BWAPILIB:UnitType.obj
 0002:00017894       ??_C@_0P@LIILAAKJ@Unused_Terran1@ 004b7894     BWAPILIB:UnitType.obj
 0002:000178a4       ??_C@_0BD@HDNONCNG@Terran_Physics_Lab@ 004b78a4     BWAPILIB:UnitType.obj
 0002:000178b8       ??_C@_0O@FKMJNIAL@Terran_Bunker@ 004b78b8     BWAPILIB:UnitType.obj
 0002:000178c8       ??_C@_0BG@CGDMDFC@Terran_Missile_Turret@ 004b78c8     BWAPILIB:UnitType.obj
 0002:000178e0       ??_C@_0O@EEHLHDJH@Terran_Armory@ 004b78e0     BWAPILIB:UnitType.obj
 0002:000178f0       ??_C@_0BH@CIPGMAJN@Terran_Engineering_Bay@ 004b78f0     BWAPILIB:UnitType.obj
 0002:00017908       ??_C@_0BH@LFOHAEHL@Powerup_Khalis_Crystal@ 004b7908     BWAPILIB:UnitType.obj
 0002:00017920       ??_C@_0BF@NMKELGB@Powerup_Uraj_Crystal@ 004b7920     BWAPILIB:UnitType.obj
 0002:00017938       ??_C@_0BD@BPHCBIFH@Special_Ion_Cannon@ 004b7938     BWAPILIB:UnitType.obj
 0002:0001794c       ??_C@_0BJ@ILHDJIPC@Special_Crashed_Norad_II@ 004b794c     BWAPILIB:UnitType.obj
 0002:00017968       ??_C@_09JPFADLEG@Zerg_Hive@ 004b7968     BWAPILIB:UnitType.obj
 0002:00017974       ??_C@_09LNJNNFLC@Zerg_Lair@ 004b7974     BWAPILIB:UnitType.obj
 0002:00017980       ??_C@_0O@NCFLHCKM@Zerg_Hatchery@ 004b7980     BWAPILIB:UnitType.obj
 0002:00017990       ??_C@_0BN@FLIIOPND@Zerg_Infested_Command_Center@ 004b7990     BWAPILIB:UnitType.obj
 0002:000179b0       ??_C@_0BD@NMGIHGPP@Zerg_Greater_Spire@ 004b79b0     BWAPILIB:UnitType.obj
 0002:000179c4       ??_C@_0BD@FNNNOBMF@Zerg_Defiler_Mound@ 004b79c4     BWAPILIB:UnitType.obj
 0002:000179d8       ??_C@_0BD@IGBBDHKF@Zerg_Hydralisk_Den@ 004b79d8     BWAPILIB:UnitType.obj
 0002:000179ec       ??_C@_0BB@NLHONHAF@Zerg_Nydus_Canal@ 004b79ec     BWAPILIB:UnitType.obj
 0002:00017a00       ??_C@_0L@JCFINOOL@Zerg_Spire@ 004b7a00     BWAPILIB:UnitType.obj
 0002:00017a0c       ??_C@_0BG@FGKCAEJO@Zerg_Ultralisk_Cavern@ 004b7a0c     BWAPILIB:UnitType.obj
 0002:00017a24       ??_C@_0BH@CAHDFANB@Zerg_Evolution_Chamber@ 004b7a24     BWAPILIB:UnitType.obj
 0002:00017a3c       ??_C@_0BB@HOHEHLGB@Zerg_Queens_Nest@ 004b7a3c     BWAPILIB:UnitType.obj
 0002:00017a50       ??_C@_0N@JGLKNAHL@Unused_Zerg1@ 004b7a50     BWAPILIB:UnitType.obj
 0002:00017a60       ??_C@_0BC@FNHIICFJ@Zerg_Spore_Colony@ 004b7a60     BWAPILIB:UnitType.obj
 0002:00017a74       ??_C@_0BC@MEMOHPDH@Zerg_Creep_Colony@ 004b7a74     BWAPILIB:UnitType.obj
 0002:00017a88       ??_C@_0BD@LGBLFDJJ@Zerg_Spawning_Pool@ 004b7a88     BWAPILIB:UnitType.obj
 0002:00017a9c       ??_C@_0P@GDAAGDFD@Zerg_Extractor@ 004b7a9c     BWAPILIB:UnitType.obj
 0002:00017aac       ??_C@_0BB@MJJKLKJC@Special_Overmind@ 004b7aac     BWAPILIB:UnitType.obj
 0002:00017ac0       ??_C@_0BM@MMJMACDL@Special_Overmind_With_Shell@ 004b7ac0     BWAPILIB:UnitType.obj
 0002:00017adc       ??_C@_0BD@MFIECPKM@Zerg_Sunken_Colony@ 004b7adc     BWAPILIB:UnitType.obj
 0002:00017af0       ??_C@_0N@LNJHIDLI@Unused_Zerg2@ 004b7af0     BWAPILIB:UnitType.obj
 0002:00017b00       ??_C@_0BK@CCPEEFLN@Special_Cerebrate_Daggoth@ 004b7b00     BWAPILIB:UnitType.obj
 0002:00017b1c       ??_C@_0BC@PPBHFEBI@Special_Cerebrate@ 004b7b1c     BWAPILIB:UnitType.obj
 0002:00017b30       ??_C@_0BJ@FPMIIFKH@Special_Mature_Chrysalis@ 004b7b30     BWAPILIB:UnitType.obj
 0002:00017b4c       ??_C@_0BE@CCNLCIJL@Protoss_Assimilator@ 004b7b4c     BWAPILIB:UnitType.obj
 0002:00017b60       ??_C@_0O@OIBDPBGE@Protoss_Pylon@ 004b7b60     BWAPILIB:UnitType.obj
 0002:00017b70       ??_C@_0BK@GFCINGKE@Protoss_Robotics_Facility@ 004b7b70     BWAPILIB:UnitType.obj
 0002:00017b8c       ??_C@_0O@EFHJGCHO@Protoss_Nexus@ 004b7b8c     BWAPILIB:UnitType.obj
 0002:00017b9c       ??_C@_0BA@NHFNNLJN@Unused_Protoss2@ 004b7b9c     BWAPILIB:UnitType.obj
 0002:00017bac       ??_C@_0BA@NGKIINEL@Protoss_Gateway@ 004b7bac     BWAPILIB:UnitType.obj
 0002:00017bbc       ??_C@_0BE@BCCHOOGA@Protoss_Observatory@ 004b7bbc     BWAPILIB:UnitType.obj
 0002:00017bd0       ??_C@_0BA@PMHAIIFO@Unused_Protoss1@ 004b7bd0     BWAPILIB:UnitType.obj
 0002:00017be0       ??_C@_0BJ@LFMMOLCJ@Protoss_Templar_Archives@ 004b7be0     BWAPILIB:UnitType.obj
 0002:00017bfc       ??_C@_0BJ@CNJOPLOG@Protoss_Cybernetics_Core@ 004b7bfc     BWAPILIB:UnitType.obj
 0002:00017c18       ??_C@_0BI@HGBIKCDF@Protoss_Citadel_of_Adun@ 004b7c18     BWAPILIB:UnitType.obj
 0002:00017c30       ??_C@_0BG@JMLGGNHG@Protoss_Photon_Cannon@ 004b7c30     BWAPILIB:UnitType.obj
 0002:00017c48       ??_C@_0BF@HCPLHEHA@Protoss_Fleet_Beacon@ 004b7c48     BWAPILIB:UnitType.obj
 0002:00017c60       ??_C@_0BL@LADKMLBG@Special_Stasis_Cell_Prison@ 004b7c60     BWAPILIB:UnitType.obj
 0002:00017c7c       ??_C@_0BB@HPCIAGNO@Protoss_Stargate@ 004b7c7c     BWAPILIB:UnitType.obj
 0002:00017c90       ??_C@_0O@IPBNNKBP@Protoss_Forge@ 004b7c90     BWAPILIB:UnitType.obj
 0002:00017ca0       ??_C@_0BP@HIIJJGLJ@Special_Khaydarin_Crystal_Form@ 004b7ca0     BWAPILIB:UnitType.obj
 0002:00017cc0       ??_C@_0BH@NBNEFGBE@Protoss_Shield_Battery@ 004b7cc0     BWAPILIB:UnitType.obj
 0002:00017cd8       ??_C@_0BN@FJOKDKLD@Protoss_Robotics_Support_Bay@ 004b7cd8     BWAPILIB:UnitType.obj
 0002:00017cf8       ??_C@_0BJ@CFNBMOON@Protoss_Arbiter_Tribunal@ 004b7cf8     BWAPILIB:UnitType.obj
 0002:00017d14       ??_C@_0BO@BGBAHHDJ@Resource_Mineral_Field_Type_2@ 004b7d14     BWAPILIB:UnitType.obj
 0002:00017d34       ??_C@_0BH@CLNAFIAA@Resource_Mineral_Field@ 004b7d34     BWAPILIB:UnitType.obj
 0002:00017d4c       ??_C@_0BH@NKOIDMHI@Special_XelNaga_Temple@ 004b7d4c     BWAPILIB:UnitType.obj
 0002:00017d64       ??_C@_0BH@KLMPLEJL@Special_Protoss_Temple@ 004b7d64     BWAPILIB:UnitType.obj
 0002:00017d7c       ??_C@_0P@LOOBFOHD@Unused_Cantina@ 004b7d7c     BWAPILIB:UnitType.obj
 0002:00017d8c       ??_C@_0P@GDDOILGA@Unused_Cave_In@ 004b7d8c     BWAPILIB:UnitType.obj
 0002:00017d9c       ??_C@_0M@DFALFNIK@Unused_Cave@ 004b7d9c     BWAPILIB:UnitType.obj
 0002:00017da8       ??_C@_0BO@PALEGHI@Resource_Mineral_Field_Type_3@ 004b7da8     BWAPILIB:UnitType.obj
 0002:00017dc8       ??_C@_0BN@LEJKHFND@Unused_Independant_Jump_Gate@ 004b7dc8     BWAPILIB:UnitType.obj
 0002:00017de8       ??_C@_0BN@FEBCJOAI@Special_Independant_Starport@ 004b7de8     BWAPILIB:UnitType.obj
 0002:00017e08       ??_C@_0CC@PABIBDGP@Unused_Independant_Command_Cent@ 004b7e08     BWAPILIB:UnitType.obj
 0002:00017e2c       ??_C@_0BH@PMGANDKK@Unused_Mining_Platform@ 004b7e2c     BWAPILIB:UnitType.obj
 0002:00017e44       ??_C@_0BC@GIHNLEGK@Special_Warp_Gate@ 004b7e44     BWAPILIB:UnitType.obj
 0002:00017e58       ??_C@_0BI@GNKJJPNE@Resource_Vespene_Geyser@ 004b7e58     BWAPILIB:UnitType.obj
 0002:00017e70       ??_C@_0CD@IIEHKNDB@Unused_Khaydarin_Crystal_Format@ 004b7e70     BWAPILIB:UnitType.obj
 0002:00017e94       ??_C@_0N@FAIPADAC@Unused_Ruins@ 004b7e94     BWAPILIB:UnitType.obj
 0002:00017ea4       ??_C@_0BG@HPMGBDCB@Unused_Protoss_Marker@ 004b7ea4     BWAPILIB:UnitType.obj
 0002:00017ebc       ??_C@_0BF@NADDHFGJ@Unused_Terran_Marker@ 004b7ebc     BWAPILIB:UnitType.obj
 0002:00017ed4       ??_C@_0BD@HMHEEDDK@Unused_Zerg_Marker@ 004b7ed4     BWAPILIB:UnitType.obj
 0002:00017ee8       ??_C@_0BG@BDDDMDKK@Special_Psi_Disrupter@ 004b7ee8     BWAPILIB:UnitType.obj
 0002:00017f00       ??_C@_0BJ@BJGCHENG@Special_Zerg_Flag_Beacon@ 004b7f00     BWAPILIB:UnitType.obj
 0002:00017f1c       ??_C@_0BH@MJCPGPIN@Special_Protoss_Beacon@ 004b7f1c     BWAPILIB:UnitType.obj
 0002:00017f34       ??_C@_0BG@JNCIMCIG@Special_Terran_Beacon@ 004b7f34     BWAPILIB:UnitType.obj
 0002:00017f4c       ??_C@_0BE@EJPOCBLK@Special_Zerg_Beacon@ 004b7f4c     BWAPILIB:UnitType.obj
 0002:00017f60       ??_C@_0BI@FGJANKMG@Special_Overmind_Cocoon@ 004b7f60     BWAPILIB:UnitType.obj
 0002:00017f78       ??_C@_0BI@BJGIAMCJ@Special_Power_Generator@ 004b7f78     BWAPILIB:UnitType.obj
 0002:00017f90       ??_C@_0BM@MGGAPIAC@Special_Protoss_Flag_Beacon@ 004b7f90     BWAPILIB:UnitType.obj
 0002:00017fac       ??_C@_0BL@NFCJIGBO@Special_Terran_Flag_Beacon@ 004b7fac     BWAPILIB:UnitType.obj
 0002:00017fc8       ??_C@_0BJ@NALHDPOA@Special_Upper_Level_Door@ 004b7fc8     BWAPILIB:UnitType.obj
 0002:00017fe4       ??_C@_0BE@BPOPLKKH@Special_Floor_Hatch@ 004b7fe4     BWAPILIB:UnitType.obj
 0002:00017ff8       ??_C@_0BL@FAPDDKJI@Special_Floor_Missile_Trap@ 004b7ff8     BWAPILIB:UnitType.obj
 0002:00018014       ??_C@_0BB@OGGFONBF@Spell_Dark_Swarm@ 004b8014     BWAPILIB:UnitType.obj
 0002:00018028       ??_C@_0BH@KGDLODAG@Special_Floor_Gun_Trap@ 004b8028     BWAPILIB:UnitType.obj
 0002:00018040       ??_C@_0BH@PAIIBIPC@Special_Right_Pit_Door@ 004b8040     BWAPILIB:UnitType.obj
 0002:00018058       ??_C@_0BB@JBADFIGO@Special_Pit_Door@ 004b8058     BWAPILIB:UnitType.obj
 0002:0001806c       ??_C@_0BP@DMLGFBMB@Special_Right_Upper_Level_Door@ 004b806c     BWAPILIB:UnitType.obj
 0002:0001808c       ??_C@_0BO@DNKKFJFL@Special_Right_Wall_Flame_Trap@ 004b808c     BWAPILIB:UnitType.obj
 0002:000180ac       ??_C@_0CA@GNNGMJP@Special_Right_Wall_Missile_Trap@ 004b80ac     BWAPILIB:UnitType.obj
 0002:000180cc       ??_C@_0BI@FPDGFOJK@Special_Wall_Flame_Trap@ 004b80cc     BWAPILIB:UnitType.obj
 0002:000180e4       ??_C@_0BK@EKFIHNKP@Special_Wall_Missile_Trap@ 004b80e4     BWAPILIB:UnitType.obj
 0002:00018100       ??_C@_0BE@MPNNPGOH@Powerup_Psi_Emitter@ 004b8100     BWAPILIB:UnitType.obj
 0002:00018114       ??_C@_0BI@CCJEMGIM@Powerup_Young_Chrysalis@ 004b8114     BWAPILIB:UnitType.obj
 0002:0001812c       ??_C@_0N@KNKPFCLK@Powerup_Flag@ 004b812c     BWAPILIB:UnitType.obj
 0002:0001813c       ??_C@_0BH@KMFOJDBF@Special_Start_Location@ 004b813c     BWAPILIB:UnitType.obj
 0002:00018154       ??_C@_0BP@JHCNOHLM@Powerup_Mineral_Cluster_Type_2@ 004b8154     BWAPILIB:UnitType.obj
 0002:00018174       ??_C@_0BP@LMAALEHP@Powerup_Mineral_Cluster_Type_1@ 004b8174     BWAPILIB:UnitType.obj
 0002:00018194       ??_C@_0BK@LHBOLEEK@Powerup_Khaydarin_Crystal@ 004b8194     BWAPILIB:UnitType.obj
 0002:000181b0       ??_C@_0BC@JGPEKKDN@Powerup_Data_Disk@ 004b81b0     BWAPILIB:UnitType.obj
 0002:000181c4       ??_C@_0BM@CFDHAEJK@Powerup_Zerg_Gas_Sac_Type_2@ 004b81c4     BWAPILIB:UnitType.obj
 0002:000181e0       ??_C@_0BM@OBKFHFJ@Powerup_Zerg_Gas_Sac_Type_1@ 004b81e0     BWAPILIB:UnitType.obj
 0002:000181fc       ??_C@_0BP@CBCMFEP@Powerup_Protoss_Gas_Orb_Type_2@ 004b81fc     BWAPILIB:UnitType.obj
 0002:0001821c       ??_C@_0BP@CJDPJGIM@Powerup_Protoss_Gas_Orb_Type_1@ 004b821c     BWAPILIB:UnitType.obj
 0002:0001823c       ??_C@_03CKHOPOB@Men@       004b823c     BWAPILIB:UnitType.obj
 0002:00018240       ??_C@_08HAMIGNCI@AllUnits@ 004b8240     BWAPILIB:UnitType.obj
 0002:0001824c       ??_C@_0BP@POOCFIOJ@Powerup_Terran_Gas_Tank_Type_2@ 004b824c     BWAPILIB:UnitType.obj
 0002:0001826c       ??_C@_0BP@NFMPALCK@Powerup_Terran_Gas_Tank_Type_1@ 004b826c     BWAPILIB:UnitType.obj
 0002:0001828c       ??_C@_06NEKFKDLF@marine@   004b828c     BWAPILIB:UnitType.obj
 0002:00018294       ??_C@_07NBCGADJA@Unknown@  004b8294     BWAPILIB:UnitType.obj
 0002:0001829c       ??_C@_09PEBKLDLO@Factories@ 004b829c     BWAPILIB:UnitType.obj
 0002:000182a8       ??_C@_09CKIIHEFP@Buildings@ 004b82a8     BWAPILIB:UnitType.obj
 0002:000182b4       ??_C@_0L@HNEOGDFN@siege_tank@ 004b82b4     BWAPILIB:UnitType.obj
 0002:000182c0       ??_C@_07KLFPNOGA@goliath@  004b82c0     BWAPILIB:UnitType.obj
 0002:000182c8       ??_C@_07COMILNFB@vulture@  004b82c8     BWAPILIB:UnitType.obj
 0002:000182d0       ??_C@_05IMCPNAJM@ghost@    004b82d0     BWAPILIB:UnitType.obj
 0002:000182d8       ??_C@_0L@DDAEGHNL@gui_montag@ 004b82d8     BWAPILIB:UnitType.obj
 0002:000182e4       ??_C@_0P@MDILMJKI@science_vessel@ 004b82e4     BWAPILIB:UnitType.obj
 0002:000182f4       ??_C@_06BBBGKFLJ@wraith@   004b82f4     BWAPILIB:UnitType.obj
 0002:000182fc       ??_C@_03JEMFIEJI@scv@      004b82fc     BWAPILIB:UnitType.obj
 0002:00018300       ??_C@_04BPDGCKED@nuke@     004b8300     BWAPILIB:UnitType.obj
 0002:00018308       ??_C@_0M@GGMKGADH@spider_mine@ 004b8308     BWAPILIB:UnitType.obj
 0002:00018314       ??_C@_0O@OEMLIHFB@battlecruiser@ 004b8314     BWAPILIB:UnitType.obj
 0002:00018324       ??_C@_08KIAJFAHD@dropship@ 004b8324     BWAPILIB:UnitType.obj
 0002:00018330       ??_C@_0BD@GACKNEAE@jim_raynor_vulture@ 004b8330     BWAPILIB:UnitType.obj
 0002:00018344       ??_C@_0N@IAEDCHCJ@alan_schezar@ 004b8344     BWAPILIB:UnitType.obj
 0002:00018354       ??_C@_0P@BOBAIAFE@sarah_kerrigan@ 004b8354     BWAPILIB:UnitType.obj
 0002:00018364       ??_C@_08LLHIJDNI@civilian@ 004b8364     BWAPILIB:UnitType.obj
 0002:00018370       ??_C@_0M@GBOAJEDF@edmund_duke@ 004b8370     BWAPILIB:UnitType.obj
 0002:0001837c       ??_C@_08CBOKPEMM@magellan@ 004b837c     BWAPILIB:UnitType.obj
 0002:00018388       ??_C@_0N@KPGPJGAK@tom_kazansky@ 004b8388     BWAPILIB:UnitType.obj
 0002:00018398       ??_C@_0BC@DCEPKCFH@jim_raynor_marine@ 004b8398     BWAPILIB:UnitType.obj
 0002:000183ac       ??_C@_07POCOABIM@norad_2@  004b83ac     BWAPILIB:UnitType.obj
 0002:000183b4       ??_C@_08IEMKMNIG@hyperion@ 004b83b4     BWAPILIB:UnitType.obj
 0002:000183c0       ??_C@_0BA@NLMODCO@arcturus_mengsk@ 004b83c0     BWAPILIB:UnitType.obj
 0002:000183d0       ??_C@_0BD@BBDBGMLI@edmund_duke_sieged@ 004b83d0     BWAPILIB:UnitType.obj
 0002:000183e4       ??_C@_05HIPFOJJD@larva@    004b83e4     BWAPILIB:UnitType.obj
 0002:000183ec       ??_C@_05BGBHBCHK@medic@    004b83ec     BWAPILIB:UnitType.obj
 0002:000183f4       ??_C@_07BGCGPGAG@firebat@  004b83f4     BWAPILIB:UnitType.obj
 0002:000183fc       ??_C@_0BC@HECHIOEL@siege_tank_sieged@ 004b83fc     BWAPILIB:UnitType.obj
 0002:00018410       ??_C@_09OMFFGPNC@ultralisk@ 004b8410     BWAPILIB:UnitType.obj
 0002:0001841c       ??_C@_09KEOJFDJP@hydralisk@ 004b841c     BWAPILIB:UnitType.obj
 0002:00018428       ??_C@_08PIGPMLKK@zergling@ 004b8428     BWAPILIB:UnitType.obj
 0002:00018434       ??_C@_03LFGHAHBH@egg@      004b8434     BWAPILIB:UnitType.obj
 0002:00018438       ??_C@_08EBLHHMDB@mutalisk@ 004b8438     BWAPILIB:UnitType.obj
 0002:00018444       ??_C@_08GBEJNDP@overlord@  004b8444     BWAPILIB:UnitType.obj
 0002:00018450       ??_C@_05GHMMDOCC@drone@    004b8450     BWAPILIB:UnitType.obj
 0002:00018458       ??_C@_09ICHLFCEP@broodling@ 004b8458     BWAPILIB:UnitType.obj
 0002:00018464       ??_C@_07FOOIBIPN@scourge@  004b8464     BWAPILIB:UnitType.obj
 0002:0001846c       ??_C@_07HPJIEOOK@defiler@  004b846c     BWAPILIB:UnitType.obj
 0002:00018474       ??_C@_05GOLKHFE@queen@     004b8474     BWAPILIB:UnitType.obj
 0002:0001847c       ??_C@_08DGJIPNGJ@guardian@ 004b847c     BWAPILIB:UnitType.obj
 0002:00018488       ??_C@_0BC@KBLMBCKB@infested_kerrigan@ 004b8488     BWAPILIB:UnitType.obj
 0002:0001849c       ??_C@_0BA@CIMJBNGD@infested_terran@ 004b849c     BWAPILIB:UnitType.obj
 0002:000184ac       ??_C@_09INLDCPGI@matriarch@ 004b84ac     BWAPILIB:UnitType.obj
 0002:000184b8       ??_C@_09BBGGBPLB@torrasque@ 004b84b8     BWAPILIB:UnitType.obj
 0002:000184c4       ??_C@_07KOHNAMAK@kukulza@  004b84c4     BWAPILIB:UnitType.obj
 0002:000184cc       ??_C@_0O@OMJOHJGP@devouring_one@ 004b84cc     BWAPILIB:UnitType.obj
 0002:000184dc       ??_C@_0O@EHDAFBP@hunter_killer@ 004b84dc     BWAPILIB:UnitType.obj
 0002:000184ec       ??_C@_0M@LOBHPOKK@unclean_one@ 004b84ec     BWAPILIB:UnitType.obj
 0002:000184f8       ??_C@_06CEENOLIK@cocoon@   004b84f8     BWAPILIB:UnitType.obj
 0002:00018500       ??_C@_08MCFDKNMH@valkyrie@ 004b8500     BWAPILIB:UnitType.obj
 0002:0001850c       ??_C@_0L@IGAJFGME@yggdrasill@ 004b850c     BWAPILIB:UnitType.obj
 0002:00018518       ??_C@_0BB@LFJJFFJ@kukulza_guardian@ 004b8518     BWAPILIB:UnitType.obj
 0002:0001852c       ??_C@_0M@GNHGHPHH@dark_archon@ 004b852c     BWAPILIB:UnitType.obj
 0002:00018538       ??_C@_08FFHJNIKP@devourer@ 004b8538     BWAPILIB:UnitType.obj
 0002:00018544       ??_C@_0N@DGFEEBHL@dark_templar@ 004b8544     BWAPILIB:UnitType.obj
 0002:00018554       ??_C@_07JIEKPGKK@corsair@  004b8554     BWAPILIB:UnitType.obj
 0002:0001855c       ??_C@_0N@JOHEFNPE@high_templar@ 004b855c     BWAPILIB:UnitType.obj
 0002:0001856c       ??_C@_07IGIBBFBG@dragoon@  004b856c     BWAPILIB:UnitType.obj
 0002:00018574       ??_C@_06KPMIBHKE@zealot@   004b8574     BWAPILIB:UnitType.obj
 0002:0001857c       ??_C@_05PGJBIHML@probe@    004b857c     BWAPILIB:UnitType.obj
 0002:00018584       ??_C@_07JLDNNPKI@arbiter@  004b8584     BWAPILIB:UnitType.obj
 0002:0001858c       ??_C@_05GHDFNNLC@scout@    004b858c     BWAPILIB:UnitType.obj
 0002:00018594       ??_C@_07OKPMPEHH@shuttle@  004b8594     BWAPILIB:UnitType.obj
 0002:0001859c       ??_C@_06JBENNDFP@archon@   004b859c     BWAPILIB:UnitType.obj
 0002:000185a4       ??_C@_07ODFEIFGA@zeratul@  004b85a4     BWAPILIB:UnitType.obj
 0002:000185ac       ??_C@_0BC@KCHBLDFG@dark_templar_hero@ 004b85ac     BWAPILIB:UnitType.obj
 0002:000185c0       ??_C@_0M@JFDKCNCP@interceptor@ 004b85c0     BWAPILIB:UnitType.obj
 0002:000185cc       ??_C@_07DJLLHFMM@carrier@  004b85cc     BWAPILIB:UnitType.obj
 0002:000185d4       ??_C@_08LMMEOILO@tassadar@ 004b85d4     BWAPILIB:UnitType.obj
 0002:000185e0       ??_C@_0O@PHFEECAK@fenix_dragoon@ 004b85e0     BWAPILIB:UnitType.obj
 0002:000185f0       ??_C@_0N@MLBKICOA@fenix_zealot@ 004b85f0     BWAPILIB:UnitType.obj
 0002:00018600       ??_C@_0BB@HIBPLOAD@tassadar_zeratul@ 004b8600     BWAPILIB:UnitType.obj
 0002:00018614       ??_C@_06PIEOMMGI@reaver@   004b8614     BWAPILIB:UnitType.obj
 0002:0001861c       ??_C@_0L@JHEHPGKA@gantrithor@ 004b861c     BWAPILIB:UnitType.obj
 0002:00018628       ??_C@_0L@LGDFKBAB@warbringer@ 004b8628     BWAPILIB:UnitType.obj
 0002:00018634       ??_C@_04JMBPGFNF@mojo@     004b8634     BWAPILIB:UnitType.obj
 0002:0001863c       ??_C@_07HPJPAHBO@aldaris@  004b863c     BWAPILIB:UnitType.obj
 0002:00018644       ??_C@_08MHBIHHM@danimoth@  004b8644     BWAPILIB:UnitType.obj
 0002:00018650       ??_C@_06EKMJAJBL@scarab@   004b8650     BWAPILIB:UnitType.obj
 0002:00018658       ??_C@_08BDAIAION@observer@ 004b8658     BWAPILIB:UnitType.obj
 0002:00018664       ??_C@_07EFDMJMIJ@scantid@  004b8664     BWAPILIB:UnitType.obj
 0002:0001866c       ??_C@_09FBEBKDK@bengalaas@ 004b866c     BWAPILIB:UnitType.obj
 0002:00018678       ??_C@_08CHEALEED@rhynadon@ 004b8678     BWAPILIB:UnitType.obj
 0002:00018684       ??_C@_07FBGHAKDB@artanis@  004b8684     BWAPILIB:UnitType.obj
 0002:0001868c       ??_C@_0L@MDPJODOI@lurker_egg@ 004b868c     BWAPILIB:UnitType.obj
 0002:00018698       ??_C@_07CAMPPFJC@ursadon@  004b8698     BWAPILIB:UnitType.obj
 0002:000186a0       ??_C@_09BFAFKOJI@ragnasaur@ 004b86a0     BWAPILIB:UnitType.obj
 0002:000186ac       ??_C@_06EAMPADNG@kakaru@   004b86ac     BWAPILIB:UnitType.obj
 0002:000186b4       ??_C@_0P@DAHOKKFN@gerard_dugalle@ 004b86b4     BWAPILIB:UnitType.obj
 0002:000186c4       ??_C@_0O@LOAPPCHM@alexei_stukov@ 004b86c4     BWAPILIB:UnitType.obj
 0002:000186d4       ??_C@_0M@HIJPDJDK@samir_duran@ 004b86d4     BWAPILIB:UnitType.obj
 0002:000186e0       ??_C@_08COCFFAMN@raszagal@ 004b86e0     BWAPILIB:UnitType.obj
 0002:000186ec       ??_C@_0P@HDOHGJMC@comsat_station@ 004b86ec     BWAPILIB:UnitType.obj
 0002:000186fc       ??_C@_0P@PONEFHKL@command_center@ 004b86fc     BWAPILIB:UnitType.obj
 0002:0001870c       ??_C@_0P@JLGBCFJI@infested_duran@ 004b870c     BWAPILIB:UnitType.obj
 0002:0001871c       ??_C@_06EJEKELHA@lurker@   004b871c     BWAPILIB:UnitType.obj
 0002:00018724       ??_C@_08IHGOIHHK@barracks@ 004b8724     BWAPILIB:UnitType.obj
 0002:00018730       ??_C@_08BLEHDJAM@refinery@ 004b8730     BWAPILIB:UnitType.obj
 0002:0001873c       ??_C@_0N@DOLCMMOP@supply_depot@ 004b873c     BWAPILIB:UnitType.obj
 0002:0001874c       ??_C@_09JLEMCHOH@nuke_silo@ 004b874c     BWAPILIB:UnitType.obj
 0002:00018758       ??_C@_0O@HFHAKPGN@control_tower@ 004b8758     BWAPILIB:UnitType.obj
 0002:00018768       ??_C@_08BFFIGHOG@starport@ 004b8768     BWAPILIB:UnitType.obj
 0002:00018774       ??_C@_07OJGHGMNE@factory@  004b8774     BWAPILIB:UnitType.obj
 0002:0001877c       ??_C@_07CBNCEGEE@academy@  004b877c     BWAPILIB:UnitType.obj
 0002:00018784       ??_C@_0N@DMAGHLIJ@machine_shop@ 004b8784     BWAPILIB:UnitType.obj
 0002:00018794       ??_C@_0M@KECELEEP@physics_lab@ 004b8794     BWAPILIB:UnitType.obj
 0002:000187a0       ??_C@_0L@ELBIGKI@covert_ops@ 004b87a0     BWAPILIB:UnitType.obj
 0002:000187ac       ??_C@_0BB@POLEOOLG@science_facility@ 004b87ac     BWAPILIB:UnitType.obj
 0002:000187c0       ??_C@_06LMGFEKKO@bunker@   004b87c0     BWAPILIB:UnitType.obj
 0002:000187c8       ??_C@_0P@JOGOJHNJ@missile_turret@ 004b87c8     BWAPILIB:UnitType.obj
 0002:000187d8       ??_C@_06KCNHOBDC@armory@   004b87d8     BWAPILIB:UnitType.obj
 0002:000187e0       ??_C@_0BA@LEEFKAJ@engineering_bay@ 004b87e0     BWAPILIB:UnitType.obj
 0002:000187f0       ??_C@_04JOEHAHOH@hive@     004b87f0     BWAPILIB:UnitType.obj
 0002:000187f8       ??_C@_04LMIKOJBD@lair@     004b87f8     BWAPILIB:UnitType.obj
 0002:00018800       ??_C@_08HIHJKEDI@hatchery@ 004b8800     BWAPILIB:UnitType.obj
 0002:0001880c       ??_C@_0BI@IBDACPEI@infested_command_center@ 004b880c     BWAPILIB:UnitType.obj
 0002:00018824       ??_C@_0O@JDFMNCLB@greater_spire@ 004b8824     BWAPILIB:UnitType.obj
 0002:00018834       ??_C@_0O@BCOJEFIL@defiler_mound@ 004b8834     BWAPILIB:UnitType.obj
 0002:00018844       ??_C@_0O@GOLLDJOD@hydralisk_den@ 004b8844     BWAPILIB:UnitType.obj
 0002:00018854       ??_C@_0M@CEMKOBMI@nydus_canal@ 004b8854     BWAPILIB:UnitType.obj
 0002:00018860       ??_C@_05DDIIFKKJ@spire@    004b8860     BWAPILIB:UnitType.obj
 0002:00018868       ??_C@_0BB@IKDFJCHM@ultralisk_cavern@ 004b8868     BWAPILIB:UnitType.obj
 0002:0001887c       ??_C@_0BC@GOKLEEBD@evolution_chamber@ 004b887c     BWAPILIB:UnitType.obj
 0002:00018890       ??_C@_0M@EHKNGHJO@queens_nest@ 004b8890     BWAPILIB:UnitType.obj
 0002:0001889c       ??_C@_0O@ECKBLHEI@sunken_colony@ 004b889c     BWAPILIB:UnitType.obj
 0002:000188ac       ??_C@_0N@LIFCIIGC@spore_colony@ 004b88ac     BWAPILIB:UnitType.obj
 0002:000188bc       ??_C@_0N@CBOEHFAM@creep_colony@ 004b88bc     BWAPILIB:UnitType.obj
 0002:000188cc       ??_C@_0O@DPECNNOF@spawning_pool@ 004b88cc     BWAPILIB:UnitType.obj
 0002:000188dc       ??_C@_05HINIFDKM@pylon@    004b88dc     BWAPILIB:UnitType.obj
 0002:000188e4       ??_C@_0BC@FCKKEOAI@robotics_facility@ 004b88e4     BWAPILIB:UnitType.obj
 0002:000188f8       ??_C@_05NFLCMALG@nexus@    004b88f8     BWAPILIB:UnitType.obj
 0002:00018900       ??_C@_09JEMIBGNI@extractor@ 004b8900     BWAPILIB:UnitType.obj
 0002:0001890c       ??_C@_0O@IAFFADEI@photon_cannon@ 004b890c     BWAPILIB:UnitType.obj
 0002:0001891c       ??_C@_07ONFDICAC@gateway@  004b891c     BWAPILIB:UnitType.obj
 0002:00018924       ??_C@_0M@LJCEGPLI@observatory@ 004b8924     BWAPILIB:UnitType.obj
 0002:00018930       ??_C@_0M@IJNIKJED@assimilator@ 004b8930     BWAPILIB:UnitType.obj
 0002:0001893c       ??_C@_05BPNGHINH@forge@    004b893c     BWAPILIB:UnitType.obj
 0002:00018944       ??_C@_0BB@JEOIFHDH@templar_archives@ 004b8944     BWAPILIB:UnitType.obj
 0002:00018958       ??_C@_0BB@EPIKOKFP@cybernetics_core@ 004b8958     BWAPILIB:UnitType.obj
 0002:0001896c       ??_C@_0BA@NOOHEEFD@citadel_of_adun@ 004b896c     BWAPILIB:UnitType.obj
 0002:0001897c       ??_C@_0BB@KGMLBGAA@robotics_support@ 004b897c     BWAPILIB:UnitType.obj
 0002:00018990       ??_C@_0BB@EPFHCPD@arbiter_tribunal@ 004b8990     BWAPILIB:UnitType.obj
 0002:000189a4       ??_C@_0N@DFOFBEIL@fleet_beacon@ 004b89a4     BWAPILIB:UnitType.obj
 0002:000189b4       ??_C@_08HABDAEOF@stargate@ 004b89b4     BWAPILIB:UnitType.obj
 0002:000189c0       ??_C@_0N@HCKHEFHN@menbuildings@ 004b89c0     BWAPILIB:UnitType.obj
 0002:000189d0       ??_C@_03NFKEKGGK@all@      004b89d0     BWAPILIB:UnitType.obj
 0002:000189d4       ??_C@_04CGFJFPFD@none@     004b89d4     BWAPILIB:UnitType.obj
 0002:000189dc       ??_C@_0P@BAKJKINB@shield_battery@ 004b89dc     BWAPILIB:UnitType.obj
 0002:000189ec       ??_C@_07CIFAGBMG@unknown@  004b89ec     BWAPILIB:UnitType.obj
 0002:000189f4       ??_C@_09LLEHLAGO@factories@ 004b89f4     BWAPILIB:UnitType.obj
 0002:00018a00       ??_7?$basic_ostringstream@DU?$char_traits@D@std@@V?$allocator@D@2@@std@@6B@ 004b8a00     BWAPILIB:Game.obj
 0002:00018a04       ??_8?$basic_ostringstream@DU?$char_traits@D@std@@V?$allocator@D@2@@std@@7B@ 004b8a04     BWAPILIB:Game.obj
 0002:00018a0c       ??_C@_03PADCEAKC@Red@      004b8a0c     BWAPILIB:Color.obj
 0002:00018a10       ??_C@_04KCNJCPNI@Grey@     004b8a10     BWAPILIB:Color.obj
 0002:00018a18       ??_C@_05EGDKJJDN@Brown@    004b8a18     BWAPILIB:Color.obj
 0002:00018a20       ??_C@_05BPGNDIAE@Black@    004b8a20     BWAPILIB:Color.obj
 0002:00018a28       ??_C@_04HIOLODGE@Teal@     004b8a28     BWAPILIB:Color.obj
 0002:00018a30       ??_C@_06ICCAKDNH@Yellow@   004b8a30     BWAPILIB:Color.obj
 0002:00018a38       ??_C@_04ICNCCCFD@Cyan@     004b8a38     BWAPILIB:Color.obj
 0002:00018a40       ??_C@_05GGOIJPPE@Green@    004b8a40     BWAPILIB:Color.obj
 0002:00018a48       ??_C@_05PLKILNHI@White@    004b8a48     BWAPILIB:Color.obj
 0002:00018a50       ??_C@_06LMIDBFFB@Orange@   004b8a50     BWAPILIB:Color.obj
 0002:00018a58       ??_C@_04CAKOHOCJ@Blue@     004b8a58     BWAPILIB:Color.obj
 0002:00018a60       ??_C@_06KLMDOLNB@Purple@   004b8a60     BWAPILIB:Color.obj
 0002:00018a68       ??_C@_07HABMPCLL@Protoss@  004b8a68     BWAPILIB:Race.obj
 0002:00018a70       ??_C@_06BNHPEPEK@Terran@   004b8a70     BWAPILIB:Race.obj
 0002:00018a78       ??_C@_04DKEPJJOH@Zerg@     004b8a78     BWAPILIB:Race.obj
 0002:00018a80       ??_C@_06BEOPDEGP@Random@   004b8a80     BWAPILIB:Race.obj
 0002:00018a88       ??_C@_06HJGPBJLE@Select@   004b8a88     BWAPILIB:Race.obj
 0002:00018a90       ??_C@_06CGLFEPBO@Unused@   004b8a90     BWAPILIB:Race.obj
 0002:00018a98       ??_C@_05BBOGGNLJ@Other@    004b8a98     BWAPILIB:Race.obj
 0002:00018aa0       ??_C@_0O@CCGCLPCH@EMP_Shockwave@ 004b8aa0     BWAPILIB:WeaponType.obj
 0002:00018ab0       ??_C@_08FFMBAOJA@Lockdown@ 004b8ab0     BWAPILIB:WeaponType.obj
 0002:00018abc       ??_C@_0P@KJEGIGNE@Nuclear_Strike@ 004b8abc     BWAPILIB:WeaponType.obj
 0002:00018acc       ??_C@_0L@OMICJJJB@Yamato_Gun@ 004b8acc     BWAPILIB:WeaponType.obj
 0002:00018ad8       ??_C@_0BI@KKLEPHJI@Claws_Infested_Kerrigan@ 004b8ad8     BWAPILIB:WeaponType.obj
 0002:00018af0       ??_C@_0BE@COLCMHIJ@Claws_Devouring_One@ 004b8af0     BWAPILIB:WeaponType.obj
 0002:00018b04       ??_C@_05ENAFHIFE@Claws@    004b8b04     BWAPILIB:WeaponType.obj
 0002:00018b0c       ??_C@_09KMJEBGHE@Irradiate@ 004b8b0c     BWAPILIB:WeaponType.obj
 0002:00018b18       ??_C@_0BI@CJMMAMLB@Kaiser_Blades_Torrasque@ 004b8b18     BWAPILIB:WeaponType.obj
 0002:00018b30       ??_C@_0O@LCLMFILP@Kaiser_Blades@ 004b8b30     BWAPILIB:WeaponType.obj
 0002:00018b40       ??_C@_0BM@POJEFHBC@Needle_Spines_Hunter_Killer@ 004b8b40     BWAPILIB:WeaponType.obj
 0002:00018b5c       ??_C@_0O@KKKFDKMA@Needle_Spines@ 004b8b5c     BWAPILIB:WeaponType.obj
 0002:00018b6c       ??_C@_0BD@NNIHPPHO@Acid_Spore_Kukulza@ 004b8b6c     BWAPILIB:WeaponType.obj
 0002:00018b80       ??_C@_0L@JHOAGJLA@Acid_Spore@ 004b8b80     BWAPILIB:WeaponType.obj
 0002:00018b8c       ??_C@_06HOFJGIJI@Spines@   004b8b8c     BWAPILIB:WeaponType.obj
 0002:00018b94       ??_C@_0N@GKMAICHK@Toxic_Spores@ 004b8b94     BWAPILIB:WeaponType.obj
 0002:00018ba4       ??_C@_0BG@EJPGDMAK@Subterranean_Tentacle@ 004b8ba4     BWAPILIB:WeaponType.obj
 0002:00018bbc       ??_C@_0O@EJCOJLME@Seeker_Spores@ 004b8bbc     BWAPILIB:WeaponType.obj
 0002:00018bcc       ??_C@_0BD@ILBLEBEI@Glave_Wurm_Kukulza@ 004b8bcc     BWAPILIB:WeaponType.obj
 0002:00018be0       ??_C@_0L@PEFFJILA@Glave_Wurm@ 004b8be0     BWAPILIB:WeaponType.obj
 0002:00018bec       ??_C@_0BB@MOHBECOJ@Spawn_Broodlings@ 004b8bec     BWAPILIB:WeaponType.obj
 0002:00018c00       ??_C@_08HMJEGKAH@Parasite@ 004b8c00     BWAPILIB:WeaponType.obj
 0002:00018c0c       ??_C@_0BA@KECMMCGP@Suicide_Scourge@ 004b8c0c     BWAPILIB:WeaponType.obj
 0002:00018c1c       ??_C@_0BI@NJPNPCG@Suicide_Infested_Terran@ 004b8c1c     BWAPILIB:WeaponType.obj
 0002:00018c34       ??_C@_07MINJLKJO@Consume@  004b8c34     BWAPILIB:WeaponType.obj
 0002:00018c3c       ??_C@_06HGGDKCAJ@Plague@   004b8c3c     BWAPILIB:WeaponType.obj
 0002:00018c44       ??_C@_0L@IPNBPKOE@Dark_Swarm@ 004b8c44     BWAPILIB:WeaponType.obj
 0002:00018c50       ??_C@_07EHPINOFO@Ensnare@  004b8c50     BWAPILIB:WeaponType.obj
 0002:00018c58       ??_C@_0BA@DNKKKCAO@Phase_Disruptor@ 004b8c58     BWAPILIB:WeaponType.obj
 0002:00018c68       ??_C@_0BB@GENJGJLH@Psi_Blades_Fenix@ 004b8c68     BWAPILIB:WeaponType.obj
 0002:00018c7c       ??_C@_0L@HLMEMNBP@Psi_Blades@ 004b8c7c     BWAPILIB:WeaponType.obj
 0002:00018c88       ??_C@_0O@CDDGMO@Particle_Beam@ 004b8c88     BWAPILIB:WeaponType.obj
 0002:00018c98       ??_C@_0BM@CECEHCFA@Psionic_Shockwave_TZ_Archon@ 004b8c98     BWAPILIB:WeaponType.obj
 0002:00018cb4       ??_C@_0BC@FHGCDDKH@Psionic_Shockwave@ 004b8cb4     BWAPILIB:WeaponType.obj
 0002:00018cc8       ??_C@_0M@BIKEABDM@Psi_Assault@ 004b8cc8     BWAPILIB:WeaponType.obj
 0002:00018cd4       ??_C@_0BG@BINPCJFH@Phase_Disruptor_Fenix@ 004b8cd4     BWAPILIB:WeaponType.obj
 0002:00018cec       ??_C@_0BK@JCMLJONA@Anti_Matter_Missiles_Mojo@ 004b8cec     BWAPILIB:WeaponType.obj
 0002:00018d08       ??_C@_0BK@GANEHAME@Dual_Photon_Blasters_Mojo@ 004b8d08     BWAPILIB:WeaponType.obj
 0002:00018d24       ??_C@_0BF@PFILEFDP@Anti_Matter_Missiles@ 004b8d24     BWAPILIB:WeaponType.obj
 0002:00018d3c       ??_C@_0BF@GGJBCEK@Dual_Photon_Blasters@ 004b8d3c     BWAPILIB:WeaponType.obj
 0002:00018d54       ??_C@_0BC@EIBLIFOD@STS_Photon_Cannon@ 004b8d54     BWAPILIB:WeaponType.obj
 0002:00018d68       ??_C@_0N@GLOPFHDO@Pulse_Cannon@ 004b8d68     BWAPILIB:WeaponType.obj
 0002:00018d78       ??_C@_0CA@NGILCLPL@Phase_Disruptor_Cannon_Danimoth@ 004b8d78     BWAPILIB:WeaponType.obj
 0002:00018d98       ??_C@_0BH@EDHOLNKK@Phase_Disruptor_Cannon@ 004b8d98     BWAPILIB:WeaponType.obj
 0002:00018db0       ??_C@_0O@KOJKCGGF@Psionic_Storm@ 004b8db0     BWAPILIB:WeaponType.obj
 0002:00018dc0       ??_C@_0N@OJKGHAGD@Stasis_Field@ 004b8dc0     BWAPILIB:WeaponType.obj
 0002:00018dd0       ??_C@_06IFHEDAIH@Scarab@   004b8dd0     BWAPILIB:WeaponType.obj
 0002:00018dd8       ??_C@_0BC@CJJMJOBO@STA_Photon_Cannon@ 004b8dd8     BWAPILIB:WeaponType.obj
 0002:00018dec       ??_C@_0BK@PHMJFHKJ@Independant_Laser_Battery@ 004b8dec     BWAPILIB:WeaponType.obj
 0002:00018e08       ??_C@_0BH@ELPHFBF@Platform_Laser_Battery@ 004b8e08     BWAPILIB:WeaponType.obj
 0002:00018e20       ??_C@_0BB@HBPHDLHI@Warp_Blades_Hero@ 004b8e20     BWAPILIB:WeaponType.obj
 0002:00018e34       ??_C@_0BE@LLAIIAPC@Warp_Blades_Zeratul@ 004b8e34     BWAPILIB:WeaponType.obj
 0002:00018e48       ??_C@_0CB@NKHNFOJM@Hellfire_Missile_Pack_Floor_Tra@ 004b8e48     BWAPILIB:WeaponType.obj
 0002:00018e6c       ??_C@_0BI@PNNAHFLA@Flame_Thrower_Wall_Trap@ 004b8e6c     BWAPILIB:WeaponType.obj
 0002:00018e84       ??_C@_0CA@MPKFMEIK@Hellfire_Missile_Pack_Wall_Trap@ 004b8e84     BWAPILIB:WeaponType.obj
 0002:00018ea4       ??_C@_0BM@KFJHFFOM@Twin_Autocannons_Floor_Trap@ 004b8ea4     BWAPILIB:WeaponType.obj
 0002:00018ec0       ??_C@_0N@CCFGBAOO@Halo_Rockets@ 004b8ec0     BWAPILIB:WeaponType.obj
 0002:00018ed0       ??_C@_0M@IGMFPAGD@Restoration@ 004b8ed0     BWAPILIB:WeaponType.obj
 0002:00018edc       ??_C@_0P@CEPGPCOH@Disruption_Web@ 004b8edc     BWAPILIB:WeaponType.obj
 0002:00018eec       ??_C@_0O@GNJEGKBB@Neutron_Flare@ 004b8eec     BWAPILIB:WeaponType.obj
 0002:00018efc       ??_C@_0O@OFPPGNDE@Optical_Flare@ 004b8efc     BWAPILIB:WeaponType.obj
 0002:00018f0c       ??_C@_08MKGOGCFD@Feedback@ 004b8f0c     BWAPILIB:WeaponType.obj
 0002:00018f18       ??_C@_0N@GHCBJICE@Mind_Control@ 004b8f18     BWAPILIB:WeaponType.obj
 0002:00018f28       ??_C@_0P@FBFGFNJC@Corrosive_Acid@ 004b8f28     BWAPILIB:WeaponType.obj
 0002:00018f38       ??_C@_0CA@GLNELBO@C_10_Canister_Rifle_Samir_Duran@ 004b8f38     BWAPILIB:WeaponType.obj
 0002:00018f58       ??_C@_0M@CFDAACNH@Warp_Blades@ 004b8f58     BWAPILIB:WeaponType.obj
 0002:00018f64       ??_C@_0BE@NGFEBCJA@Subterranean_Spines@ 004b8f64     BWAPILIB:WeaponType.obj
 0002:00018f78       ??_C@_09DLDOMOLA@Maelstrom@ 004b8f78     BWAPILIB:WeaponType.obj
 0002:00018f84       ??_C@_0CC@MHCHCGCC@C_10_Canister_Rifle_Alexei_Stuk@ 004b8f84     BWAPILIB:WeaponType.obj
 0002:00018fa8       ??_C@_0BN@CBFKOGGP@Anti_Matter_Missiles_Artanis@ 004b8fa8     BWAPILIB:WeaponType.obj
 0002:00018fc8       ??_C@_0BN@HHIADOKG@Dual_Photon_Blasters_Artanis@ 004b8fc8     BWAPILIB:WeaponType.obj
 0002:00018fe8       ??_C@_0CD@OJBBBGNP@C_10_Canister_Rifle_Infested_Du@ 004b8fe8     BWAPILIB:WeaponType.obj
 0002:0001900c       ??_C@_0M@ONOJCJEP@Gauss_Rifle@ 004b900c     BWAPILIB:WeaponType.obj
 0002:00019018       ??_C@_0BG@MDKOCJBD@Fragmentation_Grenade@ 004b9018     BWAPILIB:WeaponType.obj
 0002:00019030       ??_C@_0CD@OJDNDEIG@C_10_Canister_Rifle_Sarah_Kerri@ 004b9030     BWAPILIB:WeaponType.obj
 0002:00019054       ??_C@_0BE@DIPCACIP@C_10_Canister_Rifle@ 004b9054     BWAPILIB:WeaponType.obj
 0002:00019068       ??_C@_0BH@IDDFPIA@Gauss_Rifle_Jim_Raynor@ 004b9068     BWAPILIB:WeaponType.obj
 0002:00019080       ??_C@_0BG@PIFDIPA@Hellfire_Missile_Pack@ 004b9080     BWAPILIB:WeaponType.obj
 0002:00019098       ??_C@_0BB@GKOMPGPF@Twin_Autocannons@ 004b9098     BWAPILIB:WeaponType.obj
 0002:000190ac       ??_C@_0N@IBLALJJ@Spider_Mines@ 004b90ac     BWAPILIB:WeaponType.obj
 0002:000190bc       ??_C@_0CB@CMJIAOMJ@Fragmentation_Grenade_Jim_Rayno@ 004b90bc     BWAPILIB:WeaponType.obj
 0002:000190e0       ??_C@_0BL@GCGOHIIK@Arclite_Cannon_Edmund_Duke@ 004b90e0     BWAPILIB:WeaponType.obj
 0002:000190fc       ??_C@_0P@HDMACEJB@Arclite_Cannon@ 004b90fc     BWAPILIB:WeaponType.obj
 0002:0001910c       ??_C@_0CD@LEFJBDKF@Hellfire_Missile_Pack_Alan_Sche@ 004b910c     BWAPILIB:WeaponType.obj
 0002:00019130       ??_C@_0BO@MLEMMDB@Twin_Autocannons_Alan_Schezar@ 004b9130     BWAPILIB:WeaponType.obj
 0002:00019150       ??_C@_0BN@FLCHGDGD@Gemini_Missiles_Tom_Kazansky@ 004b9150     BWAPILIB:WeaponType.obj
 0002:00019170       ??_C@_0N@KKCEAFLE@Burst_Lasers@ 004b9170     BWAPILIB:WeaponType.obj
 0002:00019180       ??_C@_0BA@LOENDAIH@Gemini_Missiles@ 004b9180     BWAPILIB:WeaponType.obj
 0002:00019190       ??_C@_0O@OFPEHKBN@Fusion_Cutter@ 004b9190     BWAPILIB:WeaponType.obj
 0002:000191a0       ??_C@_0BH@DNNCIFNM@ATS_Laser_Battery_Hero@ 004b91a0     BWAPILIB:WeaponType.obj
 0002:000191b8       ??_C@_0BC@EEOCEIGD@ATA_Laser_Battery@ 004b91b8     BWAPILIB:WeaponType.obj
 0002:000191cc       ??_C@_0BC@CFGFFDJO@ATS_Laser_Battery@ 004b91cc     BWAPILIB:WeaponType.obj
 0002:000191e0       ??_C@_0BK@GIMCCKLJ@Burst_Lasers_Tom_Kazansky@ 004b91e0     BWAPILIB:WeaponType.obj
 0002:000191fc       ??_C@_0O@CAKENKGD@Flame_Thrower@ 004b91fc     BWAPILIB:WeaponType.obj
 0002:0001920c       ??_C@_0BL@MILCOCMM@ATA_Laser_Battery_Hyperion@ 004b920c     BWAPILIB:WeaponType.obj
 0002:00019228       ??_C@_0BL@MDODPP@ATS_Laser_Battery_Hyperion@ 004b9228     BWAPILIB:WeaponType.obj
 0002:00019244       ??_C@_0BH@JCPCJGEN@ATA_Laser_Battery_Hero@ 004b9244     BWAPILIB:WeaponType.obj
 0002:0001925c       ??_C@_0BB@LDENIMKG@Longbolt_Missile@ 004b925c     BWAPILIB:WeaponType.obj
 0002:00019270       ??_C@_0CB@DGEEBEOI@Arclite_Shock_Cannon_Edmund_Duk@ 004b9270     BWAPILIB:WeaponType.obj
 0002:00019294       ??_C@_0BF@DIJBIOMK@Arclite_Shock_Cannon@ 004b9294     BWAPILIB:WeaponType.obj
 0002:000192ac       ??_C@_0BJ@GBIJAEPB@Flame_Thrower_Gui_Montag@ 004b92ac     BWAPILIB:WeaponType.obj
 0002:000192c8       ??_C@_0BB@FFPBHELL@Defensive_Matrix@ 004b92c8     BWAPILIB:TechType.obj
 0002:000192dc       ??_C@_0BA@KECKHDGO@Tank_Siege_Mode@ 004b92dc     BWAPILIB:TechType.obj
 0002:000192ec       ??_C@_0O@DJEDINKG@Scanner_Sweep@ 004b92ec     BWAPILIB:TechType.obj
 0002:000192fc       ??_C@_0L@CFOKMLAM@Stim_Packs@ 004b92fc     BWAPILIB:TechType.obj
 0002:00019308       ??_C@_0M@OKJGDDBF@Infestation@ 004b9308     BWAPILIB:TechType.obj
 0002:00019314       ??_C@_09DFAHLDPC@Burrowing@ 004b9314     BWAPILIB:TechType.obj
 0002:00019320       ??_C@_0BD@CHFLNGBL@Personnel_Cloaking@ 004b9320     BWAPILIB:TechType.obj
 0002:00019334       ??_C@_0P@LGEOPID@Cloaking_Field@ 004b9334     BWAPILIB:TechType.obj
 0002:00019344       ??_C@_0BB@NPAMNJBD@Dark_Archon_Meld@ 004b9344     BWAPILIB:TechType.obj
 0002:00019358       ??_C@_0M@KLAMMAK@Archon_Warp@ 004b9358     BWAPILIB:TechType.obj
 0002:00019364       ??_C@_06FLGNMNOC@Recall@   004b9364     BWAPILIB:TechType.obj
 0002:0001936c       ??_C@_0O@KINFNOIK@Hallucination@ 004b936c     BWAPILIB:TechType.obj
 0002:0001937c       ??_C@_07IJKHPPM@Healing@   004b937c     BWAPILIB:TechType.obj
 0002:00019384       ??_C@_0O@KHOIMLLO@Lurker_Aspect@ 004b9384     BWAPILIB:TechType.obj
 0002:00019394       ??_C@_0BE@BJAEACKF@Terran_Ship_Plating@ 004b9394     BWAPILIB:UpgradeType.obj
 0002:000193a8       ??_C@_0BH@DMFOPGMM@Terran_Vehicle_Plating@ 004b93a8     BWAPILIB:UpgradeType.obj
 0002:000193c0       ??_C@_0BG@IAHIIOHF@Terran_Infantry_Armor@ 004b93c0     BWAPILIB:UpgradeType.obj
 0002:000193d8       ??_C@_0BC@IIKEMAHM@Protoss_Air_Armor@ 004b93d8     BWAPILIB:UpgradeType.obj
 0002:000193ec       ??_C@_0BF@NFNALAKN@Protoss_Ground_Armor@ 004b93ec     BWAPILIB:UpgradeType.obj
 0002:00019404       ??_C@_0BE@LIMFFBAJ@Zerg_Flyer_Carapace@ 004b9404     BWAPILIB:UpgradeType.obj
 0002:00019418       ??_C@_0O@FKHHKHEO@Zerg_Carapace@ 004b9418     BWAPILIB:UpgradeType.obj
 0002:00019428       ??_C@_0BD@HICLJKGH@Zerg_Melee_Attacks@ 004b9428     BWAPILIB:UpgradeType.obj
 0002:0001943c       ??_C@_0BE@HIBMGACG@Terran_Ship_Weapons@ 004b943c     BWAPILIB:UpgradeType.obj
 0002:00019450       ??_C@_0BH@FNEGJEEP@Terran_Vehicle_Weapons@ 004b9450     BWAPILIB:UpgradeType.obj
 0002:00019468       ??_C@_0BI@DBLPLKHF@Terran_Infantry_Weapons@ 004b9468     BWAPILIB:UpgradeType.obj
 0002:00019480       ??_C@_0BE@HBBJGFHH@Protoss_Air_Weapons@ 004b9480     BWAPILIB:UpgradeType.obj
 0002:00019494       ??_C@_0BH@LJDPLNGB@Protoss_Ground_Weapons@ 004b9494     BWAPILIB:UpgradeType.obj
 0002:000194ac       ??_C@_0BD@OBEPKLBP@Zerg_Flyer_Attacks@ 004b94ac     BWAPILIB:UpgradeType.obj
 0002:000194c0       ??_C@_0BF@BFOGOFLJ@Zerg_Missile_Attacks@ 004b94c0     BWAPILIB:UpgradeType.obj
 0002:000194d8       ??_C@_0O@CEDOLNCG@Titan_Reactor@ 004b94d8     BWAPILIB:UpgradeType.obj
 0002:000194e8       ??_C@_0O@BLBHNDKD@Ion_Thrusters@ 004b94e8     BWAPILIB:UpgradeType.obj
 0002:000194f8       ??_C@_0N@NDILGGMO@U_238_Shells@ 004b94f8     BWAPILIB:UpgradeType.obj
 0002:00019508       ??_C@_0BH@BPIJJPFA@Protoss_Plasma_Shields@ 004b9508     BWAPILIB:UpgradeType.obj
 0002:00019520       ??_C@_0BB@FAIHOGKN@Colossus_Reactor@ 004b9520     BWAPILIB:UpgradeType.obj
 0002:00019534       ??_C@_0P@LDJPCLG@Apollo_Reactor@ 004b9534     BWAPILIB:UpgradeType.obj
 0002:00019544       ??_C@_0BA@KHGEPGAL@Moebius_Reactor@ 004b9544     BWAPILIB:UpgradeType.obj
 0002:00019554       ??_C@_0BA@MFHAIJKF@Ocular_Implants@ 004b9554     BWAPILIB:UpgradeType.obj
 0002:00019564       ??_C@_0BA@PFJLHPNP@Metabolic_Boost@ 004b9564     BWAPILIB:UpgradeType.obj
 0002:00019574       ??_C@_0BF@OEFFDKHL@Pneumatized_Carapace@ 004b9574     BWAPILIB:UpgradeType.obj
 0002:0001958c       ??_C@_08PJAEFDKE@Antennae@ 004b958c     BWAPILIB:UpgradeType.obj
 0002:00019598       ??_C@_0N@NFGFHPOB@Ventral_Sacs@ 004b9598     BWAPILIB:UpgradeType.obj
 0002:000195a8       ??_C@_0P@CAOFPIGC@Gamete_Meiosis@ 004b95a8     BWAPILIB:UpgradeType.obj
 0002:000195b8       ??_C@_0P@LBIICNNK@Grooved_Spines@ 004b95b8     BWAPILIB:UpgradeType.obj
 0002:000195c8       ??_C@_0BC@EJPFFJEB@Muscular_Augments@ 004b95c8     BWAPILIB:UpgradeType.obj
 0002:000195dc       ??_C@_0P@GECPNMBA@Adrenal_Glands@ 004b95dc     BWAPILIB:UpgradeType.obj
 0002:000195ec       ??_C@_0O@NHNONOPF@Scarab_Damage@ 004b95ec     BWAPILIB:UpgradeType.obj
 0002:000195fc       ??_C@_0BB@NKOFPDGF@Leg_Enhancements@ 004b95fc     BWAPILIB:UpgradeType.obj
 0002:00019610       ??_C@_0BD@BMLCIEJK@Singularity_Charge@ 004b9610     BWAPILIB:UpgradeType.obj
 0002:00019624       ??_C@_0BC@FNLLPONK@Metasynaptic_Node@ 004b9624     BWAPILIB:UpgradeType.obj
 0002:00019638       ??_C@_0BC@PGHOBGJE@Gravitic_Boosters@ 004b9638     BWAPILIB:UpgradeType.obj
 0002:0001964c       ??_C@_0N@GCBMFKGA@Sensor_Array@ 004b964c     BWAPILIB:UpgradeType.obj
 0002:0001965c       ??_C@_0P@NMMEJEKC@Gravitic_Drive@ 004b965c     BWAPILIB:UpgradeType.obj
 0002:0001966c       ??_C@_0BA@JJEAGGDI@Reaver_Capacity@ 004b966c     BWAPILIB:UpgradeType.obj
 0002:0001967c       ??_C@_0BB@DMNPOJLM@Carrier_Capacity@ 004b967c     BWAPILIB:UpgradeType.obj
 0002:00019690       ??_C@_0BD@LFLAAFED@Gravitic_Thrusters@ 004b9690     BWAPILIB:UpgradeType.obj
 0002:000196a4       ??_C@_0O@LEBOILAP@Apial_Sensors@ 004b96a4     BWAPILIB:UpgradeType.obj
 0002:000196b4       ??_C@_0BB@NGEPKAGF@Khaydarin_Amulet@ 004b96b4     BWAPILIB:UpgradeType.obj
 0002:000196c8       ??_C@_0BB@FMCLNELA@Caduceus_Reactor@ 004b96c8     BWAPILIB:UpgradeType.obj
 0002:000196dc       ??_C@_0P@CFNMHCBD@Argus_Talisman@ 004b96dc     BWAPILIB:UpgradeType.obj
 0002:000196ec       ??_C@_0M@HJECNLPB@Argus_Jewel@ 004b96ec     BWAPILIB:UpgradeType.obj
 0002:000196f8       ??_C@_0P@DDEALJIH@Khaydarin_Core@ 004b96f8     BWAPILIB:UpgradeType.obj
 0002:00019708       ??_C@_0L@DOBHICGI@Upgrade_60@ 004b9708     BWAPILIB:UpgradeType.obj
 0002:00019714       ??_C@_0BA@BIGOEGBE@Charon_Boosters@ 004b9714     BWAPILIB:UpgradeType.obj
 0002:00019724       ??_C@_0BD@NKKFMFNA@Anabolic_Synthesis@ 004b9724     BWAPILIB:UpgradeType.obj
 0002:00019738       ??_C@_0BC@HOKJEOKB@Chitinous_Plating@ 004b9738     BWAPILIB:UpgradeType.obj
 0002:0001974c       ??_C@_0BO@CIBNCMLC@Game?5table?5mapping?5not?5found?4@ 004b974c     BWAPIClient:Client.obj
 0002:0001976c       ??_C@_0CE@PPOIDJKK@Local?2bwapi_shared_memory_game_@ 004b976c     BWAPIClient:Client.obj
 0002:00019790       ??_C@_0BD@FHNMKEBB@Already?5connected?4@ 004b9790     BWAPIClient:Client.obj
 0002:000197a4       ??_C@_0BL@DBFFAIAL@Local?2bwapi_shared_memory_@ 004b97a4     BWAPIClient:Client.obj
 0002:000197c0       ??_C@_0BC@HNKJGPDL@No?5server?5proc?5ID@ 004b97c0     BWAPIClient:Client.obj
 0002:000197d4       ??_C@_03LGOGDKEL@?5?$HM?5@ 004b97d4     BWAPIClient:Client.obj
 0002:000197d8       ??_C@_0BK@HBFAFKHO@Unable?5to?5map?5Game?5table?4@ 004b97d8     BWAPIClient:Client.obj
 0002:000197f4       ??_C@_0CH@HANDGCBK@Unable?5to?5open?5shared?5memory?5ma@ 004b97f4     BWAPIClient:Client.obj
 0002:0001981c       ??_C@_09NJLBODLJ@Connected@ 004b981c     BWAPIClient:Client.obj
 0002:00019828       ??_C@_0CF@JADAPBOG@Unable?5to?5open?5communications?5p@ 004b9828     BWAPIClient:Client.obj
 0002:00019850       ??_C@_0BF@FHIAFIEH@?2?2?4?2pipe?2bwapi_pipe_@ 004b9850     BWAPIClient:Client.obj
 0002:00019868       ??_C@_0BB@INIEFE@Server?5version?3?5@ 004b9868     BWAPIClient:Client.obj
 0002:0001987c       ??_C@_0BB@ECBGCJLC@Client?5version?3?5@ 004b987c     BWAPIClient:Client.obj
 0002:00019890       ??_C@_0CN@PNCCMIO@Error?3?5Client?5and?5Server?5are?5no@ 004b9890     BWAPIClient:Client.obj
 0002:000198c0       ??_C@_0BJ@NGGEHKBJ@Unable?5to?5map?5game?5data?4@ 004b98c0     BWAPIClient:Client.obj
 0002:000198dc       ??_C@_0BG@HOECKJEC@failed?0?5disconnecting@ 004b98dc     BWAPIClient:Client.obj
 0002:000198f4       ??_C@_0N@NFBNFHML@Disconnected@ 004b98f4     BWAPIClient:Client.obj
 0002:00019904       ??_C@_0BG@ELLGOOED@Connection?5successful@ 004b9904     BWAPIClient:Client.obj
 0002:0001991c       ??_C@_0BM@GAEHJONN@Unable?5to?5read?5pipe?5object?4@ 004b991c     BWAPIClient:Client.obj
 0002:0001993c       ??_7ForceImpl@BWAPI@@6B@   004b993c     BWAPIClient:GameImpl.obj
 0002:00019950       ??_7GameImpl@BWAPI@@6B@    004b9950     BWAPIClient:GameImpl.obj
 0002:00019b04       ??_7PlayerImpl@BWAPI@@6B@  004b9b04     BWAPIClient:GameImpl.obj
 0002:00019bbc       ??_7?$Interface@VUnitInterface@BWAPI@@@BWAPI@@6B@ 004b9bbc     BWAPIClient:GameImpl.obj
 0002:00019bc4       ??_7?$Interface@VPlayerInterface@BWAPI@@@BWAPI@@6B@ 004b9bc4     BWAPIClient:GameImpl.obj
 0002:00019bcc       ??_7UnitImpl@BWAPI@@6B@    004b9bcc     BWAPIClient:GameImpl.obj
 0002:00019f04       ??_8?$basic_ifstream@DU?$char_traits@D@std@@@std@@7B@ 004b9f04     BWAPIClient:GameImpl.obj
 0002:00019f10       ??_7BulletImpl@BWAPI@@6B@  004b9f10     BWAPIClient:GameImpl.obj
 0002:00019f4c       ??_7?$basic_ifstream@DU?$char_traits@D@std@@@std@@6B@ 004b9f4c     BWAPIClient:GameImpl.obj
 0002:00019f54       ??_7?$Interface@VForceInterface@BWAPI@@@BWAPI@@6B@ 004b9f54     BWAPIClient:GameImpl.obj
 0002:00019f5c       ??_7?$Interface@VBulletInterface@BWAPI@@@BWAPI@@6B@ 004b9f5c     BWAPIClient:GameImpl.obj
 0002:00019f64       ??_7?$Interface@VGame@BWAPI@@@BWAPI@@6B@ 004b9f64     BWAPIClient:GameImpl.obj
 0002:00019f68       ??_C@_0O@NKNMEGII@list?5too?5long@ 004b9f68     BWAPIClient:GameImpl.obj
 0002:00019f7c       ??_7?$_Func_impl_no_alloc@V<lambda_ba21b10bb59a1d52d976b39184b53b78>@@_NPAVUnitInterface@BWAPI@@@std@@6B@ 004b9f7c     BWAPIClient:GameShared.obj
 0002:00019f98       ??_7?$_Func_impl_no_alloc@V<lambda_1feb1c45d8d8f4db5ffac22a9dbce3a7>@@_NPAVUnitInterface@BWAPI@@@std@@6B@ 004b9f98     BWAPIClient:GameShared.obj
 0002:00019fd0       ??_7?$_Func_impl_no_alloc@V<lambda_a2cf48cc0ad720342f05725db62c6909>@@_NPAVUnitInterface@BWAPI@@@std@@6B@ 004b9fd0     BWAPIClient:GameShared.obj
 0002:00019fec       ??_7?$_Func_impl_no_alloc@V<lambda_cfd6fce307c286eb3135c7782fdef1bb>@@_NPAVUnitInterface@BWAPI@@@std@@6B@ 004b9fec     BWAPIClient:GameShared.obj
 0002:0001a008       ??_7?$Interface@VRegionInterface@BWAPI@@@BWAPI@@6B@ 004ba008     BWAPIClient:RegionImpl.obj
 0002:0001a010       ??_7RegionImpl@BWAPI@@6B@  004ba010     BWAPIClient:RegionImpl.obj
 0002:0001a068       ??_7Player_NOKDPS@SparCraft@@6B@ 004ba068     SparCraft:Player_NOKDPS.obj
 0002:0001a070       ??_C@_02NJPGOMH@?$CFf@     004ba070     SparCraft:GameState.obj
 0002:0001a074       ??_C@_07OLBIDKLK@Players@  004ba074     SparCraft:EnumData.obj
 0002:0001a07c       ??_C@_0N@DMADNCOF@SearchMethod@ 004ba07c     SparCraft:EnumData.obj
 0002:0001a08c       ??_C@_09BCOFADI@AlphaBeta@ 004ba08c     SparCraft:EnumData.obj
 0002:0001a098       ??_C@_0M@FCCKBJCN@IDAlphaBeta@ 004ba098     SparCraft:EnumData.obj
 0002:0001a0a4       ??_C@_07FHDKFHID@MiniMax@  004ba0a4     SparCraft:EnumData.obj
 0002:0001a0ac       ??_C@_0L@BIALLJLK@Player?5One@ 004ba0ac     SparCraft:EnumData.obj
 0002:0001a0b8       ??_C@_0L@HGALBJFB@Player?5Two@ 004ba0b8     SparCraft:EnumData.obj
 0002:0001a0c4       ??_C@_0M@LKKPGPPN@Player?5None@ 004ba0c4     SparCraft:EnumData.obj
 0002:0001a0d0       ??_C@_0M@NLEANKBH@Player?5Both@ 004ba0d0     SparCraft:EnumData.obj
 0002:0001a0dc       ??_C@_09EMEHGFBA@AttackDPS@ 004ba0dc     SparCraft:EnumData.obj
 0002:0001a0e8       ??_C@_08KAMFPLCI@KiterDPS@ 004ba0e8     SparCraft:EnumData.obj
 0002:0001a0f4       ??_C@_06EONGBAAJ@NOKDPS@   004ba0f4     SparCraft:EnumData.obj
 0002:0001a0fc       ??_C@_0N@BIBHBFBI@Kiter_NOKDPS@ 004ba0fc     SparCraft:EnumData.obj
 0002:0001a10c       ??_C@_0N@EODFHNNC@PlayerModels@ 004ba10c     SparCraft:EnumData.obj
 0002:0001a11c       ??_C@_0O@GHIHHMBB@AttackClosest@ 004ba11c     SparCraft:EnumData.obj
 0002:0001a12c       ??_C@_05IMIJELL@Kiter@     004ba12c     SparCraft:EnumData.obj
 0002:0001a134       ??_C@_0O@GAHELLCA@AttackWeakest@ 004ba134     SparCraft:EnumData.obj
 0002:0001a144       ??_C@_03PANJMLAL@LTD@      004ba144     SparCraft:EnumData.obj
 0002:0001a148       ??_C@_04HKFCFEDC@LTD2@     004ba148     SparCraft:EnumData.obj
 0002:0001a150       ??_C@_07MOKLFKJM@Playout@  004ba150     SparCraft:EnumData.obj
 0002:0001a158       ??_C@_0P@CANGCI@SearchNodeType@ 004ba158     SparCraft:EnumData.obj
 0002:0001a168       ??_C@_07CDAMOABA@Cluster@  004ba168     SparCraft:EnumData.obj
 0002:0001a170       ??_C@_0BG@MHMIIONG@PortfolioGreedySearch@ 004ba170     SparCraft:EnumData.obj
 0002:0001a188       ??_C@_03IOGDHELK@UCT@      004ba188     SparCraft:EnumData.obj
 0002:0001a18c       ??_C@_0BC@OKKOAIOI@EvaluationMethods@ 004ba18c     SparCraft:EnumData.obj
 0002:0001a1a0       ??_C@_0O@JGIMCFKK@SecondSimNode@ 004ba1a0     SparCraft:EnumData.obj
 0002:0001a1b0       ??_C@_0BA@CKLMBDHL@MoveOrderMethod@ 004ba1b0     SparCraft:EnumData.obj
 0002:0001a1c0       ??_C@_0M@CBADLIAG@ScriptFirst@ 004ba1c0     SparCraft:EnumData.obj
 0002:0001a1cc       ??_C@_0N@BCDGJKKP@PlayerToMove@ 004ba1cc     SparCraft:EnumData.obj
 0002:0001a1dc       ??_C@_07MCAEODGB@Default@  004ba1dc     SparCraft:EnumData.obj
 0002:0001a1e4       ??_C@_08HCAGLOAO@RootNode@ 004ba1e4     SparCraft:EnumData.obj
 0002:0001a1f0       ??_C@_08DNIEECII@SoloNode@ 004ba1f0     SparCraft:EnumData.obj
 0002:0001a1fc       ??_C@_0N@OMFIPKBG@FirstSimNode@ 004ba1fc     SparCraft:EnumData.obj
 0002:0001a20c       ??_C@_09IOMONPGB@Alternate@ 004ba20c     SparCraft:EnumData.obj
 0002:0001a218       ??_C@_0O@NDFEPAKD@Not_Alternate@ 004ba218     SparCraft:EnumData.obj
 0002:0001a228       ??_C@_05LEHMOKNM@?5ID?3?5@ 004ba228     SparCraft:EnumData.obj
 0002:0001a230       ??_C@_08GFFKJBOF@Unknown?5@ 004ba230     SparCraft:EnumData.obj
 0002:0001a240       ??_7BOSSException@BOSS@@6B@ 004ba240     BOSS:BOSSAssert.obj
 0002:0001a248       ??_C@_0EF@LHLPPIEE@C?3?2Users?2ahlad?2Desktop?2Bot_Baka@ 004ba248     BOSS:DFBB_BuildOrderSearchParameters.obj
 0002:0001a290       ??_C@_0P@CAKLNNND@index?5?$DM?5size?$CI?$CJ@ 004ba290     BOSS:DFBB_BuildOrderSearchParameters.obj
 0002:0001a2a0       ??_C@_0DD@FMDBHIPI@Vec?5out?5of?5bounds?5exception?0?5Si@ 004ba2a0     BOSS:DFBB_BuildOrderSearchParameters.obj
 0002:0001a2d4       ??_C@_0BD@PNEMDNOL@_size?5?$DM?5capacity?$CI?$CJ@ 004ba2d4     BOSS:BuildingData.obj
 0002:0001a2e8       ??_C@_0CO@CNPPPLOI@Array?5over?5capacity?3?5Capacity?5?$DN@ 004ba2e8     BOSS:BuildingData.obj
 0002:0001a318       ??_C@_08JNEJNCCA@?$CBempty?$CI?$CJ@ 004ba318     BOSS:BuildingData.obj
 0002:0001a324       ??_C@_0CD@GNBLPHB@Vector?5pop_back?$CI?$CJ?5with?5empty?5ar@ 004ba324     BOSS:BuildingData.obj
 0002:0001a348       ??_C@_0BP@JLEJMFCD@Array?5over?5capacity?3?5Size?5?$DN?5?$CFd@ 004ba348     BOSS:ActionInProgress.obj
 0002:0001a368       ??_C@_0BA@BBHKLPGK@index?5?$DM?$DN?5size?$CI?$CJ@ 004ba368     BOSS:ActionInProgress.obj
 0002:0001a378       ??_C@_0CK@KMGPHHMJ@Can?8t?5add?5at?5index?3?5Index?5?$DN?5?$CFd?0@ 004ba378     BOSS:ActionInProgress.obj
 0002:0001a3a8       __real@0000000000000000    004ba3a8     utils.obj
 0002:0001a3b0       __real@3dcccccd            004ba3b0     SparCraft:Unit.obj
 0002:0001a3b8       __real@3f50624dd2f1a9fc    004ba3b8     SparCraft:Timer.obj
 0002:0001a3c0       __real@3f800000            004ba3c0     SparCraft:Unit.obj
 0002:0001a3c8       __real@3fa70a3d70a3d70a    004ba3c8     WorkerManager.obj
 0002:0001a3d0       __real@3fb1eb851eb851ec    004ba3d0     WorkerManager.obj
 0002:0001a3d8       __real@3fd51eb851eb851f    004ba3d8     InformationManager.obj
 0002:0001a3e0       __real@3fd999999999999a    004ba3e0     ProductionManager.obj
 0002:0001a3e8       __real@3fe0000000000000    004ba3e8     area.obj
 0002:0001a3f0       __real@3fe3333333333333    004ba3f0     ProductionManager.obj
 0002:0001a3f8       __real@3fe51eb851eb851f    004ba3f8     InformationManager.obj
 0002:0001a400       __real@3fe6666666666666    004ba400     ProductionManager.obj
 0002:0001a408       __real@3fe8000000000000    004ba408     BWAPIClient:UnitImpl.obj
 0002:0001a410       __real@3fe999999999999a    004ba410     ProductionManager.obj
 0002:0001a418       __real@3feccccccccccccd    004ba418     ProductionManager.obj
 0002:0001a420       __real@3ff0000000000000    004ba420     utils.obj
 0002:0001a428       __real@3ff199999999999a    004ba428     ProductionManager.obj
 0002:0001a430       __real@3ff3333333333333    004ba430     ProductionManager.obj
 0002:0001a438       __real@3ff4cccccccccccd    004ba438     ProductionManager.obj
 0002:0001a440       __real@3ff6666666666666    004ba440     ProductionManager.obj
 0002:0001a448       __real@3ff8000000000000    004ba448     BWAPILIB:Player.obj
 0002:0001a450       __real@3ffab00000000000    004ba450     BWAPILIB:Player.obj
 0002:0001a458       __real@4000000000000000    004ba458     MapTools.obj
 0002:0001a460       __real@4008000000000000    004ba460     mapImpl.obj
 0002:0001a468       __real@400aa80000000000    004ba468     BWAPILIB:Player.obj
 0002:0001a470       __real@4014000000000000    004ba470     BOSSManager.obj
 0002:0001a478       __real@4020000000000000    004ba478     mapImpl.obj
 0002:0001a480       __real@4024000000000000    004ba480     ParseUtils.obj
 0002:0001a488       __real@4030000000000000    004ba488     SparCraft:GameState.obj
 0002:0001a490       __real@4037cccccccccccd    004ba490     GameCommander.obj
 0002:0001a498       __real@403e000000000000    004ba498     ProductionManager.obj
 0002:0001a4a0       __real@4044000000000000    004ba4a0     CombatSimulation.obj
 0002:0001a4a8       __real@4049000000000000    004ba4a8     WorkerManager.obj
 0002:0001a4b0       __real@404b800000000000    004ba4b0     TimerManager.obj
 0002:0001a4b8       __real@4050000000000000    004ba4b8     Micro.obj
 0002:0001a4c0       __real@4068000000000000    004ba4c0     Micro.obj
 0002:0001a4c8       __real@4069000000000000    004ba4c8     ProductionManager.obj
 0002:0001a4d0       __real@4070000000000000    004ba4d0     TransportManager.obj
 0002:0001a4d8       __real@4072c00000000000    004ba4d8     graph.obj
 0002:0001a4e0       __real@4079000000000000    004ba4e0     WorkerManager.obj
 0002:0001a4e8       __real@407f400000000000    004ba4e8     ProductionManager.obj
 0002:0001a4f0       __real@4089000000000000    004ba4f0     ScoutManager.obj
 0002:0001a4f8       __real@4090000000000000    004ba4f8     SparCraft:UnitProperties.obj
 0002:0001a500       __real@4096500000000000    004ba500     GameCommander.obj
 0002:0001a508       __real@409ce80000000000    004ba508     ProductionManager.obj
 0002:0001a510       __real@40a25c0000000000    004ba510     ProductionManager.obj
 0002:0001a518       __real@40c3880000000000    004ba518     WorkerManager.obj
 0002:0001a520       __real@40f86a0000000000    004ba520     WorkerManager.obj
 0002:0001a528       __real@412e848000000000    004ba528     SparCraft:Timer.obj
 0002:0001a530       __real@416312d000000000    004ba530     TransportManager.obj
 0002:0001a538       __real@43088e6d68b00000    004ba538     main.obj
 0002:0001a540       __real@447a0000            004ba540     SparCraft:GameState.obj
 0002:0001a548       __real@7fb9999999999999    004ba548     ParseUtils.obj
 0002:0001a550       __real@7fe1ccf385ebc8a0    004ba550     ParseUtils.obj
 0002:0001a558       __real@7fefffffffffffff    004ba558     BuildingPlacerManager.obj
 0002:0001a560       __real@7ff0000000000000    004ba560     RangedManager.obj
 0002:0001a568       __real@bfe8000000000000    004ba568     BWAPIClient:UnitImpl.obj
 0002:0001a570       __real@bff0000000000000    004ba570     ProductionManager.obj
 0002:0001a580       __xmm@00000000000000000000000000000005 004ba580     BaseLocationManager.obj
 0002:0001a590       __xmm@00000000000000000000000400000000 004ba590     BOSS:GameState.obj
 0002:0001a5a0       __xmm@00000000000000010000000400000000 004ba5a0     BOSS:DFBB_BuildOrderStackSearch.obj
 0002:0001a5b0       __xmm@00000000000000ff00000000000000ff 004ba5b0     SparCraft:GameState.obj
 0002:0001a5c0       __xmm@00000000ffffffffffffffff00000000 004ba5c0     mapImpl.obj
 0002:0001a5d0       __xmm@00000000ffffffffffffffff00000001 004ba5d0     mapImpl.obj
 0002:0001a5e0       __xmm@00000001000000000000000000000001 004ba5e0     mapImpl.obj
 0002:0001a5f0       __xmm@00000001000000010000000100000000 004ba5f0     mapImpl.obj
 0002:0001a600       __xmm@00000001ffffffff0000000000000001 004ba600     mapImpl.obj
 0002:0001a610       __xmm@00000003000000020000000100000000 004ba610     BWAPILIB:UnitType.obj
 0002:0001a620       __xmm@000000050000002c000000e400000002 004ba620     StrategyManager.obj
 0002:0001a630       __xmm@00000007000000020000000100000000 004ba630     BWAPILIB:Race.obj
 0002:0001a640       __xmm@00000007000000060000000500000004 004ba640     BWAPILIB:WeaponType.obj
 0002:0001a650       __xmm@00000009000000080000000700000005 004ba650     BWAPILIB:UnitType.obj
 0002:0001a660       __xmm@0000000a000000140000002000000000 004ba660     BWAPILIB:TechType.obj
 0002:0001a670       __xmm@0000000b0000000a0000000800000009 004ba670     BWAPILIB:WeaponType.obj
 0002:0001a680       __xmm@0000000b0000000a0000000900000008 004ba680     BWAPILIB:TechType.obj
 0002:0001a690       __xmm@0000000d0000000c0000000b0000000a 004ba690     BWAPILIB:UnitType.obj
 0002:0001a6a0       __xmm@0000000d0000002c000000e400000002 004ba6a0     StrategyManager.obj
 0002:0001a6b0       __xmm@0000000f0000000e0000000d0000000c 004ba6b0     BWAPILIB:TechType.obj
 0002:0001a6c0       __xmm@0000000f0000002c000000e400000002 004ba6c0     StrategyManager.obj
 0002:0001a6d0       __xmm@000000110000000f0000000d0000000c 004ba6d0     BWAPILIB:WeaponType.obj
 0002:0001a6e0       __xmm@00000011000000100000000f0000000e 004ba6e0     BWAPILIB:UnitType.obj
 0002:0001a6f0       __xmm@00000015000000130000001200000010 004ba6f0     BWAPILIB:WeaponType.obj
 0002:0001a700       __xmm@00000016000000150000001400000013 004ba700     BWAPILIB:UnitType.obj
 0002:0001a710       __xmm@00000018000000160000001400000017 004ba710     BWAPILIB:WeaponType.obj
 0002:0001a720       __xmm@00000019000000170000001e00000005 004ba720     BWAPILIB:TechType.obj
 0002:0001a730       __xmm@0000001a000000190000001800000017 004ba730     BWAPILIB:UpgradeType.obj
 0002:0001a740       __xmm@0000001c0000001b0000001900000017 004ba740     BWAPILIB:UnitType.obj
 0002:0001a750       __xmm@0000001c0000001b0000001a00000019 004ba750     BWAPILIB:WeaponType.obj
 0002:0001a760       __xmm@0000001d0000001c000000660000000c 004ba760     BWAPILIB:TechType.obj
 0002:0001a770       __xmm@0000001e000000140000000a00000005 004ba770     StrategyManager.obj
 0002:0001a780       __xmm@0000001e0000001d0000001c0000001b 004ba780     BWAPILIB:TechType.obj
 0002:0001a790       __xmm@0000001e0000002c000000e400000000 004ba790     StrategyManager.obj
 0002:0001a7a0       __xmm@00000021000000200000001e0000001d 004ba7a0     BWAPILIB:UnitType.obj
 0002:0001a7b0       __xmm@00000021000000200000001f0000001e 004ba7b0     BWAPILIB:WeaponType.obj
 0002:0001a7c0       __xmm@000000210000002c000000e400000002 004ba7c0     StrategyManager.obj
 0002:0001a7d0       __xmm@0000002200000021000000200000001f 004ba7d0     BWAPILIB:UpgradeType.obj
 0002:0001a7e0       __xmm@000000220000002c000000e400000002 004ba7e0     StrategyManager.obj
 0002:0001a7f0       __xmm@0000002500000024000000230000001d 004ba7f0     BWAPILIB:WeaponType.obj
 0002:0001a800       __xmm@00000025000000240000002300000022 004ba800     BWAPILIB:UnitType.obj
 0002:0001a810       __xmm@000000270000002f0000002d0000002a 004ba810     BWAPILIB:UnitType.obj
 0002:0001a820       __xmm@00000029000000280000002700000026 004ba820     BWAPILIB:UnitType.obj
 0002:0001a830       __xmm@0000002b00000026000000290000002e 004ba830     BWAPILIB:UnitType.obj
 0002:0001a840       __xmm@0000002c00000022000000200000001f 004ba840     BWAPILIB:TechType.obj
 0002:0001a850       __xmm@0000002d0000002c0000002b0000002a 004ba850     BWAPILIB:UnitType.obj
 0002:0001a860       __xmm@0000002e000000290000002600000025 004ba860     BWAPILIB:TechType.obj
 0002:0001a870       __xmm@00000031000000300000002f0000002e 004ba870     BWAPILIB:UnitType.obj
 0002:0001a880       __xmm@0000003400000033000000310000002f 004ba880     BWAPILIB:UpgradeType.obj
 0002:0001a890       __xmm@00000035000000340000003300000032 004ba890     BWAPILIB:UnitType.obj
 0002:0001a8a0       __xmm@00000036000000350000003400000032 004ba8a0     BWAPILIB:TechType.obj
 0002:0001a8b0       __xmm@00000037000000360000003500000034 004ba8b0     BWAPILIB:WeaponType.obj
 0002:0001a8c0       __xmm@00000039000000380000003700000036 004ba8c0     BWAPILIB:UnitType.obj
 0002:0001a8d0       __xmm@0000003a000000390000003800000022 004ba8d0     BWAPILIB:WeaponType.obj
 0002:0001a8e0       __xmm@0000003d00000005000000e400000001 004ba8e0     StrategyManager.obj
 0002:0001a8f0       __xmm@0000003d0000002c0000000000000001 004ba8f0     StrategyManager.obj
 0002:0001a900       __xmm@0000003d0000002c0000000200000001 004ba900     StrategyManager.obj
 0002:0001a910       __xmm@0000003d0000002c0000000300000001 004ba910     StrategyManager.obj
 0002:0001a920       __xmm@0000003d0000002c0000000500000001 004ba920     StrategyManager.obj
 0002:0001a930       __xmm@0000003d0000002c0000000700000001 004ba930     StrategyManager.obj
 0002:0001a940       __xmm@0000003d0000002c0000002500000000 004ba940     StrategyManager.obj
 0002:0001a950       __xmm@0000003d0000002c0000002600000000 004ba950     StrategyManager.obj
 0002:0001a960       __xmm@0000003d0000002c0000002900000000 004ba960     StrategyManager.obj
 0002:0001a970       __xmm@0000003d0000002c0000002f00000000 004ba970     StrategyManager.obj
 0002:0001a980       __xmm@0000003d0000002c0000003c00000002 004ba980     StrategyManager.obj
 0002:0001a990       __xmm@0000003d0000002c0000003d00000002 004ba990     StrategyManager.obj
 0002:0001a9a0       __xmm@0000003d0000002c0000004100000002 004ba9a0     StrategyManager.obj
 0002:0001a9b0       __xmm@0000003d0000002c0000004200000002 004ba9b0     StrategyManager.obj
 0002:0001a9c0       __xmm@0000003d0000002c0000004500000002 004ba9c0     StrategyManager.obj
 0002:0001a9d0       __xmm@0000003d0000002c0000005400000002 004ba9d0     StrategyManager.obj
 0002:0001a9e0       __xmm@0000003d0000002c0000006a00000001 004ba9e0     StrategyManager.obj
 0002:0001a9f0       __xmm@0000003d0000002c0000007a00000001 004ba9f0     StrategyManager.obj
 0002:0001aa00       __xmm@0000003d0000002c0000008300000000 004baa00     StrategyManager.obj
 0002:0001aa10       __xmm@0000003d0000002c0000009a00000002 004baa10     StrategyManager.obj
 0002:0001aa20       __xmm@0000003d0000002c0000009b00000002 004baa20     StrategyManager.obj
 0002:0001aa30       __xmm@0000003d0000002c0000009d00000002 004baa30     StrategyManager.obj
 0002:0001aa40       __xmm@0000003d0000002c0000009f00000002 004baa40     StrategyManager.obj
 0002:0001aa50       __xmm@0000003d0000002c000000a000000002 004baa50     StrategyManager.obj
 0002:0001aa60       __xmm@0000003d0000002c000000a300000002 004baa60     StrategyManager.obj
 0002:0001aa70       __xmm@0000003d0000002c000000a400000002 004baa70     StrategyManager.obj
 0002:0001aa80       __xmm@0000003d0000002c000000a500000002 004baa80     StrategyManager.obj
 0002:0001aa90       __xmm@0000003d0000002c000000a600000002 004baa90     StrategyManager.obj
 0002:0001aaa0       __xmm@0000003d0000002c000000a700000002 004baaa0     StrategyManager.obj
 0002:0001aab0       __xmm@0000003d0000003c0000003b0000003a 004baab0     BWAPILIB:UnitType.obj
 0002:0001aac0       __xmm@0000003e0000003d0000003600000035 004baac0     BWAPILIB:UpgradeType.obj
 0002:0001aad0       __xmm@00000041000000400000003f0000003e 004baad0     BWAPILIB:UnitType.obj
 0002:0001aae0       __xmm@0000004200000041000000400000003e 004baae0     BWAPILIB:WeaponType.obj
 0002:0001aaf0       __xmm@00000045000000440000004300000042 004baaf0     BWAPILIB:UnitType.obj
 0002:0001ab00       __xmm@00000047000000460000004500000043 004bab00     BWAPILIB:WeaponType.obj
 0002:0001ab10       __xmm@00000049000000480000004700000046 004bab10     BWAPILIB:UnitType.obj
 0002:0001ab20       __xmm@0000004a000000720000004b00000049 004bab20     BWAPILIB:WeaponType.obj
 0002:0001ab30       __xmm@0000004d0000004c0000004b0000004a 004bab30     BWAPILIB:UnitType.obj
 0002:0001ab40       __xmm@0000004e0000004d000000730000004c 004bab40     BWAPILIB:WeaponType.obj
 0002:0001ab50       __xmm@00000051000000500000004f0000004e 004bab50     BWAPILIB:UnitType.obj
 0002:0001ab60       __xmm@0000005200000051000000500000004f 004bab60     BWAPILIB:WeaponType.obj
 0002:0001ab70       __xmm@000000530000003d0000003c0000003b 004bab70     BWAPILIB:WeaponType.obj
 0002:0001ab80       __xmm@00000055000000540000005300000052 004bab80     BWAPILIB:UnitType.obj
 0002:0001ab90       __xmm@00000059000000580000005700000056 004bab90     BWAPILIB:UnitType.obj
 0002:0001aba0       __xmm@0000005d00000055000000560000006f 004baba0     BWAPILIB:WeaponType.obj
 0002:0001abb0       __xmm@0000005d0000005c0000005b0000005a 004babb0     BWAPILIB:UnitType.obj
 0002:0001abc0       __xmm@00000061000000600000005f0000005e 004babc0     BWAPILIB:UnitType.obj
 0002:0001abd0       __xmm@00000062000000630000006100000060 004babd0     BWAPILIB:WeaponType.obj
 0002:0001abe0       __xmm@00000063000000680000006400000001 004babe0     BWAPILIB:TechType.obj
 0002:0001abf0       __xmm@00000065000000640000006300000062 004babf0     BWAPILIB:UnitType.obj
 0002:0001ac00       __xmm@0000006800000033000000340000002e 004bac00     BWAPILIB:TechType.obj
 0002:0001ac10       __xmm@00000069000000680000006700000066 004bac10     BWAPILIB:UnitType.obj
 0002:0001ac20       __xmm@0000006c0000006b0000006a00000069 004bac20     BWAPILIB:WeaponType.obj
 0002:0001ac30       __xmm@0000006d000000680000006700000064 004bac30     BWAPILIB:WeaponType.obj
 0002:0001ac40       __xmm@0000006d0000006c0000006b0000006a 004bac40     BWAPILIB:UnitType.obj
 0002:0001ac50       __xmm@0000006d00000072000000740000006e 004bac50     BWAPILIB:UnitType.obj
 0002:0001ac60       __xmm@00000071000000700000006f0000006e 004bac60     BWAPILIB:UnitType.obj
 0002:0001ac70       __xmm@00000075000000740000007300000072 004bac70     BWAPILIB:UnitType.obj
 0002:0001ac80       __xmm@0000007b0000007a0000007800000076 004bac80     BWAPILIB:UnitType.obj
 0002:0001ac90       __xmm@0000007c000000710000007a0000006a 004bac90     BWAPILIB:UnitType.obj
 0002:0001aca0       __xmm@0000007d0000006f0000007b00000070 004baca0     BWAPILIB:UnitType.obj
 0002:0001acb0       __xmm@0000007f0000007e0000007d0000007c 004bacb0     BWAPILIB:UnitType.obj
 0002:0001acc0       __xmm@00000083000000820000008100000080 004bacc0     BWAPILIB:UnitType.obj
 0002:0001acd0       __xmm@00000087000000860000008500000084 004bacd0     BWAPILIB:UnitType.obj
 0002:0001ace0       __xmm@0000008a000000860000008700000083 004bace0     BWAPILIB:UnitType.obj
 0002:0001acf0       __xmm@0000008b0000008a0000008900000088 004bacf0     BWAPILIB:UnitType.obj
 0002:0001ad00       __xmm@0000008f0000008e0000008d0000008c 004bad00     BWAPILIB:UnitType.obj
 0002:0001ad10       __xmm@00000094000000930000009200000090 004bad10     BWAPILIB:UnitType.obj
 0002:0001ad20       __xmm@000000950000008b000000880000008f 004bad20     BWAPILIB:UnitType.obj
 0002:0001ad30       __xmm@00000098000000970000009600000095 004bad30     BWAPILIB:UnitType.obj
 0002:0001ad40       __xmm@0000009a000000a0000000a6000000a9 004bad40     BWAPILIB:UnitType.obj
 0002:0001ad50       __xmm@0000009b0000009c000000a20000009f 004bad50     BWAPILIB:UnitType.obj
 0002:0001ad60       __xmm@0000009d0000009c0000009b0000009a 004bad60     BWAPILIB:UnitType.obj
 0002:0001ad70       __xmm@000000a3000000a2000000a00000009f 004bad70     BWAPILIB:UnitType.obj
 0002:0001ad80       __xmm@000000a4000000a30000009d000000aa 004bad80     BWAPILIB:UnitType.obj
 0002:0001ad90       __xmm@000000a5000000a7000000ac000000ab 004bad90     BWAPILIB:UnitType.obj
 0002:0001ada0       __xmm@000000a7000000a6000000a5000000a4 004bada0     BWAPILIB:UnitType.obj
 0002:0001adb0       __xmm@000000ab000000aa000000a9000000a8 004badb0     BWAPILIB:UnitType.obj
 0002:0001adc0       __xmm@000000af000000ae000000ad000000ac 004badc0     BWAPILIB:UnitType.obj
 0002:0001add0       __xmm@000000b8000000b2000000b1000000b0 004badd0     BWAPILIB:UnitType.obj
 0002:0001ade0       __xmm@000000c2000000be000000bd000000bc 004bade0     BWAPILIB:UnitType.obj
 0002:0001adf0       __xmm@000000c6000000c5000000c4000000c3 004badf0     BWAPILIB:UnitType.obj
 0002:0001ae00       __xmm@000000ca000000c9000000c8000000c7 004bae00     BWAPILIB:UnitType.obj
 0002:0001ae10       __xmm@000000ce000000cd000000cc000000cb 004bae10     BWAPILIB:UnitType.obj
 0002:0001ae20       __xmm@000000d2000000d1000000d0000000cf 004bae20     BWAPILIB:UnitType.obj
 0002:0001ae30       __xmm@000000d6000000d5000000d4000000d3 004bae30     BWAPILIB:UnitType.obj
 0002:0001ae40       __xmm@000000da000000d9000000d8000000d7 004bae40     BWAPILIB:UnitType.obj
 0002:0001ae50       __xmm@000000de000000dd000000dc000000db 004bae50     BWAPILIB:UnitType.obj
 0002:0001ae60       __xmm@000000e2000000e1000000e0000000df 004bae60     BWAPILIB:UnitType.obj
 0002:0001ae70       __xmm@000000e5000000e8000000e7000000e6 004bae70     BWAPILIB:UnitType.obj
 0002:0001ae80       __xmm@41f00000000000000000000000000000 004bae80     BuildingPlacerManager.obj
 0002:0001ae90       __xmm@80000000000000008000000000000000 004bae90     ParseUtils.obj
 0002:0001aea0       __xmm@800000007fffffff800000007fffffff 004baea0     BaseLocationManager.obj
 0002:0001aeb0       __xmm@ffff01ffff01010100ff0001ff000100 004baeb0     BaseLocationManager.obj
 0002:0001aec0       __xmm@ffffffff00000000ffffffffffffffff 004baec0     mapImpl.obj
 0002:0001af58       __load_config_used         004baf58     MSVCRT:loadcfg.obj
 0002:0001b040       __tls_used                 004bb040     MSVCRT:tlssup.obj
 0002:0001b058       ??_R4type_info@@6B@        004bb058     MSVCRT:std_type_info_static.obj
 0002:0001b06c       ??_R3type_info@@8          004bb06c     MSVCRT:std_type_info_static.obj
 0002:0001b07c       ??_R2type_info@@8          004bb07c     MSVCRT:std_type_info_static.obj
 0002:0001b084       ??_R1A@?0A@EA@type_info@@8 004bb084     MSVCRT:std_type_info_static.obj
 0002:0001b0a0       ??_R4exception@std@@6B@    004bb0a0     area.obj
 0002:0001b0b4       ??_R2bad_array_new_length@std@@8 004bb0b4     area.obj
 0002:0001b0c4       ??_R2bad_alloc@std@@8      004bb0c4     area.obj
 0002:0001b0d0       ??_R1A@?0A@EA@exception@std@@8 004bb0d0     area.obj
 0002:0001b0ec       ??_R1A@?0A@EA@bad_alloc@std@@8 004bb0ec     area.obj
 0002:0001b108       ??_R2exception@std@@8      004bb108     area.obj
 0002:0001b110       ??_R3exception@std@@8      004bb110     area.obj
 0002:0001b120       ??_R4bad_alloc@std@@6B@    004bb120     area.obj
 0002:0001b134       ??_R3bad_array_new_length@std@@8 004bb134     area.obj
 0002:0001b144       ??_R3bad_alloc@std@@8      004bb144     area.obj
 0002:0001b154       ??_R4bad_array_new_length@std@@6B@ 004bb154     area.obj
 0002:0001b168       ??_R1A@?0A@EA@bad_array_new_length@std@@8 004bb168     area.obj
 0002:0001b184       ??_R4runtime_error@std@@6B@ 004bb184     bwem.obj
 0002:0001b198       ??_R1A@?0A@EA@runtime_error@std@@8 004bb198     bwem.obj
 0002:0001b1b4       ??_R2Exception@BWEM@@8     004bb1b4     bwem.obj
 0002:0001b1c4       ??_R1A@?0A@EA@Exception@BWEM@@8 004bb1c4     bwem.obj
 0002:0001b1e0       ??_R2runtime_error@std@@8  004bb1e0     bwem.obj
 0002:0001b1ec       ??_R3Exception@BWEM@@8     004bb1ec     bwem.obj
 0002:0001b1fc       ??_R4Exception@BWEM@@6B@   004bb1fc     bwem.obj
 0002:0001b210       ??_R3runtime_error@std@@8  004bb210     bwem.obj
 0002:0001b220       ??_R1A@?0A@EA@MapImpl@detail@BWEM@@8 004bb220     mapImpl.obj
 0002:0001b23c       ??_R3Map@BWEM@@8           004bb23c     mapImpl.obj
 0002:0001b24c       ??_R3MapImpl@detail@BWEM@@8 004bb24c     mapImpl.obj
 0002:0001b25c       ??_R2MapImpl@detail@BWEM@@8 004bb25c     mapImpl.obj
 0002:0001b268       ??_R2Map@BWEM@@8           004bb268     mapImpl.obj
 0002:0001b270       ??_R4MapImpl@detail@BWEM@@6B@ 004bb270     mapImpl.obj
 0002:0001b284       ??_R1A@?0A@EA@Map@BWEM@@8  004bb284     mapImpl.obj
 0002:0001b2a0       ??_R2UserData@utils@BWEM@@8 004bb2a0     neutral.obj
 0002:0001b2a8       ??_R1A@?0A@EA@Neutral@BWEM@@8 004bb2a8     neutral.obj
 0002:0001b2c4       ??_R2Neutral@BWEM@@8       004bb2c4     neutral.obj
 0002:0001b2d0       ??_R4Neutral@BWEM@@6B@     004bb2d0     neutral.obj
 0002:0001b2e4       ??_R1A@?0A@EA@Mineral@BWEM@@8 004bb2e4     neutral.obj
 0002:0001b300       ??_R4Ressource@BWEM@@6B@   004bb300     neutral.obj
 0002:0001b314       ??_R4Mineral@BWEM@@6B@     004bb314     neutral.obj
 0002:0001b328       ??_R13?0A@EA@UserData@utils@BWEM@@8 004bb328     neutral.obj
 0002:0001b344       ??_R1A@?0A@EA@StaticBuilding@BWEM@@8 004bb344     neutral.obj
 0002:0001b360       ??_R1A@?0A@EA@UserData@utils@BWEM@@8 004bb360     neutral.obj
 0002:0001b37c       ??_R3Mineral@BWEM@@8       004bb37c     neutral.obj
 0002:0001b38c       ??_R3StaticBuilding@BWEM@@8 004bb38c     neutral.obj
 0002:0001b39c       ??_R3Neutral@BWEM@@8       004bb39c     neutral.obj
 0002:0001b3ac       ??_R2StaticBuilding@BWEM@@8 004bb3ac     neutral.obj
 0002:0001b3bc       ??_R2Ressource@BWEM@@8     004bb3bc     neutral.obj
 0002:0001b3cc       ??_R3UserData@utils@BWEM@@8 004bb3cc     neutral.obj
 0002:0001b3dc       ??_R4Geyser@BWEM@@6B@      004bb3dc     neutral.obj
 0002:0001b3f0       ??_R2Geyser@BWEM@@8        004bb3f0     neutral.obj
 0002:0001b404       ??_R2Mineral@BWEM@@8       004bb404     neutral.obj
 0002:0001b418       ??_R1A@?0A@EA@Geyser@BWEM@@8 004bb418     neutral.obj
 0002:0001b434       ??_R3Geyser@BWEM@@8        004bb434     neutral.obj
 0002:0001b444       ??_R3Ressource@BWEM@@8     004bb444     neutral.obj
 0002:0001b454       ??_R1A@?0A@EA@Ressource@BWEM@@8 004bb454     neutral.obj
 0002:0001b470       ??_R4StaticBuilding@BWEM@@6B@ 004bb470     neutral.obj
 0002:0001b484       ??_R4?$basic_ofstream@DU?$char_traits@D@std@@@std@@6B@ 004bb484     utils.obj
 0002:0001b498       ??_R3?$basic_ofstream@DU?$char_traits@D@std@@@std@@8 004bb498     utils.obj
